
lasdac_mainfirmware.elf:     file format elf32-littlearm

Sections:
Idx Name          Size      VMA       LMA       File off  Algn
  0 .text         0000326c  00400000  00400000  00010000  2**2
                  CONTENTS, ALLOC, LOAD, READONLY, CODE
  1 .relocate     00000214  20000000  0040326c  00020000  2**2
                  CONTENTS, ALLOC, LOAD, CODE
  2 .bss          00000184  20000214  00403480  00020214  2**2
                  ALLOC
  3 .stack        00001000  20000398  00403604  00020214  2**0
                  ALLOC
  4 .ARM.attributes 0000002a  00000000  00000000  00020214  2**0
                  CONTENTS, READONLY
  5 .comment      00000059  00000000  00000000  0002023e  2**0
                  CONTENTS, READONLY
  6 .debug_frame  0000022c  00000000  00000000  00020298  2**2
                  CONTENTS, READONLY, DEBUGGING

Disassembly of section .text:

00400000 <_sfixed>:
  400000:	20001398 	.word	0x20001398
  400004:	00402709 	.word	0x00402709
  400008:	00402705 	.word	0x00402705
  40000c:	00402705 	.word	0x00402705
  400010:	00402705 	.word	0x00402705
  400014:	00402705 	.word	0x00402705
  400018:	00402705 	.word	0x00402705
	...
  40002c:	00402705 	.word	0x00402705
  400030:	00402705 	.word	0x00402705
  400034:	00000000 	.word	0x00000000
  400038:	00402705 	.word	0x00402705
  40003c:	00402cf5 	.word	0x00402cf5
  400040:	00402705 	.word	0x00402705
  400044:	00402705 	.word	0x00402705
  400048:	00402705 	.word	0x00402705
  40004c:	00402705 	.word	0x00402705
  400050:	00402705 	.word	0x00402705
  400054:	00402705 	.word	0x00402705
  400058:	00402705 	.word	0x00402705
  40005c:	00000000 	.word	0x00000000
  400060:	00402705 	.word	0x00402705
  400064:	00402705 	.word	0x00402705
  400068:	00000000 	.word	0x00000000
  40006c:	0040080d 	.word	0x0040080d
  400070:	0040081d 	.word	0x0040081d
  400074:	00000000 	.word	0x00000000
  400078:	00402705 	.word	0x00402705
  40007c:	00402705 	.word	0x00402705
	...
  400088:	00402705 	.word	0x00402705
  40008c:	00402705 	.word	0x00402705
  400090:	00402705 	.word	0x00402705
  400094:	00402705 	.word	0x00402705
  400098:	00402705 	.word	0x00402705
  40009c:	00402705 	.word	0x00402705
  4000a0:	00402705 	.word	0x00402705
  4000a4:	00402705 	.word	0x00402705
	...
  4000b4:	00402705 	.word	0x00402705
  4000b8:	00402705 	.word	0x00402705
  4000bc:	00402705 	.word	0x00402705
  4000c0:	00402705 	.word	0x00402705
  4000c4:	00402705 	.word	0x00402705
  4000c8:	00400ee9 	.word	0x00400ee9

004000cc <__do_global_dtors_aux>:
  4000cc:	b510      	push	{r4, lr}
  4000ce:	4c05      	ldr	r4, [pc, #20]	; (4000e4 <__do_global_dtors_aux+0x18>)
  4000d0:	7823      	ldrb	r3, [r4, #0]
  4000d2:	b933      	cbnz	r3, 4000e2 <__do_global_dtors_aux+0x16>
  4000d4:	4b04      	ldr	r3, [pc, #16]	; (4000e8 <__do_global_dtors_aux+0x1c>)
  4000d6:	b113      	cbz	r3, 4000de <__do_global_dtors_aux+0x12>
  4000d8:	4804      	ldr	r0, [pc, #16]	; (4000ec <__do_global_dtors_aux+0x20>)
  4000da:	f3af 8000 	nop.w
  4000de:	2301      	movs	r3, #1
  4000e0:	7023      	strb	r3, [r4, #0]
  4000e2:	bd10      	pop	{r4, pc}
  4000e4:	20000214 	.word	0x20000214
  4000e8:	00000000 	.word	0x00000000
  4000ec:	0040326c 	.word	0x0040326c

004000f0 <frame_dummy>:
  4000f0:	4b08      	ldr	r3, [pc, #32]	; (400114 <frame_dummy+0x24>)
  4000f2:	b510      	push	{r4, lr}
  4000f4:	b11b      	cbz	r3, 4000fe <frame_dummy+0xe>
  4000f6:	4908      	ldr	r1, [pc, #32]	; (400118 <frame_dummy+0x28>)
  4000f8:	4808      	ldr	r0, [pc, #32]	; (40011c <frame_dummy+0x2c>)
  4000fa:	f3af 8000 	nop.w
  4000fe:	4808      	ldr	r0, [pc, #32]	; (400120 <frame_dummy+0x30>)
  400100:	6803      	ldr	r3, [r0, #0]
  400102:	b903      	cbnz	r3, 400106 <frame_dummy+0x16>
  400104:	bd10      	pop	{r4, pc}
  400106:	4b07      	ldr	r3, [pc, #28]	; (400124 <frame_dummy+0x34>)
  400108:	2b00      	cmp	r3, #0
  40010a:	d0fb      	beq.n	400104 <frame_dummy+0x14>
  40010c:	e8bd 4010 	ldmia.w	sp!, {r4, lr}
  400110:	4718      	bx	r3
  400112:	bf00      	nop
  400114:	00000000 	.word	0x00000000
  400118:	20000218 	.word	0x20000218
  40011c:	0040326c 	.word	0x0040326c
  400120:	0040326c 	.word	0x0040326c
  400124:	00000000 	.word	0x00000000

00400128 <udi_vendor_setup>:
  400128:	2000      	movs	r0, #0
  40012a:	4770      	bx	lr

0040012c <udi_vendor_getsetting>:
  40012c:	4b01      	ldr	r3, [pc, #4]	; (400134 <udi_vendor_getsetting+0x8>)
  40012e:	7818      	ldrb	r0, [r3, #0]
  400130:	4770      	bx	lr
  400132:	bf00      	nop
  400134:	20000230 	.word	0x20000230

00400138 <udi_vendor_disable>:
  400138:	4b03      	ldr	r3, [pc, #12]	; (400148 <udi_vendor_disable+0x10>)
  40013a:	781b      	ldrb	r3, [r3, #0]
  40013c:	2b01      	cmp	r3, #1
  40013e:	d101      	bne.n	400144 <udi_vendor_disable+0xc>
  400140:	4b02      	ldr	r3, [pc, #8]	; (40014c <udi_vendor_disable+0x14>)
  400142:	4718      	bx	r3
  400144:	4770      	bx	lr
  400146:	bf00      	nop
  400148:	20000230 	.word	0x20000230
  40014c:	00402b1d 	.word	0x00402b1d

00400150 <udi_vendor_enable>:
  400150:	b508      	push	{r3, lr}
  400152:	4b07      	ldr	r3, [pc, #28]	; (400170 <udi_vendor_enable+0x20>)
  400154:	4798      	blx	r3
  400156:	78c3      	ldrb	r3, [r0, #3]
  400158:	4a06      	ldr	r2, [pc, #24]	; (400174 <udi_vendor_enable+0x24>)
  40015a:	2b01      	cmp	r3, #1
  40015c:	7013      	strb	r3, [r2, #0]
  40015e:	d105      	bne.n	40016c <udi_vendor_enable+0x1c>
  400160:	4b05      	ldr	r3, [pc, #20]	; (400178 <udi_vendor_enable+0x28>)
  400162:	4798      	blx	r3
  400164:	3000      	adds	r0, #0
  400166:	bf18      	it	ne
  400168:	2001      	movne	r0, #1
  40016a:	bd08      	pop	{r3, pc}
  40016c:	2001      	movs	r0, #1
  40016e:	bd08      	pop	{r3, pc}
  400170:	00400319 	.word	0x00400319
  400174:	20000230 	.word	0x20000230
  400178:	00402ae1 	.word	0x00402ae1

0040017c <udi_vendor_interrupt_in_run>:
  40017c:	b513      	push	{r0, r1, r4, lr}
  40017e:	460b      	mov	r3, r1
  400180:	9200      	str	r2, [sp, #0]
  400182:	2100      	movs	r1, #0
  400184:	4602      	mov	r2, r0
  400186:	4c02      	ldr	r4, [pc, #8]	; (400190 <udi_vendor_interrupt_in_run+0x14>)
  400188:	2083      	movs	r0, #131	; 0x83
  40018a:	47a0      	blx	r4
  40018c:	b002      	add	sp, #8
  40018e:	bd10      	pop	{r4, pc}
  400190:	00401bf9 	.word	0x00401bf9

00400194 <udi_vendor_interrupt_out_run>:
  400194:	b513      	push	{r0, r1, r4, lr}
  400196:	460b      	mov	r3, r1
  400198:	9200      	str	r2, [sp, #0]
  40019a:	2100      	movs	r1, #0
  40019c:	4602      	mov	r2, r0
  40019e:	4c02      	ldr	r4, [pc, #8]	; (4001a8 <udi_vendor_interrupt_out_run+0x14>)
  4001a0:	2006      	movs	r0, #6
  4001a2:	47a0      	blx	r4
  4001a4:	b002      	add	sp, #8
  4001a6:	bd10      	pop	{r4, pc}
  4001a8:	00401bf9 	.word	0x00401bf9

004001ac <udi_vendor_bulk_out_run>:
  4001ac:	b513      	push	{r0, r1, r4, lr}
  4001ae:	460b      	mov	r3, r1
  4001b0:	9200      	str	r2, [sp, #0]
  4001b2:	2100      	movs	r1, #0
  4001b4:	4602      	mov	r2, r0
  4001b6:	4c02      	ldr	r4, [pc, #8]	; (4001c0 <udi_vendor_bulk_out_run+0x14>)
  4001b8:	2002      	movs	r0, #2
  4001ba:	47a0      	blx	r4
  4001bc:	b002      	add	sp, #8
  4001be:	bd10      	pop	{r4, pc}
  4001c0:	00401bf9 	.word	0x00401bf9

004001c4 <udc_valid_address>:
  4001c4:	4b02      	ldr	r3, [pc, #8]	; (4001d0 <udc_valid_address+0xc>)
  4001c6:	7898      	ldrb	r0, [r3, #2]
  4001c8:	4b02      	ldr	r3, [pc, #8]	; (4001d4 <udc_valid_address+0x10>)
  4001ca:	f000 007f 	and.w	r0, r0, #127	; 0x7f
  4001ce:	4718      	bx	r3
  4001d0:	2000036c 	.word	0x2000036c
  4001d4:	004018ad 	.word	0x004018ad

004001d8 <udc_update_iface_desc>:
  4001d8:	b570      	push	{r4, r5, r6, lr}
  4001da:	4b13      	ldr	r3, [pc, #76]	; (400228 <udc_update_iface_desc+0x50>)
  4001dc:	781b      	ldrb	r3, [r3, #0]
  4001de:	b90b      	cbnz	r3, 4001e4 <udc_update_iface_desc+0xc>
  4001e0:	2000      	movs	r0, #0
  4001e2:	bd70      	pop	{r4, r5, r6, pc}
  4001e4:	4b11      	ldr	r3, [pc, #68]	; (40022c <udc_update_iface_desc+0x54>)
  4001e6:	681b      	ldr	r3, [r3, #0]
  4001e8:	681b      	ldr	r3, [r3, #0]
  4001ea:	791a      	ldrb	r2, [r3, #4]
  4001ec:	4282      	cmp	r2, r0
  4001ee:	d9f7      	bls.n	4001e0 <udc_update_iface_desc+0x8>
  4001f0:	4a0f      	ldr	r2, [pc, #60]	; (400230 <udc_update_iface_desc+0x58>)
  4001f2:	6013      	str	r3, [r2, #0]
  4001f4:	885d      	ldrh	r5, [r3, #2]
  4001f6:	2400      	movs	r4, #0
  4001f8:	441d      	add	r5, r3
  4001fa:	429d      	cmp	r5, r3
  4001fc:	d910      	bls.n	400220 <udc_update_iface_desc+0x48>
  4001fe:	785e      	ldrb	r6, [r3, #1]
  400200:	2e04      	cmp	r6, #4
  400202:	d109      	bne.n	400218 <udc_update_iface_desc+0x40>
  400204:	789e      	ldrb	r6, [r3, #2]
  400206:	4286      	cmp	r6, r0
  400208:	d106      	bne.n	400218 <udc_update_iface_desc+0x40>
  40020a:	78de      	ldrb	r6, [r3, #3]
  40020c:	428e      	cmp	r6, r1
  40020e:	d103      	bne.n	400218 <udc_update_iface_desc+0x40>
  400210:	b104      	cbz	r4, 400214 <udc_update_iface_desc+0x3c>
  400212:	6013      	str	r3, [r2, #0]
  400214:	2001      	movs	r0, #1
  400216:	bd70      	pop	{r4, r5, r6, pc}
  400218:	781c      	ldrb	r4, [r3, #0]
  40021a:	4423      	add	r3, r4
  40021c:	2401      	movs	r4, #1
  40021e:	e7ec      	b.n	4001fa <udc_update_iface_desc+0x22>
  400220:	2c00      	cmp	r4, #0
  400222:	d0dd      	beq.n	4001e0 <udc_update_iface_desc+0x8>
  400224:	6013      	str	r3, [r2, #0]
  400226:	e7db      	b.n	4001e0 <udc_update_iface_desc+0x8>
  400228:	20000240 	.word	0x20000240
  40022c:	20000234 	.word	0x20000234
  400230:	20000244 	.word	0x20000244

00400234 <udc_next_desc_in_iface.constprop.3>:
  400234:	4b08      	ldr	r3, [pc, #32]	; (400258 <udc_next_desc_in_iface.constprop.3+0x24>)
  400236:	681b      	ldr	r3, [r3, #0]
  400238:	681a      	ldr	r2, [r3, #0]
  40023a:	8853      	ldrh	r3, [r2, #2]
  40023c:	441a      	add	r2, r3
  40023e:	7803      	ldrb	r3, [r0, #0]
  400240:	4418      	add	r0, r3
  400242:	4290      	cmp	r0, r2
  400244:	d205      	bcs.n	400252 <udc_next_desc_in_iface.constprop.3+0x1e>
  400246:	7843      	ldrb	r3, [r0, #1]
  400248:	2b04      	cmp	r3, #4
  40024a:	d002      	beq.n	400252 <udc_next_desc_in_iface.constprop.3+0x1e>
  40024c:	2b05      	cmp	r3, #5
  40024e:	d1f6      	bne.n	40023e <udc_next_desc_in_iface.constprop.3+0xa>
  400250:	e000      	b.n	400254 <udc_next_desc_in_iface.constprop.3+0x20>
  400252:	2000      	movs	r0, #0
  400254:	4770      	bx	lr
  400256:	bf00      	nop
  400258:	20000234 	.word	0x20000234

0040025c <udc_iface_enable>:
  40025c:	e92d 41f0 	stmdb	sp!, {r4, r5, r6, r7, r8, lr}
  400260:	4b0f      	ldr	r3, [pc, #60]	; (4002a0 <udc_iface_enable+0x44>)
  400262:	4605      	mov	r5, r0
  400264:	4798      	blx	r3
  400266:	b1b8      	cbz	r0, 400298 <udc_iface_enable+0x3c>
  400268:	4b0e      	ldr	r3, [pc, #56]	; (4002a4 <udc_iface_enable+0x48>)
  40026a:	4f0f      	ldr	r7, [pc, #60]	; (4002a8 <udc_iface_enable+0x4c>)
  40026c:	681c      	ldr	r4, [r3, #0]
  40026e:	4e0f      	ldr	r6, [pc, #60]	; (4002ac <udc_iface_enable+0x50>)
  400270:	4620      	mov	r0, r4
  400272:	47b8      	blx	r7
  400274:	4604      	mov	r4, r0
  400276:	b130      	cbz	r0, 400286 <udc_iface_enable+0x2a>
  400278:	8882      	ldrh	r2, [r0, #4]
  40027a:	78c1      	ldrb	r1, [r0, #3]
  40027c:	7880      	ldrb	r0, [r0, #2]
  40027e:	47b0      	blx	r6
  400280:	2800      	cmp	r0, #0
  400282:	d1f5      	bne.n	400270 <udc_iface_enable+0x14>
  400284:	e008      	b.n	400298 <udc_iface_enable+0x3c>
  400286:	4b0a      	ldr	r3, [pc, #40]	; (4002b0 <udc_iface_enable+0x54>)
  400288:	681b      	ldr	r3, [r3, #0]
  40028a:	685b      	ldr	r3, [r3, #4]
  40028c:	f853 3025 	ldr.w	r3, [r3, r5, lsl #2]
  400290:	e8bd 41f0 	ldmia.w	sp!, {r4, r5, r6, r7, r8, lr}
  400294:	681b      	ldr	r3, [r3, #0]
  400296:	4718      	bx	r3
  400298:	2000      	movs	r0, #0
  40029a:	e8bd 81f0 	ldmia.w	sp!, {r4, r5, r6, r7, r8, pc}
  40029e:	bf00      	nop
  4002a0:	004001d9 	.word	0x004001d9
  4002a4:	20000244 	.word	0x20000244
  4002a8:	00400235 	.word	0x00400235
  4002ac:	00401909 	.word	0x00401909
  4002b0:	20000234 	.word	0x20000234

004002b4 <udc_iface_disable>:
  4002b4:	e92d 41f0 	stmdb	sp!, {r4, r5, r6, r7, r8, lr}
  4002b8:	2100      	movs	r1, #0
  4002ba:	4c12      	ldr	r4, [pc, #72]	; (400304 <udc_iface_disable+0x50>)
  4002bc:	4605      	mov	r5, r0
  4002be:	47a0      	blx	r4
  4002c0:	b908      	cbnz	r0, 4002c6 <udc_iface_disable+0x12>
  4002c2:	2500      	movs	r5, #0
  4002c4:	e01a      	b.n	4002fc <udc_iface_disable+0x48>
  4002c6:	4b10      	ldr	r3, [pc, #64]	; (400308 <udc_iface_disable+0x54>)
  4002c8:	681b      	ldr	r3, [r3, #0]
  4002ca:	685b      	ldr	r3, [r3, #4]
  4002cc:	f853 6025 	ldr.w	r6, [r3, r5, lsl #2]
  4002d0:	68f3      	ldr	r3, [r6, #12]
  4002d2:	4798      	blx	r3
  4002d4:	4601      	mov	r1, r0
  4002d6:	4628      	mov	r0, r5
  4002d8:	47a0      	blx	r4
  4002da:	4605      	mov	r5, r0
  4002dc:	2800      	cmp	r0, #0
  4002de:	d0f0      	beq.n	4002c2 <udc_iface_disable+0xe>
  4002e0:	4b0a      	ldr	r3, [pc, #40]	; (40030c <udc_iface_disable+0x58>)
  4002e2:	f8df 8030 	ldr.w	r8, [pc, #48]	; 400314 <udc_iface_disable+0x60>
  4002e6:	681c      	ldr	r4, [r3, #0]
  4002e8:	4f09      	ldr	r7, [pc, #36]	; (400310 <udc_iface_disable+0x5c>)
  4002ea:	4620      	mov	r0, r4
  4002ec:	47c0      	blx	r8
  4002ee:	4604      	mov	r4, r0
  4002f0:	b110      	cbz	r0, 4002f8 <udc_iface_disable+0x44>
  4002f2:	7880      	ldrb	r0, [r0, #2]
  4002f4:	47b8      	blx	r7
  4002f6:	e7f8      	b.n	4002ea <udc_iface_disable+0x36>
  4002f8:	6873      	ldr	r3, [r6, #4]
  4002fa:	4798      	blx	r3
  4002fc:	4628      	mov	r0, r5
  4002fe:	e8bd 81f0 	ldmia.w	sp!, {r4, r5, r6, r7, r8, pc}
  400302:	bf00      	nop
  400304:	004001d9 	.word	0x004001d9
  400308:	20000234 	.word	0x20000234
  40030c:	20000244 	.word	0x20000244
  400310:	004019f1 	.word	0x004019f1
  400314:	00400235 	.word	0x00400235

00400318 <udc_get_interface_desc>:
  400318:	4b01      	ldr	r3, [pc, #4]	; (400320 <udc_get_interface_desc+0x8>)
  40031a:	6818      	ldr	r0, [r3, #0]
  40031c:	4770      	bx	lr
  40031e:	bf00      	nop
  400320:	20000244 	.word	0x20000244

00400324 <udc_start>:
  400324:	4b00      	ldr	r3, [pc, #0]	; (400328 <udc_start+0x4>)
  400326:	4718      	bx	r3
  400328:	00401829 	.word	0x00401829

0040032c <udc_reset>:
  40032c:	b5f8      	push	{r3, r4, r5, r6, r7, lr}
  40032e:	4b0b      	ldr	r3, [pc, #44]	; (40035c <udc_reset+0x30>)
  400330:	781a      	ldrb	r2, [r3, #0]
  400332:	461c      	mov	r4, r3
  400334:	b11a      	cbz	r2, 40033e <udc_reset+0x12>
  400336:	2500      	movs	r5, #0
  400338:	4e09      	ldr	r6, [pc, #36]	; (400360 <udc_reset+0x34>)
  40033a:	4f0a      	ldr	r7, [pc, #40]	; (400364 <udc_reset+0x38>)
  40033c:	e004      	b.n	400348 <udc_reset+0x1c>
  40033e:	4a0a      	ldr	r2, [pc, #40]	; (400368 <udc_reset+0x3c>)
  400340:	2300      	movs	r3, #0
  400342:	7023      	strb	r3, [r4, #0]
  400344:	8013      	strh	r3, [r2, #0]
  400346:	bdf8      	pop	{r3, r4, r5, r6, r7, pc}
  400348:	6833      	ldr	r3, [r6, #0]
  40034a:	681b      	ldr	r3, [r3, #0]
  40034c:	791b      	ldrb	r3, [r3, #4]
  40034e:	b2e8      	uxtb	r0, r5
  400350:	4283      	cmp	r3, r0
  400352:	f105 0501 	add.w	r5, r5, #1
  400356:	d9f2      	bls.n	40033e <udc_reset+0x12>
  400358:	47b8      	blx	r7
  40035a:	e7f5      	b.n	400348 <udc_reset+0x1c>
  40035c:	20000240 	.word	0x20000240
  400360:	20000234 	.word	0x20000234
  400364:	004002b5 	.word	0x004002b5
  400368:	2000023c 	.word	0x2000023c

0040036c <udc_sof_notify>:
  40036c:	b538      	push	{r3, r4, r5, lr}
  40036e:	4b0a      	ldr	r3, [pc, #40]	; (400398 <udc_sof_notify+0x2c>)
  400370:	781b      	ldrb	r3, [r3, #0]
  400372:	b17b      	cbz	r3, 400394 <udc_sof_notify+0x28>
  400374:	4d09      	ldr	r5, [pc, #36]	; (40039c <udc_sof_notify+0x30>)
  400376:	2400      	movs	r4, #0
  400378:	682a      	ldr	r2, [r5, #0]
  40037a:	6813      	ldr	r3, [r2, #0]
  40037c:	7919      	ldrb	r1, [r3, #4]
  40037e:	b2e3      	uxtb	r3, r4
  400380:	4299      	cmp	r1, r3
  400382:	d907      	bls.n	400394 <udc_sof_notify+0x28>
  400384:	6852      	ldr	r2, [r2, #4]
  400386:	f852 3023 	ldr.w	r3, [r2, r3, lsl #2]
  40038a:	691b      	ldr	r3, [r3, #16]
  40038c:	b103      	cbz	r3, 400390 <udc_sof_notify+0x24>
  40038e:	4798      	blx	r3
  400390:	3401      	adds	r4, #1
  400392:	e7f1      	b.n	400378 <udc_sof_notify+0xc>
  400394:	bd38      	pop	{r3, r4, r5, pc}
  400396:	bf00      	nop
  400398:	20000240 	.word	0x20000240
  40039c:	20000234 	.word	0x20000234

004003a0 <udc_process_setup>:
  4003a0:	e92d 41f0 	stmdb	sp!, {r4, r5, r6, r7, r8, lr}
  4003a4:	4a99      	ldr	r2, [pc, #612]	; (40060c <udc_process_setup+0x26c>)
  4003a6:	2300      	movs	r3, #0
  4003a8:	8193      	strh	r3, [r2, #12]
  4003aa:	6113      	str	r3, [r2, #16]
  4003ac:	6153      	str	r3, [r2, #20]
  4003ae:	7813      	ldrb	r3, [r2, #0]
  4003b0:	b25d      	sxtb	r5, r3
  4003b2:	2d00      	cmp	r5, #0
  4003b4:	4614      	mov	r4, r2
  4003b6:	da03      	bge.n	4003c0 <udc_process_setup+0x20>
  4003b8:	88d0      	ldrh	r0, [r2, #6]
  4003ba:	2800      	cmp	r0, #0
  4003bc:	f000 81ac 	beq.w	400718 <udc_process_setup+0x378>
  4003c0:	f013 0160 	ands.w	r1, r3, #96	; 0x60
  4003c4:	f040 815f 	bne.w	400686 <udc_process_setup+0x2e6>
  4003c8:	2d00      	cmp	r5, #0
  4003ca:	f280 80a7 	bge.w	40051c <udc_process_setup+0x17c>
  4003ce:	88e5      	ldrh	r5, [r4, #6]
  4003d0:	4e8e      	ldr	r6, [pc, #568]	; (40060c <udc_process_setup+0x26c>)
  4003d2:	2d00      	cmp	r5, #0
  4003d4:	f000 8157 	beq.w	400686 <udc_process_setup+0x2e6>
  4003d8:	f013 031f 	ands.w	r3, r3, #31
  4003dc:	d167      	bne.n	4004ae <udc_process_setup+0x10e>
  4003de:	7873      	ldrb	r3, [r6, #1]
  4003e0:	2b06      	cmp	r3, #6
  4003e2:	d00a      	beq.n	4003fa <udc_process_setup+0x5a>
  4003e4:	2b08      	cmp	r3, #8
  4003e6:	d05a      	beq.n	40049e <udc_process_setup+0xfe>
  4003e8:	2b00      	cmp	r3, #0
  4003ea:	f040 814c 	bne.w	400686 <udc_process_setup+0x2e6>
  4003ee:	2d02      	cmp	r5, #2
  4003f0:	f040 8149 	bne.w	400686 <udc_process_setup+0x2e6>
  4003f4:	4629      	mov	r1, r5
  4003f6:	4886      	ldr	r0, [pc, #536]	; (400610 <udc_process_setup+0x270>)
  4003f8:	e056      	b.n	4004a8 <udc_process_setup+0x108>
  4003fa:	8873      	ldrh	r3, [r6, #2]
  4003fc:	0a1d      	lsrs	r5, r3, #8
  4003fe:	2d02      	cmp	r5, #2
  400400:	d00c      	beq.n	40041c <udc_process_setup+0x7c>
  400402:	d806      	bhi.n	400412 <udc_process_setup+0x72>
  400404:	2d01      	cmp	r5, #1
  400406:	f040 813e 	bne.w	400686 <udc_process_setup+0x2e6>
  40040a:	4b82      	ldr	r3, [pc, #520]	; (400614 <udc_process_setup+0x274>)
  40040c:	6818      	ldr	r0, [r3, #0]
  40040e:	7801      	ldrb	r1, [r0, #0]
  400410:	e03b      	b.n	40048a <udc_process_setup+0xea>
  400412:	2d03      	cmp	r5, #3
  400414:	d019      	beq.n	40044a <udc_process_setup+0xaa>
  400416:	2d0f      	cmp	r5, #15
  400418:	d010      	beq.n	40043c <udc_process_setup+0x9c>
  40041a:	e134      	b.n	400686 <udc_process_setup+0x2e6>
  40041c:	4a7d      	ldr	r2, [pc, #500]	; (400614 <udc_process_setup+0x274>)
  40041e:	6811      	ldr	r1, [r2, #0]
  400420:	7c49      	ldrb	r1, [r1, #17]
  400422:	b2db      	uxtb	r3, r3
  400424:	4299      	cmp	r1, r3
  400426:	f240 812e 	bls.w	400686 <udc_process_setup+0x2e6>
  40042a:	6852      	ldr	r2, [r2, #4]
  40042c:	f852 0033 	ldr.w	r0, [r2, r3, lsl #3]
  400430:	4b79      	ldr	r3, [pc, #484]	; (400618 <udc_process_setup+0x278>)
  400432:	8841      	ldrh	r1, [r0, #2]
  400434:	4798      	blx	r3
  400436:	68b3      	ldr	r3, [r6, #8]
  400438:	705d      	strb	r5, [r3, #1]
  40043a:	e028      	b.n	40048e <udc_process_setup+0xee>
  40043c:	4b75      	ldr	r3, [pc, #468]	; (400614 <udc_process_setup+0x274>)
  40043e:	6898      	ldr	r0, [r3, #8]
  400440:	2800      	cmp	r0, #0
  400442:	f000 8120 	beq.w	400686 <udc_process_setup+0x2e6>
  400446:	8841      	ldrh	r1, [r0, #2]
  400448:	e01f      	b.n	40048a <udc_process_setup+0xea>
  40044a:	b2db      	uxtb	r3, r3
  40044c:	2b01      	cmp	r3, #1
  40044e:	d00c      	beq.n	40046a <udc_process_setup+0xca>
  400450:	d304      	bcc.n	40045c <udc_process_setup+0xbc>
  400452:	2b02      	cmp	r3, #2
  400454:	d105      	bne.n	400462 <udc_process_setup+0xc2>
  400456:	2110      	movs	r1, #16
  400458:	4a70      	ldr	r2, [pc, #448]	; (40061c <udc_process_setup+0x27c>)
  40045a:	e008      	b.n	40046e <udc_process_setup+0xce>
  40045c:	2104      	movs	r1, #4
  40045e:	4870      	ldr	r0, [pc, #448]	; (400620 <udc_process_setup+0x280>)
  400460:	e013      	b.n	40048a <udc_process_setup+0xea>
  400462:	4b70      	ldr	r3, [pc, #448]	; (400624 <udc_process_setup+0x284>)
  400464:	4798      	blx	r3
  400466:	b990      	cbnz	r0, 40048e <udc_process_setup+0xee>
  400468:	e10d      	b.n	400686 <udc_process_setup+0x2e6>
  40046a:	4a6f      	ldr	r2, [pc, #444]	; (400628 <udc_process_setup+0x288>)
  40046c:	2115      	movs	r1, #21
  40046e:	4d6f      	ldr	r5, [pc, #444]	; (40062c <udc_process_setup+0x28c>)
  400470:	4613      	mov	r3, r2
  400472:	f813 0b01 	ldrb.w	r0, [r3], #1
  400476:	f825 0b02 	strh.w	r0, [r5], #2
  40047a:	1a98      	subs	r0, r3, r2
  40047c:	b2c0      	uxtb	r0, r0
  40047e:	4281      	cmp	r1, r0
  400480:	d8f7      	bhi.n	400472 <udc_process_setup+0xd2>
  400482:	0049      	lsls	r1, r1, #1
  400484:	486a      	ldr	r0, [pc, #424]	; (400630 <udc_process_setup+0x290>)
  400486:	3102      	adds	r1, #2
  400488:	7001      	strb	r1, [r0, #0]
  40048a:	4b63      	ldr	r3, [pc, #396]	; (400618 <udc_process_setup+0x278>)
  40048c:	4798      	blx	r3
  40048e:	88e3      	ldrh	r3, [r4, #6]
  400490:	89a2      	ldrh	r2, [r4, #12]
  400492:	429a      	cmp	r2, r3
  400494:	f240 8139 	bls.w	40070a <udc_process_setup+0x36a>
  400498:	4a5c      	ldr	r2, [pc, #368]	; (40060c <udc_process_setup+0x26c>)
  40049a:	8193      	strh	r3, [r2, #12]
  40049c:	e135      	b.n	40070a <udc_process_setup+0x36a>
  40049e:	2d01      	cmp	r5, #1
  4004a0:	f040 80f1 	bne.w	400686 <udc_process_setup+0x2e6>
  4004a4:	4863      	ldr	r0, [pc, #396]	; (400634 <udc_process_setup+0x294>)
  4004a6:	4629      	mov	r1, r5
  4004a8:	4b5b      	ldr	r3, [pc, #364]	; (400618 <udc_process_setup+0x278>)
  4004aa:	4798      	blx	r3
  4004ac:	e12d      	b.n	40070a <udc_process_setup+0x36a>
  4004ae:	2b01      	cmp	r3, #1
  4004b0:	d122      	bne.n	4004f8 <udc_process_setup+0x158>
  4004b2:	7873      	ldrb	r3, [r6, #1]
  4004b4:	2b0a      	cmp	r3, #10
  4004b6:	f040 80e6 	bne.w	400686 <udc_process_setup+0x2e6>
  4004ba:	2d01      	cmp	r5, #1
  4004bc:	f040 80e3 	bne.w	400686 <udc_process_setup+0x2e6>
  4004c0:	4b5c      	ldr	r3, [pc, #368]	; (400634 <udc_process_setup+0x294>)
  4004c2:	781b      	ldrb	r3, [r3, #0]
  4004c4:	2b00      	cmp	r3, #0
  4004c6:	f000 80de 	beq.w	400686 <udc_process_setup+0x2e6>
  4004ca:	4b5b      	ldr	r3, [pc, #364]	; (400638 <udc_process_setup+0x298>)
  4004cc:	7935      	ldrb	r5, [r6, #4]
  4004ce:	681e      	ldr	r6, [r3, #0]
  4004d0:	6833      	ldr	r3, [r6, #0]
  4004d2:	791b      	ldrb	r3, [r3, #4]
  4004d4:	42ab      	cmp	r3, r5
  4004d6:	f240 80d6 	bls.w	400686 <udc_process_setup+0x2e6>
  4004da:	4628      	mov	r0, r5
  4004dc:	4b57      	ldr	r3, [pc, #348]	; (40063c <udc_process_setup+0x29c>)
  4004de:	4798      	blx	r3
  4004e0:	2800      	cmp	r0, #0
  4004e2:	f000 80d0 	beq.w	400686 <udc_process_setup+0x2e6>
  4004e6:	6873      	ldr	r3, [r6, #4]
  4004e8:	f853 3025 	ldr.w	r3, [r3, r5, lsl #2]
  4004ec:	68db      	ldr	r3, [r3, #12]
  4004ee:	4798      	blx	r3
  4004f0:	4b53      	ldr	r3, [pc, #332]	; (400640 <udc_process_setup+0x2a0>)
  4004f2:	2101      	movs	r1, #1
  4004f4:	7018      	strb	r0, [r3, #0]
  4004f6:	e00f      	b.n	400518 <udc_process_setup+0x178>
  4004f8:	2b02      	cmp	r3, #2
  4004fa:	f040 80c4 	bne.w	400686 <udc_process_setup+0x2e6>
  4004fe:	7873      	ldrb	r3, [r6, #1]
  400500:	2b00      	cmp	r3, #0
  400502:	f040 80c0 	bne.w	400686 <udc_process_setup+0x2e6>
  400506:	2d02      	cmp	r5, #2
  400508:	f040 80bd 	bne.w	400686 <udc_process_setup+0x2e6>
  40050c:	4b4d      	ldr	r3, [pc, #308]	; (400644 <udc_process_setup+0x2a4>)
  40050e:	7930      	ldrb	r0, [r6, #4]
  400510:	4798      	blx	r3
  400512:	4b4d      	ldr	r3, [pc, #308]	; (400648 <udc_process_setup+0x2a8>)
  400514:	4629      	mov	r1, r5
  400516:	8018      	strh	r0, [r3, #0]
  400518:	4618      	mov	r0, r3
  40051a:	e7c5      	b.n	4004a8 <udc_process_setup+0x108>
  40051c:	f013 031f 	ands.w	r3, r3, #31
  400520:	d151      	bne.n	4005c6 <udc_process_setup+0x226>
  400522:	7863      	ldrb	r3, [r4, #1]
  400524:	3b01      	subs	r3, #1
  400526:	2b08      	cmp	r3, #8
  400528:	f200 80ad 	bhi.w	400686 <udc_process_setup+0x2e6>
  40052c:	e8df f003 	tbb	[pc, r3]
  400530:	ababab0d 	.word	0xababab0d
  400534:	ababab05 	.word	0xababab05
  400538:	1c          	.byte	0x1c
  400539:	00          	.byte	0x00
  40053a:	88e3      	ldrh	r3, [r4, #6]
  40053c:	2b00      	cmp	r3, #0
  40053e:	f040 80a2 	bne.w	400686 <udc_process_setup+0x2e6>
  400542:	4b32      	ldr	r3, [pc, #200]	; (40060c <udc_process_setup+0x26c>)
  400544:	4a41      	ldr	r2, [pc, #260]	; (40064c <udc_process_setup+0x2ac>)
  400546:	611a      	str	r2, [r3, #16]
  400548:	e0df      	b.n	40070a <udc_process_setup+0x36a>
  40054a:	88e3      	ldrh	r3, [r4, #6]
  40054c:	2b00      	cmp	r3, #0
  40054e:	f040 809a 	bne.w	400686 <udc_process_setup+0x2e6>
  400552:	4b2e      	ldr	r3, [pc, #184]	; (40060c <udc_process_setup+0x26c>)
  400554:	885b      	ldrh	r3, [r3, #2]
  400556:	2b01      	cmp	r3, #1
  400558:	f040 8095 	bne.w	400686 <udc_process_setup+0x2e6>
  40055c:	4a2c      	ldr	r2, [pc, #176]	; (400610 <udc_process_setup+0x270>)
  40055e:	8813      	ldrh	r3, [r2, #0]
  400560:	f023 0302 	bic.w	r3, r3, #2
  400564:	8013      	strh	r3, [r2, #0]
  400566:	e0d0      	b.n	40070a <udc_process_setup+0x36a>
  400568:	88e5      	ldrh	r5, [r4, #6]
  40056a:	4f28      	ldr	r7, [pc, #160]	; (40060c <udc_process_setup+0x26c>)
  40056c:	2d00      	cmp	r5, #0
  40056e:	f040 808a 	bne.w	400686 <udc_process_setup+0x2e6>
  400572:	4b37      	ldr	r3, [pc, #220]	; (400650 <udc_process_setup+0x2b0>)
  400574:	4798      	blx	r3
  400576:	2800      	cmp	r0, #0
  400578:	f000 8085 	beq.w	400686 <udc_process_setup+0x2e6>
  40057c:	4e25      	ldr	r6, [pc, #148]	; (400614 <udc_process_setup+0x274>)
  40057e:	78ba      	ldrb	r2, [r7, #2]
  400580:	6833      	ldr	r3, [r6, #0]
  400582:	7c5b      	ldrb	r3, [r3, #17]
  400584:	429a      	cmp	r2, r3
  400586:	dc7e      	bgt.n	400686 <udc_process_setup+0x2e6>
  400588:	4b32      	ldr	r3, [pc, #200]	; (400654 <udc_process_setup+0x2b4>)
  40058a:	4798      	blx	r3
  40058c:	78bb      	ldrb	r3, [r7, #2]
  40058e:	4a29      	ldr	r2, [pc, #164]	; (400634 <udc_process_setup+0x294>)
  400590:	7013      	strb	r3, [r2, #0]
  400592:	2b00      	cmp	r3, #0
  400594:	f000 80b9 	beq.w	40070a <udc_process_setup+0x36a>
  400598:	6871      	ldr	r1, [r6, #4]
  40059a:	4a27      	ldr	r2, [pc, #156]	; (400638 <udc_process_setup+0x298>)
  40059c:	4f2e      	ldr	r7, [pc, #184]	; (400658 <udc_process_setup+0x2b8>)
  40059e:	f103 5300 	add.w	r3, r3, #536870912	; 0x20000000
  4005a2:	3b01      	subs	r3, #1
  4005a4:	eb01 03c3 	add.w	r3, r1, r3, lsl #3
  4005a8:	6013      	str	r3, [r2, #0]
  4005aa:	4616      	mov	r6, r2
  4005ac:	6833      	ldr	r3, [r6, #0]
  4005ae:	681b      	ldr	r3, [r3, #0]
  4005b0:	791b      	ldrb	r3, [r3, #4]
  4005b2:	b2e8      	uxtb	r0, r5
  4005b4:	4283      	cmp	r3, r0
  4005b6:	f240 80a8 	bls.w	40070a <udc_process_setup+0x36a>
  4005ba:	2100      	movs	r1, #0
  4005bc:	47b8      	blx	r7
  4005be:	3501      	adds	r5, #1
  4005c0:	2800      	cmp	r0, #0
  4005c2:	d1f3      	bne.n	4005ac <udc_process_setup+0x20c>
  4005c4:	e05f      	b.n	400686 <udc_process_setup+0x2e6>
  4005c6:	2b01      	cmp	r3, #1
  4005c8:	d116      	bne.n	4005f8 <udc_process_setup+0x258>
  4005ca:	7862      	ldrb	r2, [r4, #1]
  4005cc:	4b0f      	ldr	r3, [pc, #60]	; (40060c <udc_process_setup+0x26c>)
  4005ce:	2a0b      	cmp	r2, #11
  4005d0:	d159      	bne.n	400686 <udc_process_setup+0x2e6>
  4005d2:	88da      	ldrh	r2, [r3, #6]
  4005d4:	2a00      	cmp	r2, #0
  4005d6:	d156      	bne.n	400686 <udc_process_setup+0x2e6>
  4005d8:	4a16      	ldr	r2, [pc, #88]	; (400634 <udc_process_setup+0x294>)
  4005da:	7812      	ldrb	r2, [r2, #0]
  4005dc:	2a00      	cmp	r2, #0
  4005de:	d052      	beq.n	400686 <udc_process_setup+0x2e6>
  4005e0:	791d      	ldrb	r5, [r3, #4]
  4005e2:	885e      	ldrh	r6, [r3, #2]
  4005e4:	4b1d      	ldr	r3, [pc, #116]	; (40065c <udc_process_setup+0x2bc>)
  4005e6:	4628      	mov	r0, r5
  4005e8:	4798      	blx	r3
  4005ea:	2800      	cmp	r0, #0
  4005ec:	d04b      	beq.n	400686 <udc_process_setup+0x2e6>
  4005ee:	b2f1      	uxtb	r1, r6
  4005f0:	4628      	mov	r0, r5
  4005f2:	4b19      	ldr	r3, [pc, #100]	; (400658 <udc_process_setup+0x2b8>)
  4005f4:	4798      	blx	r3
  4005f6:	e044      	b.n	400682 <udc_process_setup+0x2e2>
  4005f8:	2b02      	cmp	r3, #2
  4005fa:	d144      	bne.n	400686 <udc_process_setup+0x2e6>
  4005fc:	7863      	ldrb	r3, [r4, #1]
  4005fe:	4d03      	ldr	r5, [pc, #12]	; (40060c <udc_process_setup+0x26c>)
  400600:	2b01      	cmp	r3, #1
  400602:	d02d      	beq.n	400660 <udc_process_setup+0x2c0>
  400604:	2b03      	cmp	r3, #3
  400606:	d032      	beq.n	40066e <udc_process_setup+0x2ce>
  400608:	e03d      	b.n	400686 <udc_process_setup+0x2e6>
  40060a:	bf00      	nop
  40060c:	2000036c 	.word	0x2000036c
  400610:	2000023c 	.word	0x2000023c
  400614:	200000f0 	.word	0x200000f0
  400618:	004018fd 	.word	0x004018fd
  40061c:	20000090 	.word	0x20000090
  400620:	200000e4 	.word	0x200000e4
  400624:	00402fe1 	.word	0x00402fe1
  400628:	200000a1 	.word	0x200000a1
  40062c:	200000ba 	.word	0x200000ba
  400630:	200000b8 	.word	0x200000b8
  400634:	20000240 	.word	0x20000240
  400638:	20000234 	.word	0x20000234
  40063c:	004001d9 	.word	0x004001d9
  400640:	20000238 	.word	0x20000238
  400644:	00401a4d 	.word	0x00401a4d
  400648:	2000023a 	.word	0x2000023a
  40064c:	004001c5 	.word	0x004001c5
  400650:	004018e5 	.word	0x004018e5
  400654:	0040032d 	.word	0x0040032d
  400658:	0040025d 	.word	0x0040025d
  40065c:	004002b5 	.word	0x004002b5
  400660:	88eb      	ldrh	r3, [r5, #6]
  400662:	b983      	cbnz	r3, 400686 <udc_process_setup+0x2e6>
  400664:	886b      	ldrh	r3, [r5, #2]
  400666:	b973      	cbnz	r3, 400686 <udc_process_setup+0x2e6>
  400668:	7928      	ldrb	r0, [r5, #4]
  40066a:	4b2c      	ldr	r3, [pc, #176]	; (40071c <udc_process_setup+0x37c>)
  40066c:	e008      	b.n	400680 <udc_process_setup+0x2e0>
  40066e:	88eb      	ldrh	r3, [r5, #6]
  400670:	b94b      	cbnz	r3, 400686 <udc_process_setup+0x2e6>
  400672:	886b      	ldrh	r3, [r5, #2]
  400674:	b93b      	cbnz	r3, 400686 <udc_process_setup+0x2e6>
  400676:	7928      	ldrb	r0, [r5, #4]
  400678:	4b29      	ldr	r3, [pc, #164]	; (400720 <udc_process_setup+0x380>)
  40067a:	4798      	blx	r3
  40067c:	7928      	ldrb	r0, [r5, #4]
  40067e:	4b29      	ldr	r3, [pc, #164]	; (400724 <udc_process_setup+0x384>)
  400680:	4798      	blx	r3
  400682:	2800      	cmp	r0, #0
  400684:	d141      	bne.n	40070a <udc_process_setup+0x36a>
  400686:	7823      	ldrb	r3, [r4, #0]
  400688:	f003 031f 	and.w	r3, r3, #31
  40068c:	2b01      	cmp	r3, #1
  40068e:	d11c      	bne.n	4006ca <udc_process_setup+0x32a>
  400690:	4b25      	ldr	r3, [pc, #148]	; (400728 <udc_process_setup+0x388>)
  400692:	781b      	ldrb	r3, [r3, #0]
  400694:	2b00      	cmp	r3, #0
  400696:	d03b      	beq.n	400710 <udc_process_setup+0x370>
  400698:	4b24      	ldr	r3, [pc, #144]	; (40072c <udc_process_setup+0x38c>)
  40069a:	791d      	ldrb	r5, [r3, #4]
  40069c:	4b24      	ldr	r3, [pc, #144]	; (400730 <udc_process_setup+0x390>)
  40069e:	681e      	ldr	r6, [r3, #0]
  4006a0:	6833      	ldr	r3, [r6, #0]
  4006a2:	791b      	ldrb	r3, [r3, #4]
  4006a4:	42ab      	cmp	r3, r5
  4006a6:	d933      	bls.n	400710 <udc_process_setup+0x370>
  4006a8:	2100      	movs	r1, #0
  4006aa:	4628      	mov	r0, r5
  4006ac:	4f21      	ldr	r7, [pc, #132]	; (400734 <udc_process_setup+0x394>)
  4006ae:	47b8      	blx	r7
  4006b0:	b158      	cbz	r0, 4006ca <udc_process_setup+0x32a>
  4006b2:	6873      	ldr	r3, [r6, #4]
  4006b4:	f853 6025 	ldr.w	r6, [r3, r5, lsl #2]
  4006b8:	68f3      	ldr	r3, [r6, #12]
  4006ba:	4798      	blx	r3
  4006bc:	4601      	mov	r1, r0
  4006be:	4628      	mov	r0, r5
  4006c0:	47b8      	blx	r7
  4006c2:	b110      	cbz	r0, 4006ca <udc_process_setup+0x32a>
  4006c4:	68b3      	ldr	r3, [r6, #8]
  4006c6:	4798      	blx	r3
  4006c8:	b9f8      	cbnz	r0, 40070a <udc_process_setup+0x36a>
  4006ca:	7823      	ldrb	r3, [r4, #0]
  4006cc:	f003 031f 	and.w	r3, r3, #31
  4006d0:	2b02      	cmp	r3, #2
  4006d2:	d11d      	bne.n	400710 <udc_process_setup+0x370>
  4006d4:	4b14      	ldr	r3, [pc, #80]	; (400728 <udc_process_setup+0x388>)
  4006d6:	781b      	ldrb	r3, [r3, #0]
  4006d8:	b1d3      	cbz	r3, 400710 <udc_process_setup+0x370>
  4006da:	4f15      	ldr	r7, [pc, #84]	; (400730 <udc_process_setup+0x390>)
  4006dc:	f8df 8054 	ldr.w	r8, [pc, #84]	; 400734 <udc_process_setup+0x394>
  4006e0:	2500      	movs	r5, #0
  4006e2:	683b      	ldr	r3, [r7, #0]
  4006e4:	681a      	ldr	r2, [r3, #0]
  4006e6:	7912      	ldrb	r2, [r2, #4]
  4006e8:	b2ec      	uxtb	r4, r5
  4006ea:	42a2      	cmp	r2, r4
  4006ec:	d910      	bls.n	400710 <udc_process_setup+0x370>
  4006ee:	685b      	ldr	r3, [r3, #4]
  4006f0:	f853 6024 	ldr.w	r6, [r3, r4, lsl #2]
  4006f4:	68f3      	ldr	r3, [r6, #12]
  4006f6:	4798      	blx	r3
  4006f8:	4601      	mov	r1, r0
  4006fa:	4620      	mov	r0, r4
  4006fc:	47c0      	blx	r8
  4006fe:	b138      	cbz	r0, 400710 <udc_process_setup+0x370>
  400700:	68b3      	ldr	r3, [r6, #8]
  400702:	4798      	blx	r3
  400704:	3501      	adds	r5, #1
  400706:	2800      	cmp	r0, #0
  400708:	d0eb      	beq.n	4006e2 <udc_process_setup+0x342>
  40070a:	2001      	movs	r0, #1
  40070c:	e8bd 81f0 	ldmia.w	sp!, {r4, r5, r6, r7, r8, pc}
  400710:	4b09      	ldr	r3, [pc, #36]	; (400738 <udc_process_setup+0x398>)
  400712:	e8bd 41f0 	ldmia.w	sp!, {r4, r5, r6, r7, r8, lr}
  400716:	4718      	bx	r3
  400718:	e8bd 81f0 	ldmia.w	sp!, {r4, r5, r6, r7, r8, pc}
  40071c:	00401b35 	.word	0x00401b35
  400720:	00401d01 	.word	0x00401d01
  400724:	00401a8d 	.word	0x00401a8d
  400728:	20000240 	.word	0x20000240
  40072c:	2000036c 	.word	0x2000036c
  400730:	20000234 	.word	0x20000234
  400734:	004001d9 	.word	0x004001d9
  400738:	0040303d 	.word	0x0040303d

0040073c <efc_get_result>:
  40073c:	68c0      	ldr	r0, [r0, #12]
  40073e:	4770      	bx	lr

00400740 <efc_perform_command>:
  400740:	b538      	push	{r3, r4, r5, lr}
  400742:	f1a1 030e 	sub.w	r3, r1, #14
  400746:	2b01      	cmp	r3, #1
  400748:	d919      	bls.n	40077e <efc_perform_command+0x3e>
  40074a:	f3ef 8410 	mrs	r4, PRIMASK
  40074e:	b672      	cpsid	i
  400750:	f3bf 8f5f 	dmb	sy
  400754:	0212      	lsls	r2, r2, #8
  400756:	f022 427f 	bic.w	r2, r2, #4278190080	; 0xff000000
  40075a:	4d0a      	ldr	r5, [pc, #40]	; (400784 <efc_perform_command+0x44>)
  40075c:	f022 02ff 	bic.w	r2, r2, #255	; 0xff
  400760:	2300      	movs	r3, #0
  400762:	f042 42b4 	orr.w	r2, r2, #1509949440	; 0x5a000000
  400766:	b2c9      	uxtb	r1, r1
  400768:	702b      	strb	r3, [r5, #0]
  40076a:	4311      	orrs	r1, r2
  40076c:	4b06      	ldr	r3, [pc, #24]	; (400788 <efc_perform_command+0x48>)
  40076e:	4798      	blx	r3
  400770:	b93c      	cbnz	r4, 400782 <efc_perform_command+0x42>
  400772:	2301      	movs	r3, #1
  400774:	702b      	strb	r3, [r5, #0]
  400776:	f3bf 8f5f 	dmb	sy
  40077a:	b662      	cpsie	i
  40077c:	bd38      	pop	{r3, r4, r5, pc}
  40077e:	f04f 30ff 	mov.w	r0, #4294967295
  400782:	bd38      	pop	{r3, r4, r5, pc}
  400784:	20000160 	.word	0x20000160
  400788:	20000065 	.word	0x20000065

0040078c <pio_handler_process>:
  40078c:	e92d 41f0 	stmdb	sp!, {r4, r5, r6, r7, r8, lr}
  400790:	4b19      	ldr	r3, [pc, #100]	; (4007f8 <pio_handler_process+0x6c>)
  400792:	4606      	mov	r6, r0
  400794:	4688      	mov	r8, r1
  400796:	4798      	blx	r3
  400798:	4b18      	ldr	r3, [pc, #96]	; (4007fc <pio_handler_process+0x70>)
  40079a:	4605      	mov	r5, r0
  40079c:	4630      	mov	r0, r6
  40079e:	4798      	blx	r3
  4007a0:	4005      	ands	r5, r0
  4007a2:	d104      	bne.n	4007ae <pio_handler_process+0x22>
  4007a4:	4b16      	ldr	r3, [pc, #88]	; (400800 <pio_handler_process+0x74>)
  4007a6:	681b      	ldr	r3, [r3, #0]
  4007a8:	b9cb      	cbnz	r3, 4007de <pio_handler_process+0x52>
  4007aa:	e8bd 81f0 	ldmia.w	sp!, {r4, r5, r6, r7, r8, pc}
  4007ae:	4c15      	ldr	r4, [pc, #84]	; (400804 <pio_handler_process+0x78>)
  4007b0:	f104 0760 	add.w	r7, r4, #96	; 0x60
  4007b4:	f854 3c0c 	ldr.w	r3, [r4, #-12]
  4007b8:	4543      	cmp	r3, r8
  4007ba:	d117      	bne.n	4007ec <pio_handler_process+0x60>
  4007bc:	f854 1c08 	ldr.w	r1, [r4, #-8]
  4007c0:	4229      	tst	r1, r5
  4007c2:	d013      	beq.n	4007ec <pio_handler_process+0x60>
  4007c4:	6823      	ldr	r3, [r4, #0]
  4007c6:	4640      	mov	r0, r8
  4007c8:	4798      	blx	r3
  4007ca:	f854 3c08 	ldr.w	r3, [r4, #-8]
  4007ce:	42a7      	cmp	r7, r4
  4007d0:	ea25 0503 	bic.w	r5, r5, r3
  4007d4:	d0e6      	beq.n	4007a4 <pio_handler_process+0x18>
  4007d6:	3410      	adds	r4, #16
  4007d8:	2d00      	cmp	r5, #0
  4007da:	d0e3      	beq.n	4007a4 <pio_handler_process+0x18>
  4007dc:	e7ea      	b.n	4007b4 <pio_handler_process+0x28>
  4007de:	4b0a      	ldr	r3, [pc, #40]	; (400808 <pio_handler_process+0x7c>)
  4007e0:	681b      	ldr	r3, [r3, #0]
  4007e2:	b13b      	cbz	r3, 4007f4 <pio_handler_process+0x68>
  4007e4:	4630      	mov	r0, r6
  4007e6:	e8bd 41f0 	ldmia.w	sp!, {r4, r5, r6, r7, r8, lr}
  4007ea:	4718      	bx	r3
  4007ec:	42a7      	cmp	r7, r4
  4007ee:	d0d9      	beq.n	4007a4 <pio_handler_process+0x18>
  4007f0:	3410      	adds	r4, #16
  4007f2:	e7df      	b.n	4007b4 <pio_handler_process+0x28>
  4007f4:	e8bd 81f0 	ldmia.w	sp!, {r4, r5, r6, r7, r8, pc}
  4007f8:	00402119 	.word	0x00402119
  4007fc:	0040211d 	.word	0x0040211d
  400800:	20000384 	.word	0x20000384
  400804:	20000258 	.word	0x20000258
  400808:	20000248 	.word	0x20000248

0040080c <PIOA_Handler>:
  40080c:	210b      	movs	r1, #11
  40080e:	4801      	ldr	r0, [pc, #4]	; (400814 <PIOA_Handler+0x8>)
  400810:	4b01      	ldr	r3, [pc, #4]	; (400818 <PIOA_Handler+0xc>)
  400812:	4718      	bx	r3
  400814:	400e0e00 	.word	0x400e0e00
  400818:	0040078d 	.word	0x0040078d

0040081c <PIOB_Handler>:
  40081c:	210c      	movs	r1, #12
  40081e:	4801      	ldr	r0, [pc, #4]	; (400824 <PIOB_Handler+0x8>)
  400820:	4b01      	ldr	r3, [pc, #4]	; (400828 <PIOB_Handler+0xc>)
  400822:	4718      	bx	r3
  400824:	400e1000 	.word	0x400e1000
  400828:	0040078d 	.word	0x0040078d

0040082c <spi_enable_clock>:
  40082c:	2015      	movs	r0, #21
  40082e:	4b01      	ldr	r3, [pc, #4]	; (400834 <spi_enable_clock+0x8>)
  400830:	4718      	bx	r3
  400832:	bf00      	nop
  400834:	0040231d 	.word	0x0040231d

00400838 <spi_set_peripheral_chip_select_value>:
  400838:	6843      	ldr	r3, [r0, #4]
  40083a:	f423 2370 	bic.w	r3, r3, #983040	; 0xf0000
  40083e:	6043      	str	r3, [r0, #4]
  400840:	6843      	ldr	r3, [r0, #4]
  400842:	0409      	lsls	r1, r1, #16
  400844:	f401 2170 	and.w	r1, r1, #983040	; 0xf0000
  400848:	430b      	orrs	r3, r1
  40084a:	6043      	str	r3, [r0, #4]
  40084c:	4770      	bx	lr

0040084e <spi_set_delay_between_chip_select>:
  40084e:	6843      	ldr	r3, [r0, #4]
  400850:	f023 437f 	bic.w	r3, r3, #4278190080	; 0xff000000
  400854:	6043      	str	r3, [r0, #4]
  400856:	6843      	ldr	r3, [r0, #4]
  400858:	ea43 6101 	orr.w	r1, r3, r1, lsl #24
  40085c:	6041      	str	r1, [r0, #4]
  40085e:	4770      	bx	lr

00400860 <spi_write>:
  400860:	b530      	push	{r4, r5, lr}
  400862:	f643 2499 	movw	r4, #15001	; 0x3a99
  400866:	6905      	ldr	r5, [r0, #16]
  400868:	07ad      	lsls	r5, r5, #30
  40086a:	d403      	bmi.n	400874 <spi_write+0x14>
  40086c:	3c01      	subs	r4, #1
  40086e:	d1fa      	bne.n	400866 <spi_write+0x6>
  400870:	2001      	movs	r0, #1
  400872:	bd30      	pop	{r4, r5, pc}
  400874:	6844      	ldr	r4, [r0, #4]
  400876:	07a4      	lsls	r4, r4, #30
  400878:	d506      	bpl.n	400888 <spi_write+0x28>
  40087a:	0412      	lsls	r2, r2, #16
  40087c:	f402 2270 	and.w	r2, r2, #983040	; 0xf0000
  400880:	4311      	orrs	r1, r2
  400882:	b10b      	cbz	r3, 400888 <spi_write+0x28>
  400884:	f041 7180 	orr.w	r1, r1, #16777216	; 0x1000000
  400888:	60c1      	str	r1, [r0, #12]
  40088a:	2000      	movs	r0, #0
  40088c:	bd30      	pop	{r4, r5, pc}

0040088e <spi_set_clock_polarity>:
  40088e:	0089      	lsls	r1, r1, #2
  400890:	4401      	add	r1, r0
  400892:	6b0b      	ldr	r3, [r1, #48]	; 0x30
  400894:	b112      	cbz	r2, 40089c <spi_set_clock_polarity+0xe>
  400896:	f043 0301 	orr.w	r3, r3, #1
  40089a:	e001      	b.n	4008a0 <spi_set_clock_polarity+0x12>
  40089c:	f023 0301 	bic.w	r3, r3, #1
  4008a0:	630b      	str	r3, [r1, #48]	; 0x30
  4008a2:	4770      	bx	lr

004008a4 <spi_set_clock_phase>:
  4008a4:	0089      	lsls	r1, r1, #2
  4008a6:	4401      	add	r1, r0
  4008a8:	6b0b      	ldr	r3, [r1, #48]	; 0x30
  4008aa:	b112      	cbz	r2, 4008b2 <spi_set_clock_phase+0xe>
  4008ac:	f043 0302 	orr.w	r3, r3, #2
  4008b0:	e001      	b.n	4008b6 <spi_set_clock_phase+0x12>
  4008b2:	f023 0302 	bic.w	r3, r3, #2
  4008b6:	630b      	str	r3, [r1, #48]	; 0x30
  4008b8:	4770      	bx	lr

004008ba <spi_configure_cs_behavior>:
  4008ba:	2a04      	cmp	r2, #4
  4008bc:	d109      	bne.n	4008d2 <spi_configure_cs_behavior+0x18>
  4008be:	eb00 0181 	add.w	r1, r0, r1, lsl #2
  4008c2:	6b0b      	ldr	r3, [r1, #48]	; 0x30
  4008c4:	f023 0308 	bic.w	r3, r3, #8
  4008c8:	630b      	str	r3, [r1, #48]	; 0x30
  4008ca:	6b0b      	ldr	r3, [r1, #48]	; 0x30
  4008cc:	f043 0304 	orr.w	r3, r3, #4
  4008d0:	e011      	b.n	4008f6 <spi_configure_cs_behavior+0x3c>
  4008d2:	b94a      	cbnz	r2, 4008e8 <spi_configure_cs_behavior+0x2e>
  4008d4:	eb00 0181 	add.w	r1, r0, r1, lsl #2
  4008d8:	6b0b      	ldr	r3, [r1, #48]	; 0x30
  4008da:	f023 0308 	bic.w	r3, r3, #8
  4008de:	630b      	str	r3, [r1, #48]	; 0x30
  4008e0:	6b0b      	ldr	r3, [r1, #48]	; 0x30
  4008e2:	f023 0304 	bic.w	r3, r3, #4
  4008e6:	e006      	b.n	4008f6 <spi_configure_cs_behavior+0x3c>
  4008e8:	2a08      	cmp	r2, #8
  4008ea:	d105      	bne.n	4008f8 <spi_configure_cs_behavior+0x3e>
  4008ec:	eb00 0181 	add.w	r1, r0, r1, lsl #2
  4008f0:	6b0b      	ldr	r3, [r1, #48]	; 0x30
  4008f2:	f043 0308 	orr.w	r3, r3, #8
  4008f6:	630b      	str	r3, [r1, #48]	; 0x30
  4008f8:	4770      	bx	lr

004008fa <spi_set_bits_per_transfer>:
  4008fa:	eb00 0181 	add.w	r1, r0, r1, lsl #2
  4008fe:	6b0b      	ldr	r3, [r1, #48]	; 0x30
  400900:	f023 03f0 	bic.w	r3, r3, #240	; 0xf0
  400904:	630b      	str	r3, [r1, #48]	; 0x30
  400906:	6b0b      	ldr	r3, [r1, #48]	; 0x30
  400908:	431a      	orrs	r2, r3
  40090a:	630a      	str	r2, [r1, #48]	; 0x30
  40090c:	4770      	bx	lr

0040090e <spi_set_baudrate_div>:
  40090e:	eb00 0181 	add.w	r1, r0, r1, lsl #2
  400912:	6b0b      	ldr	r3, [r1, #48]	; 0x30
  400914:	f423 437f 	bic.w	r3, r3, #65280	; 0xff00
  400918:	630b      	str	r3, [r1, #48]	; 0x30
  40091a:	6b0b      	ldr	r3, [r1, #48]	; 0x30
  40091c:	ea43 2202 	orr.w	r2, r3, r2, lsl #8
  400920:	630a      	str	r2, [r1, #48]	; 0x30
  400922:	4770      	bx	lr

00400924 <spi_set_transfer_delay>:
  400924:	b510      	push	{r4, lr}
  400926:	eb00 0181 	add.w	r1, r0, r1, lsl #2
  40092a:	6b08      	ldr	r0, [r1, #48]	; 0x30
  40092c:	b280      	uxth	r0, r0
  40092e:	6308      	str	r0, [r1, #48]	; 0x30
  400930:	6b0c      	ldr	r4, [r1, #48]	; 0x30
  400932:	ea44 6303 	orr.w	r3, r4, r3, lsl #24
  400936:	ea43 4202 	orr.w	r2, r3, r2, lsl #16
  40093a:	630a      	str	r2, [r1, #48]	; 0x30
  40093c:	bd10      	pop	{r4, pc}
	...

00400940 <cpu_irq_save>:
  400940:	f3ef 8010 	mrs	r0, PRIMASK
  400944:	b672      	cpsid	i
  400946:	f3bf 8f5f 	dmb	sy
  40094a:	4b03      	ldr	r3, [pc, #12]	; (400958 <cpu_irq_save+0x18>)
  40094c:	2200      	movs	r2, #0
  40094e:	fab0 f080 	clz	r0, r0
  400952:	701a      	strb	r2, [r3, #0]
  400954:	0940      	lsrs	r0, r0, #5
  400956:	4770      	bx	lr
  400958:	20000160 	.word	0x20000160

0040095c <udd_ctrl_init>:
  40095c:	4a03      	ldr	r2, [pc, #12]	; (40096c <udd_ctrl_init+0x10>)
  40095e:	2300      	movs	r3, #0
  400960:	6113      	str	r3, [r2, #16]
  400962:	6153      	str	r3, [r2, #20]
  400964:	8193      	strh	r3, [r2, #12]
  400966:	4a02      	ldr	r2, [pc, #8]	; (400970 <udd_ctrl_init+0x14>)
  400968:	7013      	strb	r3, [r2, #0]
  40096a:	4770      	bx	lr
  40096c:	2000036c 	.word	0x2000036c
  400970:	2000033c 	.word	0x2000033c

00400974 <udd_ctrl_stall_data>:
  400974:	4b0d      	ldr	r3, [pc, #52]	; (4009ac <udd_ctrl_stall_data+0x38>)
  400976:	2205      	movs	r2, #5
  400978:	701a      	strb	r2, [r3, #0]
  40097a:	4a0d      	ldr	r2, [pc, #52]	; (4009b0 <udd_ctrl_stall_data+0x3c>)
  40097c:	b082      	sub	sp, #8
  40097e:	6b13      	ldr	r3, [r2, #48]	; 0x30
  400980:	9300      	str	r3, [sp, #0]
  400982:	9b00      	ldr	r3, [sp, #0]
  400984:	f043 034f 	orr.w	r3, r3, #79	; 0x4f
  400988:	9300      	str	r3, [sp, #0]
  40098a:	9b00      	ldr	r3, [sp, #0]
  40098c:	f043 0320 	orr.w	r3, r3, #32
  400990:	9300      	str	r3, [sp, #0]
  400992:	9b00      	ldr	r3, [sp, #0]
  400994:	6313      	str	r3, [r2, #48]	; 0x30
  400996:	2300      	movs	r3, #0
  400998:	9301      	str	r3, [sp, #4]
  40099a:	9b01      	ldr	r3, [sp, #4]
  40099c:	2b13      	cmp	r3, #19
  40099e:	d803      	bhi.n	4009a8 <udd_ctrl_stall_data+0x34>
  4009a0:	bf00      	nop
  4009a2:	9b01      	ldr	r3, [sp, #4]
  4009a4:	3301      	adds	r3, #1
  4009a6:	e7f7      	b.n	400998 <udd_ctrl_stall_data+0x24>
  4009a8:	b002      	add	sp, #8
  4009aa:	4770      	bx	lr
  4009ac:	2000033c 	.word	0x2000033c
  4009b0:	40034000 	.word	0x40034000

004009b4 <udd_ctrl_send_zlp_in>:
  4009b4:	4b0d      	ldr	r3, [pc, #52]	; (4009ec <udd_ctrl_send_zlp_in+0x38>)
  4009b6:	2203      	movs	r2, #3
  4009b8:	701a      	strb	r2, [r3, #0]
  4009ba:	4a0d      	ldr	r2, [pc, #52]	; (4009f0 <udd_ctrl_send_zlp_in+0x3c>)
  4009bc:	b082      	sub	sp, #8
  4009be:	6b13      	ldr	r3, [r2, #48]	; 0x30
  4009c0:	9300      	str	r3, [sp, #0]
  4009c2:	9b00      	ldr	r3, [sp, #0]
  4009c4:	f043 034f 	orr.w	r3, r3, #79	; 0x4f
  4009c8:	9300      	str	r3, [sp, #0]
  4009ca:	9b00      	ldr	r3, [sp, #0]
  4009cc:	f043 0310 	orr.w	r3, r3, #16
  4009d0:	9300      	str	r3, [sp, #0]
  4009d2:	9b00      	ldr	r3, [sp, #0]
  4009d4:	6313      	str	r3, [r2, #48]	; 0x30
  4009d6:	2300      	movs	r3, #0
  4009d8:	9301      	str	r3, [sp, #4]
  4009da:	9b01      	ldr	r3, [sp, #4]
  4009dc:	2b13      	cmp	r3, #19
  4009de:	d803      	bhi.n	4009e8 <udd_ctrl_send_zlp_in+0x34>
  4009e0:	bf00      	nop
  4009e2:	9b01      	ldr	r3, [sp, #4]
  4009e4:	3301      	adds	r3, #1
  4009e6:	e7f7      	b.n	4009d8 <udd_ctrl_send_zlp_in+0x24>
  4009e8:	b002      	add	sp, #8
  4009ea:	4770      	bx	lr
  4009ec:	2000033c 	.word	0x2000033c
  4009f0:	40034000 	.word	0x40034000

004009f4 <udd_ctrl_endofrequest>:
  4009f4:	4b02      	ldr	r3, [pc, #8]	; (400a00 <udd_ctrl_endofrequest+0xc>)
  4009f6:	691b      	ldr	r3, [r3, #16]
  4009f8:	b103      	cbz	r3, 4009fc <udd_ctrl_endofrequest+0x8>
  4009fa:	4718      	bx	r3
  4009fc:	4770      	bx	lr
  4009fe:	bf00      	nop
  400a00:	2000036c 	.word	0x2000036c

00400a04 <udd_ep_ack_out_received>:
  400a04:	b57f      	push	{r0, r1, r2, r3, r4, r5, r6, lr}
  400a06:	0082      	lsls	r2, r0, #2
  400a08:	f102 2240 	add.w	r2, r2, #1073758208	; 0x40004000
  400a0c:	f502 3240 	add.w	r2, r2, #196608	; 0x30000
  400a10:	1e43      	subs	r3, r0, #1
  400a12:	6b14      	ldr	r4, [r2, #48]	; 0x30
  400a14:	6b11      	ldr	r1, [r2, #48]	; 0x30
  400a16:	f014 0f02 	tst.w	r4, #2
  400a1a:	4c2d      	ldr	r4, [pc, #180]	; (400ad0 <udd_ep_ack_out_received+0xcc>)
  400a1c:	d00a      	beq.n	400a34 <udd_ep_ack_out_received+0x30>
  400a1e:	f011 0540 	ands.w	r5, r1, #64	; 0x40
  400a22:	d10f      	bne.n	400a44 <udd_ep_ack_out_received+0x40>
  400a24:	2114      	movs	r1, #20
  400a26:	fb01 4103 	mla	r1, r1, r3, r4
  400a2a:	7c4e      	ldrb	r6, [r1, #17]
  400a2c:	f365 0683 	bfi	r6, r5, #2, #2
  400a30:	744e      	strb	r6, [r1, #17]
  400a32:	e007      	b.n	400a44 <udd_ep_ack_out_received+0x40>
  400a34:	2114      	movs	r1, #20
  400a36:	fb01 4103 	mla	r1, r1, r3, r4
  400a3a:	2601      	movs	r6, #1
  400a3c:	7c4d      	ldrb	r5, [r1, #17]
  400a3e:	f366 0583 	bfi	r5, r6, #2, #2
  400a42:	744d      	strb	r5, [r1, #17]
  400a44:	2114      	movs	r1, #20
  400a46:	fb01 4103 	mla	r1, r1, r3, r4
  400a4a:	7c49      	ldrb	r1, [r1, #17]
  400a4c:	f011 010c 	ands.w	r1, r1, #12
  400a50:	d11f      	bne.n	400a92 <udd_ep_ack_out_received+0x8e>
  400a52:	6b15      	ldr	r5, [r2, #48]	; 0x30
  400a54:	9500      	str	r5, [sp, #0]
  400a56:	9d00      	ldr	r5, [sp, #0]
  400a58:	f045 054f 	orr.w	r5, r5, #79	; 0x4f
  400a5c:	9500      	str	r5, [sp, #0]
  400a5e:	9d00      	ldr	r5, [sp, #0]
  400a60:	f025 0502 	bic.w	r5, r5, #2
  400a64:	9500      	str	r5, [sp, #0]
  400a66:	9d00      	ldr	r5, [sp, #0]
  400a68:	6315      	str	r5, [r2, #48]	; 0x30
  400a6a:	9101      	str	r1, [sp, #4]
  400a6c:	9a01      	ldr	r2, [sp, #4]
  400a6e:	2a13      	cmp	r2, #19
  400a70:	d804      	bhi.n	400a7c <udd_ep_ack_out_received+0x78>
  400a72:	bf00      	nop
  400a74:	9a01      	ldr	r2, [sp, #4]
  400a76:	3201      	adds	r2, #1
  400a78:	9201      	str	r2, [sp, #4]
  400a7a:	e7f7      	b.n	400a6c <udd_ep_ack_out_received+0x68>
  400a7c:	b328      	cbz	r0, 400aca <udd_ep_ack_out_received+0xc6>
  400a7e:	2803      	cmp	r0, #3
  400a80:	d023      	beq.n	400aca <udd_ep_ack_out_received+0xc6>
  400a82:	2214      	movs	r2, #20
  400a84:	fb02 4303 	mla	r3, r2, r3, r4
  400a88:	2101      	movs	r1, #1
  400a8a:	7c5a      	ldrb	r2, [r3, #17]
  400a8c:	f361 0283 	bfi	r2, r1, #2, #2
  400a90:	e01a      	b.n	400ac8 <udd_ep_ack_out_received+0xc4>
  400a92:	6b11      	ldr	r1, [r2, #48]	; 0x30
  400a94:	9102      	str	r1, [sp, #8]
  400a96:	9902      	ldr	r1, [sp, #8]
  400a98:	f041 014f 	orr.w	r1, r1, #79	; 0x4f
  400a9c:	9102      	str	r1, [sp, #8]
  400a9e:	9902      	ldr	r1, [sp, #8]
  400aa0:	f021 0140 	bic.w	r1, r1, #64	; 0x40
  400aa4:	9102      	str	r1, [sp, #8]
  400aa6:	9902      	ldr	r1, [sp, #8]
  400aa8:	6311      	str	r1, [r2, #48]	; 0x30
  400aaa:	2200      	movs	r2, #0
  400aac:	9203      	str	r2, [sp, #12]
  400aae:	9a03      	ldr	r2, [sp, #12]
  400ab0:	2a13      	cmp	r2, #19
  400ab2:	d803      	bhi.n	400abc <udd_ep_ack_out_received+0xb8>
  400ab4:	bf00      	nop
  400ab6:	9a03      	ldr	r2, [sp, #12]
  400ab8:	3201      	adds	r2, #1
  400aba:	e7f7      	b.n	400aac <udd_ep_ack_out_received+0xa8>
  400abc:	2214      	movs	r2, #20
  400abe:	fb02 4303 	mla	r3, r2, r3, r4
  400ac2:	7c5a      	ldrb	r2, [r3, #17]
  400ac4:	f36f 0283 	bfc	r2, #2, #2
  400ac8:	745a      	strb	r2, [r3, #17]
  400aca:	b004      	add	sp, #16
  400acc:	bd70      	pop	{r4, r5, r6, pc}
  400ace:	bf00      	nop
  400ad0:	200002c0 	.word	0x200002c0

00400ad4 <udd_ep_in_sent>:
  400ad4:	e92d 41f3 	stmdb	sp!, {r0, r1, r4, r5, r6, r7, r8, lr}
  400ad8:	4e61      	ldr	r6, [pc, #388]	; (400c60 <udd_ep_in_sent+0x18c>)
  400ada:	1e43      	subs	r3, r0, #1
  400adc:	2214      	movs	r2, #20
  400ade:	fb02 6203 	mla	r2, r2, r3, r6
  400ae2:	7c52      	ldrb	r2, [r2, #17]
  400ae4:	f3c2 0281 	ubfx	r2, r2, #2, #2
  400ae8:	b120      	cbz	r0, 400af4 <udd_ep_in_sent+0x20>
  400aea:	2803      	cmp	r0, #3
  400aec:	bf0c      	ite	eq
  400aee:	2401      	moveq	r4, #1
  400af0:	2402      	movne	r4, #2
  400af2:	e000      	b.n	400af6 <udd_ep_in_sent+0x22>
  400af4:	2401      	movs	r4, #1
  400af6:	4294      	cmp	r4, r2
  400af8:	dc01      	bgt.n	400afe <udd_ep_in_sent+0x2a>
  400afa:	2001      	movs	r0, #1
  400afc:	e0ac      	b.n	400c58 <udd_ep_in_sent+0x184>
  400afe:	2214      	movs	r2, #20
  400b00:	fb02 6203 	mla	r2, r2, r3, r6
  400b04:	68d4      	ldr	r4, [r2, #12]
  400b06:	6895      	ldr	r5, [r2, #8]
  400b08:	42ac      	cmp	r4, r5
  400b0a:	d307      	bcc.n	400b1c <udd_ep_in_sent+0x48>
  400b0c:	7c57      	ldrb	r7, [r2, #17]
  400b0e:	f007 0740 	and.w	r7, r7, #64	; 0x40
  400b12:	f007 02ff 	and.w	r2, r7, #255	; 0xff
  400b16:	2f00      	cmp	r7, #0
  400b18:	f000 809d 	beq.w	400c56 <udd_ep_in_sent+0x182>
  400b1c:	2214      	movs	r2, #20
  400b1e:	fb02 6c03 	mla	ip, r2, r3, r6
  400b22:	ebc4 0e05 	rsb	lr, r4, r5
  400b26:	f8bc 5010 	ldrh.w	r5, [ip, #16]
  400b2a:	f8dc 7004 	ldr.w	r7, [ip, #4]
  400b2e:	f3c5 0509 	ubfx	r5, r5, #0, #10
  400b32:	45ae      	cmp	lr, r5
  400b34:	bf38      	it	cc
  400b36:	4675      	movcc	r5, lr
  400b38:	fb02 6203 	mla	r2, r2, r3, r6
  400b3c:	4427      	add	r7, r4
  400b3e:	442c      	add	r4, r5
  400b40:	60d4      	str	r4, [r2, #12]
  400b42:	ea4f 0280 	mov.w	r2, r0, lsl #2
  400b46:	f102 2240 	add.w	r2, r2, #1073758208	; 0x40004000
  400b4a:	bf34      	ite	cc
  400b4c:	f04f 0e01 	movcc.w	lr, #1
  400b50:	f04f 0e00 	movcs.w	lr, #0
  400b54:	f107 0408 	add.w	r4, r7, #8
  400b58:	f105 0808 	add.w	r8, r5, #8
  400b5c:	f502 3240 	add.w	r2, r2, #196608	; 0x30000
  400b60:	ebc4 0c08 	rsb	ip, r4, r8
  400b64:	44bc      	add	ip, r7
  400b66:	f1bc 0f07 	cmp.w	ip, #7
  400b6a:	d921      	bls.n	400bb0 <udd_ep_in_sent+0xdc>
  400b6c:	f814 cc08 	ldrb.w	ip, [r4, #-8]
  400b70:	f8c2 c050 	str.w	ip, [r2, #80]	; 0x50
  400b74:	f814 cc07 	ldrb.w	ip, [r4, #-7]
  400b78:	f8c2 c050 	str.w	ip, [r2, #80]	; 0x50
  400b7c:	f814 cc06 	ldrb.w	ip, [r4, #-6]
  400b80:	f8c2 c050 	str.w	ip, [r2, #80]	; 0x50
  400b84:	f814 cc05 	ldrb.w	ip, [r4, #-5]
  400b88:	f8c2 c050 	str.w	ip, [r2, #80]	; 0x50
  400b8c:	f814 cc04 	ldrb.w	ip, [r4, #-4]
  400b90:	f8c2 c050 	str.w	ip, [r2, #80]	; 0x50
  400b94:	f814 cc03 	ldrb.w	ip, [r4, #-3]
  400b98:	f8c2 c050 	str.w	ip, [r2, #80]	; 0x50
  400b9c:	f814 cc02 	ldrb.w	ip, [r4, #-2]
  400ba0:	f8c2 c050 	str.w	ip, [r2, #80]	; 0x50
  400ba4:	f814 cc01 	ldrb.w	ip, [r4, #-1]
  400ba8:	f8c2 c050 	str.w	ip, [r2, #80]	; 0x50
  400bac:	3408      	adds	r4, #8
  400bae:	e7d7      	b.n	400b60 <udd_ep_in_sent+0x8c>
  400bb0:	08ea      	lsrs	r2, r5, #3
  400bb2:	4c2c      	ldr	r4, [pc, #176]	; (400c64 <udd_ep_in_sent+0x190>)
  400bb4:	eb07 02c2 	add.w	r2, r7, r2, lsl #3
  400bb8:	443d      	add	r5, r7
  400bba:	42aa      	cmp	r2, r5
  400bbc:	d006      	beq.n	400bcc <udd_ep_in_sent+0xf8>
  400bbe:	f100 0714 	add.w	r7, r0, #20
  400bc2:	f812 cb01 	ldrb.w	ip, [r2], #1
  400bc6:	f844 c027 	str.w	ip, [r4, r7, lsl #2]
  400bca:	e7f6      	b.n	400bba <udd_ep_in_sent+0xe6>
  400bcc:	2214      	movs	r2, #20
  400bce:	fb02 6203 	mla	r2, r2, r3, r6
  400bd2:	7c54      	ldrb	r4, [r2, #17]
  400bd4:	f3c4 0581 	ubfx	r5, r4, #2, #2
  400bd8:	3501      	adds	r5, #1
  400bda:	f365 0483 	bfi	r4, r5, #2, #2
  400bde:	7454      	strb	r4, [r2, #17]
  400be0:	b951      	cbnz	r1, 400bf8 <udd_ep_in_sent+0x124>
  400be2:	f1be 0f00 	cmp.w	lr, #0
  400be6:	d021      	beq.n	400c2c <udd_ep_in_sent+0x158>
  400be8:	2214      	movs	r2, #20
  400bea:	fb02 6203 	mla	r2, r2, r3, r6
  400bee:	7c51      	ldrb	r1, [r2, #17]
  400bf0:	f36f 1186 	bfc	r1, #6, #1
  400bf4:	7451      	strb	r1, [r2, #17]
  400bf6:	e019      	b.n	400c2c <udd_ep_in_sent+0x158>
  400bf8:	0080      	lsls	r0, r0, #2
  400bfa:	f100 2040 	add.w	r0, r0, #1073758208	; 0x40004000
  400bfe:	f500 3040 	add.w	r0, r0, #196608	; 0x30000
  400c02:	6b02      	ldr	r2, [r0, #48]	; 0x30
  400c04:	9200      	str	r2, [sp, #0]
  400c06:	9a00      	ldr	r2, [sp, #0]
  400c08:	f042 024f 	orr.w	r2, r2, #79	; 0x4f
  400c0c:	9200      	str	r2, [sp, #0]
  400c0e:	9a00      	ldr	r2, [sp, #0]
  400c10:	f042 0210 	orr.w	r2, r2, #16
  400c14:	9200      	str	r2, [sp, #0]
  400c16:	9a00      	ldr	r2, [sp, #0]
  400c18:	6302      	str	r2, [r0, #48]	; 0x30
  400c1a:	2200      	movs	r2, #0
  400c1c:	9201      	str	r2, [sp, #4]
  400c1e:	9a01      	ldr	r2, [sp, #4]
  400c20:	2a13      	cmp	r2, #19
  400c22:	d8de      	bhi.n	400be2 <udd_ep_in_sent+0x10e>
  400c24:	bf00      	nop
  400c26:	9a01      	ldr	r2, [sp, #4]
  400c28:	3201      	adds	r2, #1
  400c2a:	e7f7      	b.n	400c1c <udd_ep_in_sent+0x148>
  400c2c:	2214      	movs	r2, #20
  400c2e:	fb02 6303 	mla	r3, r2, r3, r6
  400c32:	68d9      	ldr	r1, [r3, #12]
  400c34:	689a      	ldr	r2, [r3, #8]
  400c36:	4291      	cmp	r1, r2
  400c38:	f4ff af5f 	bcc.w	400afa <udd_ep_in_sent+0x26>
  400c3c:	7c5a      	ldrb	r2, [r3, #17]
  400c3e:	f002 0240 	and.w	r2, r2, #64	; 0x40
  400c42:	f002 00ff 	and.w	r0, r2, #255	; 0xff
  400c46:	2a00      	cmp	r2, #0
  400c48:	f47f af57 	bne.w	400afa <udd_ep_in_sent+0x26>
  400c4c:	7c5a      	ldrb	r2, [r3, #17]
  400c4e:	f042 0280 	orr.w	r2, r2, #128	; 0x80
  400c52:	745a      	strb	r2, [r3, #17]
  400c54:	e000      	b.n	400c58 <udd_ep_in_sent+0x184>
  400c56:	4610      	mov	r0, r2
  400c58:	b002      	add	sp, #8
  400c5a:	e8bd 81f0 	ldmia.w	sp!, {r4, r5, r6, r7, r8, pc}
  400c5e:	bf00      	nop
  400c60:	200002c0 	.word	0x200002c0
  400c64:	40034000 	.word	0x40034000

00400c68 <cpu_irq_restore>:
  400c68:	b128      	cbz	r0, 400c76 <cpu_irq_restore+0xe>
  400c6a:	4b03      	ldr	r3, [pc, #12]	; (400c78 <cpu_irq_restore+0x10>)
  400c6c:	2201      	movs	r2, #1
  400c6e:	701a      	strb	r2, [r3, #0]
  400c70:	f3bf 8f5f 	dmb	sy
  400c74:	b662      	cpsie	i
  400c76:	4770      	bx	lr
  400c78:	20000160 	.word	0x20000160

00400c7c <sleepmgr_lock_mode>:
  400c7c:	b510      	push	{r4, lr}
  400c7e:	4c07      	ldr	r4, [pc, #28]	; (400c9c <sleepmgr_lock_mode+0x20>)
  400c80:	5c23      	ldrb	r3, [r4, r0]
  400c82:	2bff      	cmp	r3, #255	; 0xff
  400c84:	4601      	mov	r1, r0
  400c86:	d100      	bne.n	400c8a <sleepmgr_lock_mode+0xe>
  400c88:	e7fe      	b.n	400c88 <sleepmgr_lock_mode+0xc>
  400c8a:	4b05      	ldr	r3, [pc, #20]	; (400ca0 <sleepmgr_lock_mode+0x24>)
  400c8c:	4798      	blx	r3
  400c8e:	5c63      	ldrb	r3, [r4, r1]
  400c90:	3301      	adds	r3, #1
  400c92:	5463      	strb	r3, [r4, r1]
  400c94:	4b03      	ldr	r3, [pc, #12]	; (400ca4 <sleepmgr_lock_mode+0x28>)
  400c96:	e8bd 4010 	ldmia.w	sp!, {r4, lr}
  400c9a:	4718      	bx	r3
  400c9c:	20000364 	.word	0x20000364
  400ca0:	00400941 	.word	0x00400941
  400ca4:	00400c69 	.word	0x00400c69

00400ca8 <sleepmgr_unlock_mode>:
  400ca8:	b510      	push	{r4, lr}
  400caa:	4c07      	ldr	r4, [pc, #28]	; (400cc8 <sleepmgr_unlock_mode+0x20>)
  400cac:	5c23      	ldrb	r3, [r4, r0]
  400cae:	4601      	mov	r1, r0
  400cb0:	b903      	cbnz	r3, 400cb4 <sleepmgr_unlock_mode+0xc>
  400cb2:	e7fe      	b.n	400cb2 <sleepmgr_unlock_mode+0xa>
  400cb4:	4b05      	ldr	r3, [pc, #20]	; (400ccc <sleepmgr_unlock_mode+0x24>)
  400cb6:	4798      	blx	r3
  400cb8:	5c63      	ldrb	r3, [r4, r1]
  400cba:	3b01      	subs	r3, #1
  400cbc:	5463      	strb	r3, [r4, r1]
  400cbe:	4b04      	ldr	r3, [pc, #16]	; (400cd0 <sleepmgr_unlock_mode+0x28>)
  400cc0:	e8bd 4010 	ldmia.w	sp!, {r4, lr}
  400cc4:	4718      	bx	r3
  400cc6:	bf00      	nop
  400cc8:	20000364 	.word	0x20000364
  400ccc:	00400941 	.word	0x00400941
  400cd0:	00400c69 	.word	0x00400c69

00400cd4 <udd_sleep_mode>:
  400cd4:	b538      	push	{r3, r4, r5, lr}
  400cd6:	4c07      	ldr	r4, [pc, #28]	; (400cf4 <udd_sleep_mode+0x20>)
  400cd8:	4605      	mov	r5, r0
  400cda:	7823      	ldrb	r3, [r4, #0]
  400cdc:	b918      	cbnz	r0, 400ce6 <udd_sleep_mode+0x12>
  400cde:	b133      	cbz	r3, 400cee <udd_sleep_mode+0x1a>
  400ce0:	2002      	movs	r0, #2
  400ce2:	4b05      	ldr	r3, [pc, #20]	; (400cf8 <udd_sleep_mode+0x24>)
  400ce4:	e002      	b.n	400cec <udd_sleep_mode+0x18>
  400ce6:	b913      	cbnz	r3, 400cee <udd_sleep_mode+0x1a>
  400ce8:	4b04      	ldr	r3, [pc, #16]	; (400cfc <udd_sleep_mode+0x28>)
  400cea:	2002      	movs	r0, #2
  400cec:	4798      	blx	r3
  400cee:	7025      	strb	r5, [r4, #0]
  400cf0:	bd38      	pop	{r3, r4, r5, pc}
  400cf2:	bf00      	nop
  400cf4:	20000338 	.word	0x20000338
  400cf8:	00400ca9 	.word	0x00400ca9
  400cfc:	00400c7d 	.word	0x00400c7d

00400d00 <udd_ctrl_in_sent>:
  400d00:	e92d 41f0 	stmdb	sp!, {r4, r5, r6, r7, r8, lr}
  400d04:	4f5e      	ldr	r7, [pc, #376]	; (400e80 <udd_ctrl_in_sent+0x180>)
  400d06:	783b      	ldrb	r3, [r7, #0]
  400d08:	2b03      	cmp	r3, #3
  400d0a:	b08a      	sub	sp, #40	; 0x28
  400d0c:	d11a      	bne.n	400d44 <udd_ctrl_in_sent+0x44>
  400d0e:	4a5d      	ldr	r2, [pc, #372]	; (400e84 <udd_ctrl_in_sent+0x184>)
  400d10:	6b13      	ldr	r3, [r2, #48]	; 0x30
  400d12:	9300      	str	r3, [sp, #0]
  400d14:	9b00      	ldr	r3, [sp, #0]
  400d16:	f043 034f 	orr.w	r3, r3, #79	; 0x4f
  400d1a:	9300      	str	r3, [sp, #0]
  400d1c:	9b00      	ldr	r3, [sp, #0]
  400d1e:	f023 0301 	bic.w	r3, r3, #1
  400d22:	9300      	str	r3, [sp, #0]
  400d24:	9b00      	ldr	r3, [sp, #0]
  400d26:	6313      	str	r3, [r2, #48]	; 0x30
  400d28:	2300      	movs	r3, #0
  400d2a:	9301      	str	r3, [sp, #4]
  400d2c:	9b01      	ldr	r3, [sp, #4]
  400d2e:	2b13      	cmp	r3, #19
  400d30:	d803      	bhi.n	400d3a <udd_ctrl_in_sent+0x3a>
  400d32:	bf00      	nop
  400d34:	9b01      	ldr	r3, [sp, #4]
  400d36:	3301      	adds	r3, #1
  400d38:	e7f7      	b.n	400d2a <udd_ctrl_in_sent+0x2a>
  400d3a:	4b53      	ldr	r3, [pc, #332]	; (400e88 <udd_ctrl_in_sent+0x188>)
  400d3c:	4798      	blx	r3
  400d3e:	4b53      	ldr	r3, [pc, #332]	; (400e8c <udd_ctrl_in_sent+0x18c>)
  400d40:	4798      	blx	r3
  400d42:	e09a      	b.n	400e7a <udd_ctrl_in_sent+0x17a>
  400d44:	4e52      	ldr	r6, [pc, #328]	; (400e90 <udd_ctrl_in_sent+0x190>)
  400d46:	4d53      	ldr	r5, [pc, #332]	; (400e94 <udd_ctrl_in_sent+0x194>)
  400d48:	8831      	ldrh	r1, [r6, #0]
  400d4a:	89ac      	ldrh	r4, [r5, #12]
  400d4c:	1a64      	subs	r4, r4, r1
  400d4e:	b2a4      	uxth	r4, r4
  400d50:	2c00      	cmp	r4, #0
  400d52:	d128      	bne.n	400da6 <udd_ctrl_in_sent+0xa6>
  400d54:	4a50      	ldr	r2, [pc, #320]	; (400e98 <udd_ctrl_in_sent+0x198>)
  400d56:	8813      	ldrh	r3, [r2, #0]
  400d58:	440b      	add	r3, r1
  400d5a:	b29b      	uxth	r3, r3
  400d5c:	8013      	strh	r3, [r2, #0]
  400d5e:	88ea      	ldrh	r2, [r5, #6]
  400d60:	429a      	cmp	r2, r3
  400d62:	d002      	beq.n	400d6a <udd_ctrl_in_sent+0x6a>
  400d64:	4b4d      	ldr	r3, [pc, #308]	; (400e9c <udd_ctrl_in_sent+0x19c>)
  400d66:	781b      	ldrb	r3, [r3, #0]
  400d68:	b1bb      	cbz	r3, 400d9a <udd_ctrl_in_sent+0x9a>
  400d6a:	2304      	movs	r3, #4
  400d6c:	4a45      	ldr	r2, [pc, #276]	; (400e84 <udd_ctrl_in_sent+0x184>)
  400d6e:	703b      	strb	r3, [r7, #0]
  400d70:	6b13      	ldr	r3, [r2, #48]	; 0x30
  400d72:	9302      	str	r3, [sp, #8]
  400d74:	9b02      	ldr	r3, [sp, #8]
  400d76:	f043 034f 	orr.w	r3, r3, #79	; 0x4f
  400d7a:	9302      	str	r3, [sp, #8]
  400d7c:	9b02      	ldr	r3, [sp, #8]
  400d7e:	f023 0301 	bic.w	r3, r3, #1
  400d82:	9302      	str	r3, [sp, #8]
  400d84:	9b02      	ldr	r3, [sp, #8]
  400d86:	6313      	str	r3, [r2, #48]	; 0x30
  400d88:	2300      	movs	r3, #0
  400d8a:	9303      	str	r3, [sp, #12]
  400d8c:	9b03      	ldr	r3, [sp, #12]
  400d8e:	2b13      	cmp	r3, #19
  400d90:	d873      	bhi.n	400e7a <udd_ctrl_in_sent+0x17a>
  400d92:	bf00      	nop
  400d94:	9b03      	ldr	r3, [sp, #12]
  400d96:	3301      	adds	r3, #1
  400d98:	e7f7      	b.n	400d8a <udd_ctrl_in_sent+0x8a>
  400d9a:	696b      	ldr	r3, [r5, #20]
  400d9c:	b153      	cbz	r3, 400db4 <udd_ctrl_in_sent+0xb4>
  400d9e:	4798      	blx	r3
  400da0:	b140      	cbz	r0, 400db4 <udd_ctrl_in_sent+0xb4>
  400da2:	8034      	strh	r4, [r6, #0]
  400da4:	89ac      	ldrh	r4, [r5, #12]
  400da6:	2c3f      	cmp	r4, #63	; 0x3f
  400da8:	d904      	bls.n	400db4 <udd_ctrl_in_sent+0xb4>
  400daa:	4b3c      	ldr	r3, [pc, #240]	; (400e9c <udd_ctrl_in_sent+0x19c>)
  400dac:	2200      	movs	r2, #0
  400dae:	701a      	strb	r2, [r3, #0]
  400db0:	2440      	movs	r4, #64	; 0x40
  400db2:	e002      	b.n	400dba <udd_ctrl_in_sent+0xba>
  400db4:	4b39      	ldr	r3, [pc, #228]	; (400e9c <udd_ctrl_in_sent+0x19c>)
  400db6:	2201      	movs	r2, #1
  400db8:	701a      	strb	r2, [r3, #0]
  400dba:	4b39      	ldr	r3, [pc, #228]	; (400ea0 <udd_ctrl_in_sent+0x1a0>)
  400dbc:	f8d5 8008 	ldr.w	r8, [r5, #8]
  400dc0:	8835      	ldrh	r5, [r6, #0]
  400dc2:	4798      	blx	r3
  400dc4:	492f      	ldr	r1, [pc, #188]	; (400e84 <udd_ctrl_in_sent+0x184>)
  400dc6:	6b0b      	ldr	r3, [r1, #48]	; 0x30
  400dc8:	079b      	lsls	r3, r3, #30
  400dca:	4602      	mov	r2, r0
  400dcc:	d403      	bmi.n	400dd6 <udd_ctrl_in_sent+0xd6>
  400dce:	eb08 0305 	add.w	r3, r8, r5
  400dd2:	461f      	mov	r7, r3
  400dd4:	e018      	b.n	400e08 <udd_ctrl_in_sent+0x108>
  400dd6:	4b33      	ldr	r3, [pc, #204]	; (400ea4 <udd_ctrl_in_sent+0x1a4>)
  400dd8:	4798      	blx	r3
  400dda:	2304      	movs	r3, #4
  400ddc:	703b      	strb	r3, [r7, #0]
  400dde:	6b0b      	ldr	r3, [r1, #48]	; 0x30
  400de0:	9304      	str	r3, [sp, #16]
  400de2:	9b04      	ldr	r3, [sp, #16]
  400de4:	f043 034f 	orr.w	r3, r3, #79	; 0x4f
  400de8:	9304      	str	r3, [sp, #16]
  400dea:	9b04      	ldr	r3, [sp, #16]
  400dec:	f023 0301 	bic.w	r3, r3, #1
  400df0:	9304      	str	r3, [sp, #16]
  400df2:	9b04      	ldr	r3, [sp, #16]
  400df4:	630b      	str	r3, [r1, #48]	; 0x30
  400df6:	2300      	movs	r3, #0
  400df8:	9305      	str	r3, [sp, #20]
  400dfa:	9b05      	ldr	r3, [sp, #20]
  400dfc:	2b13      	cmp	r3, #19
  400dfe:	d83c      	bhi.n	400e7a <udd_ctrl_in_sent+0x17a>
  400e00:	bf00      	nop
  400e02:	9b05      	ldr	r3, [sp, #20]
  400e04:	3301      	adds	r3, #1
  400e06:	e7f7      	b.n	400df8 <udd_ctrl_in_sent+0xf8>
  400e08:	1af8      	subs	r0, r7, r3
  400e0a:	b2c0      	uxtb	r0, r0
  400e0c:	42a0      	cmp	r0, r4
  400e0e:	481d      	ldr	r0, [pc, #116]	; (400e84 <udd_ctrl_in_sent+0x184>)
  400e10:	d203      	bcs.n	400e1a <udd_ctrl_in_sent+0x11a>
  400e12:	f817 0b01 	ldrb.w	r0, [r7], #1
  400e16:	6508      	str	r0, [r1, #80]	; 0x50
  400e18:	e7f6      	b.n	400e08 <udd_ctrl_in_sent+0x108>
  400e1a:	442c      	add	r4, r5
  400e1c:	8034      	strh	r4, [r6, #0]
  400e1e:	6b03      	ldr	r3, [r0, #48]	; 0x30
  400e20:	9306      	str	r3, [sp, #24]
  400e22:	9b06      	ldr	r3, [sp, #24]
  400e24:	f043 034f 	orr.w	r3, r3, #79	; 0x4f
  400e28:	9306      	str	r3, [sp, #24]
  400e2a:	9b06      	ldr	r3, [sp, #24]
  400e2c:	f043 0310 	orr.w	r3, r3, #16
  400e30:	9306      	str	r3, [sp, #24]
  400e32:	9b06      	ldr	r3, [sp, #24]
  400e34:	6303      	str	r3, [r0, #48]	; 0x30
  400e36:	2300      	movs	r3, #0
  400e38:	9307      	str	r3, [sp, #28]
  400e3a:	9b07      	ldr	r3, [sp, #28]
  400e3c:	2b13      	cmp	r3, #19
  400e3e:	d803      	bhi.n	400e48 <udd_ctrl_in_sent+0x148>
  400e40:	bf00      	nop
  400e42:	9b07      	ldr	r3, [sp, #28]
  400e44:	3301      	adds	r3, #1
  400e46:	e7f7      	b.n	400e38 <udd_ctrl_in_sent+0x138>
  400e48:	490e      	ldr	r1, [pc, #56]	; (400e84 <udd_ctrl_in_sent+0x184>)
  400e4a:	6b0b      	ldr	r3, [r1, #48]	; 0x30
  400e4c:	9308      	str	r3, [sp, #32]
  400e4e:	9b08      	ldr	r3, [sp, #32]
  400e50:	f043 034f 	orr.w	r3, r3, #79	; 0x4f
  400e54:	9308      	str	r3, [sp, #32]
  400e56:	9b08      	ldr	r3, [sp, #32]
  400e58:	f023 0301 	bic.w	r3, r3, #1
  400e5c:	9308      	str	r3, [sp, #32]
  400e5e:	9b08      	ldr	r3, [sp, #32]
  400e60:	630b      	str	r3, [r1, #48]	; 0x30
  400e62:	2300      	movs	r3, #0
  400e64:	9309      	str	r3, [sp, #36]	; 0x24
  400e66:	9b09      	ldr	r3, [sp, #36]	; 0x24
  400e68:	2b13      	cmp	r3, #19
  400e6a:	d803      	bhi.n	400e74 <udd_ctrl_in_sent+0x174>
  400e6c:	bf00      	nop
  400e6e:	9b09      	ldr	r3, [sp, #36]	; 0x24
  400e70:	3301      	adds	r3, #1
  400e72:	e7f7      	b.n	400e64 <udd_ctrl_in_sent+0x164>
  400e74:	4610      	mov	r0, r2
  400e76:	4b0b      	ldr	r3, [pc, #44]	; (400ea4 <udd_ctrl_in_sent+0x1a4>)
  400e78:	4798      	blx	r3
  400e7a:	b00a      	add	sp, #40	; 0x28
  400e7c:	e8bd 81f0 	ldmia.w	sp!, {r4, r5, r6, r7, r8, pc}
  400e80:	2000033c 	.word	0x2000033c
  400e84:	40034000 	.word	0x40034000
  400e88:	004009f5 	.word	0x004009f5
  400e8c:	0040095d 	.word	0x0040095d
  400e90:	2000033a 	.word	0x2000033a
  400e94:	2000036c 	.word	0x2000036c
  400e98:	200002bc 	.word	0x200002bc
  400e9c:	20000339 	.word	0x20000339
  400ea0:	00400941 	.word	0x00400941
  400ea4:	00400c69 	.word	0x00400c69

00400ea8 <udd_ep_finish_job>:
  400ea8:	b430      	push	{r4, r5}
  400eaa:	7c43      	ldrb	r3, [r0, #17]
  400eac:	06dc      	lsls	r4, r3, #27
  400eae:	460d      	mov	r5, r1
  400eb0:	d515      	bpl.n	400ede <udd_ep_finish_job+0x36>
  400eb2:	6804      	ldr	r4, [r0, #0]
  400eb4:	f36f 1304 	bfc	r3, #4, #1
  400eb8:	7443      	strb	r3, [r0, #17]
  400eba:	b184      	cbz	r4, 400ede <udd_ep_finish_job+0x36>
  400ebc:	4909      	ldr	r1, [pc, #36]	; (400ee4 <udd_ep_finish_job+0x3c>)
  400ebe:	f102 030c 	add.w	r3, r2, #12
  400ec2:	f851 3023 	ldr.w	r3, [r1, r3, lsl #2]
  400ec6:	0559      	lsls	r1, r3, #21
  400ec8:	f105 33ff 	add.w	r3, r5, #4294967295
  400ecc:	bf48      	it	mi
  400ece:	f042 0280 	orrmi.w	r2, r2, #128	; 0x80
  400ed2:	6881      	ldr	r1, [r0, #8]
  400ed4:	4258      	negs	r0, r3
  400ed6:	4158      	adcs	r0, r3
  400ed8:	4623      	mov	r3, r4
  400eda:	bc30      	pop	{r4, r5}
  400edc:	4718      	bx	r3
  400ede:	bc30      	pop	{r4, r5}
  400ee0:	4770      	bx	lr
  400ee2:	bf00      	nop
  400ee4:	40034000 	.word	0x40034000

00400ee8 <UDP_Handler>:
  400ee8:	e92d 4ff0 	stmdb	sp!, {r4, r5, r6, r7, r8, r9, sl, fp, lr}
  400eec:	4b87      	ldr	r3, [pc, #540]	; (40110c <UDP_Handler+0x224>)
  400eee:	b0b3      	sub	sp, #204	; 0xcc
  400ef0:	4798      	blx	r3
  400ef2:	b958      	cbnz	r0, 400f0c <UDP_Handler+0x24>
  400ef4:	4b86      	ldr	r3, [pc, #536]	; (401110 <UDP_Handler+0x228>)
  400ef6:	69db      	ldr	r3, [r3, #28]
  400ef8:	f413 7380 	ands.w	r3, r3, #256	; 0x100
  400efc:	d106      	bne.n	400f0c <UDP_Handler+0x24>
  400efe:	b672      	cpsid	i
  400f00:	f3bf 8f5f 	dmb	sy
  400f04:	4a83      	ldr	r2, [pc, #524]	; (401114 <UDP_Handler+0x22c>)
  400f06:	7013      	strb	r3, [r2, #0]
  400f08:	f000 bc4a 	b.w	4017a0 <UDP_Handler+0x8b8>
  400f0c:	4b82      	ldr	r3, [pc, #520]	; (401118 <UDP_Handler+0x230>)
  400f0e:	2022      	movs	r0, #34	; 0x22
  400f10:	4798      	blx	r3
  400f12:	4b7f      	ldr	r3, [pc, #508]	; (401110 <UDP_Handler+0x228>)
  400f14:	699a      	ldr	r2, [r3, #24]
  400f16:	f412 6f00 	tst.w	r2, #2048	; 0x800
  400f1a:	461a      	mov	r2, r3
  400f1c:	d009      	beq.n	400f32 <UDP_Handler+0x4a>
  400f1e:	69d9      	ldr	r1, [r3, #28]
  400f20:	0509      	lsls	r1, r1, #20
  400f22:	d506      	bpl.n	400f32 <UDP_Handler+0x4a>
  400f24:	f44f 6200 	mov.w	r2, #2048	; 0x800
  400f28:	621a      	str	r2, [r3, #32]
  400f2a:	4b7c      	ldr	r3, [pc, #496]	; (40111c <UDP_Handler+0x234>)
  400f2c:	4798      	blx	r3
  400f2e:	f000 bc37 	b.w	4017a0 <UDP_Handler+0x8b8>
  400f32:	69d2      	ldr	r2, [r2, #28]
  400f34:	4b76      	ldr	r3, [pc, #472]	; (401110 <UDP_Handler+0x228>)
  400f36:	07d7      	lsls	r7, r2, #31
  400f38:	f140 81b5 	bpl.w	4012a6 <UDP_Handler+0x3be>
  400f3c:	6b1a      	ldr	r2, [r3, #48]	; 0x30
  400f3e:	0756      	lsls	r6, r2, #29
  400f40:	f140 809f 	bpl.w	401082 <UDP_Handler+0x19a>
  400f44:	4d76      	ldr	r5, [pc, #472]	; (401120 <UDP_Handler+0x238>)
  400f46:	782b      	ldrb	r3, [r5, #0]
  400f48:	b11b      	cbz	r3, 400f52 <UDP_Handler+0x6a>
  400f4a:	4b76      	ldr	r3, [pc, #472]	; (401124 <UDP_Handler+0x23c>)
  400f4c:	4798      	blx	r3
  400f4e:	4b76      	ldr	r3, [pc, #472]	; (401128 <UDP_Handler+0x240>)
  400f50:	4798      	blx	r3
  400f52:	4b6f      	ldr	r3, [pc, #444]	; (401110 <UDP_Handler+0x228>)
  400f54:	6b1a      	ldr	r2, [r3, #48]	; 0x30
  400f56:	f3c2 420a 	ubfx	r2, r2, #16, #11
  400f5a:	2a08      	cmp	r2, #8
  400f5c:	d016      	beq.n	400f8c <UDP_Handler+0xa4>
  400f5e:	6b1a      	ldr	r2, [r3, #48]	; 0x30
  400f60:	9204      	str	r2, [sp, #16]
  400f62:	9a04      	ldr	r2, [sp, #16]
  400f64:	f042 024f 	orr.w	r2, r2, #79	; 0x4f
  400f68:	9204      	str	r2, [sp, #16]
  400f6a:	9a04      	ldr	r2, [sp, #16]
  400f6c:	f022 0204 	bic.w	r2, r2, #4
  400f70:	9204      	str	r2, [sp, #16]
  400f72:	9a04      	ldr	r2, [sp, #16]
  400f74:	631a      	str	r2, [r3, #48]	; 0x30
  400f76:	2300      	movs	r3, #0
  400f78:	9305      	str	r3, [sp, #20]
  400f7a:	9b05      	ldr	r3, [sp, #20]
  400f7c:	2b13      	cmp	r3, #19
  400f7e:	d803      	bhi.n	400f88 <UDP_Handler+0xa0>
  400f80:	bf00      	nop
  400f82:	9b05      	ldr	r3, [sp, #20]
  400f84:	3301      	adds	r3, #1
  400f86:	e7f7      	b.n	400f78 <UDP_Handler+0x90>
  400f88:	4b68      	ldr	r3, [pc, #416]	; (40112c <UDP_Handler+0x244>)
  400f8a:	e058      	b.n	40103e <UDP_Handler+0x156>
  400f8c:	4968      	ldr	r1, [pc, #416]	; (401130 <UDP_Handler+0x248>)
  400f8e:	2200      	movs	r2, #0
  400f90:	6d18      	ldr	r0, [r3, #80]	; 0x50
  400f92:	4f67      	ldr	r7, [pc, #412]	; (401130 <UDP_Handler+0x248>)
  400f94:	5450      	strb	r0, [r2, r1]
  400f96:	3201      	adds	r2, #1
  400f98:	2a08      	cmp	r2, #8
  400f9a:	4c5d      	ldr	r4, [pc, #372]	; (401110 <UDP_Handler+0x228>)
  400f9c:	463e      	mov	r6, r7
  400f9e:	d1f7      	bne.n	400f90 <UDP_Handler+0xa8>
  400fa0:	4b64      	ldr	r3, [pc, #400]	; (401134 <UDP_Handler+0x24c>)
  400fa2:	4798      	blx	r3
  400fa4:	b9a0      	cbnz	r0, 400fd0 <UDP_Handler+0xe8>
  400fa6:	6b23      	ldr	r3, [r4, #48]	; 0x30
  400fa8:	9306      	str	r3, [sp, #24]
  400faa:	9b06      	ldr	r3, [sp, #24]
  400fac:	f043 034f 	orr.w	r3, r3, #79	; 0x4f
  400fb0:	9306      	str	r3, [sp, #24]
  400fb2:	9b06      	ldr	r3, [sp, #24]
  400fb4:	f023 0304 	bic.w	r3, r3, #4
  400fb8:	9306      	str	r3, [sp, #24]
  400fba:	9b06      	ldr	r3, [sp, #24]
  400fbc:	6323      	str	r3, [r4, #48]	; 0x30
  400fbe:	9007      	str	r0, [sp, #28]
  400fc0:	9b07      	ldr	r3, [sp, #28]
  400fc2:	2b13      	cmp	r3, #19
  400fc4:	d8e0      	bhi.n	400f88 <UDP_Handler+0xa0>
  400fc6:	bf00      	nop
  400fc8:	9b07      	ldr	r3, [sp, #28]
  400fca:	3301      	adds	r3, #1
  400fcc:	9307      	str	r3, [sp, #28]
  400fce:	e7f7      	b.n	400fc0 <UDP_Handler+0xd8>
  400fd0:	f997 3000 	ldrsb.w	r3, [r7]
  400fd4:	2b00      	cmp	r3, #0
  400fd6:	6b23      	ldr	r3, [r4, #48]	; 0x30
  400fd8:	da33      	bge.n	401042 <UDP_Handler+0x15a>
  400fda:	9308      	str	r3, [sp, #32]
  400fdc:	9b08      	ldr	r3, [sp, #32]
  400fde:	f043 034f 	orr.w	r3, r3, #79	; 0x4f
  400fe2:	9308      	str	r3, [sp, #32]
  400fe4:	9b08      	ldr	r3, [sp, #32]
  400fe6:	f043 0380 	orr.w	r3, r3, #128	; 0x80
  400fea:	9308      	str	r3, [sp, #32]
  400fec:	9b08      	ldr	r3, [sp, #32]
  400fee:	6323      	str	r3, [r4, #48]	; 0x30
  400ff0:	2300      	movs	r3, #0
  400ff2:	9309      	str	r3, [sp, #36]	; 0x24
  400ff4:	9b09      	ldr	r3, [sp, #36]	; 0x24
  400ff6:	2b13      	cmp	r3, #19
  400ff8:	d803      	bhi.n	401002 <UDP_Handler+0x11a>
  400ffa:	bf00      	nop
  400ffc:	9b09      	ldr	r3, [sp, #36]	; 0x24
  400ffe:	3301      	adds	r3, #1
  401000:	e7f7      	b.n	400ff2 <UDP_Handler+0x10a>
  401002:	4a43      	ldr	r2, [pc, #268]	; (401110 <UDP_Handler+0x228>)
  401004:	6b13      	ldr	r3, [r2, #48]	; 0x30
  401006:	930a      	str	r3, [sp, #40]	; 0x28
  401008:	9b0a      	ldr	r3, [sp, #40]	; 0x28
  40100a:	f043 034f 	orr.w	r3, r3, #79	; 0x4f
  40100e:	930a      	str	r3, [sp, #40]	; 0x28
  401010:	9b0a      	ldr	r3, [sp, #40]	; 0x28
  401012:	f023 0304 	bic.w	r3, r3, #4
  401016:	930a      	str	r3, [sp, #40]	; 0x28
  401018:	9b0a      	ldr	r3, [sp, #40]	; 0x28
  40101a:	6313      	str	r3, [r2, #48]	; 0x30
  40101c:	2300      	movs	r3, #0
  40101e:	930b      	str	r3, [sp, #44]	; 0x2c
  401020:	9b0b      	ldr	r3, [sp, #44]	; 0x2c
  401022:	2b13      	cmp	r3, #19
  401024:	d803      	bhi.n	40102e <UDP_Handler+0x146>
  401026:	bf00      	nop
  401028:	9b0b      	ldr	r3, [sp, #44]	; 0x2c
  40102a:	3301      	adds	r3, #1
  40102c:	e7f7      	b.n	40101e <UDP_Handler+0x136>
  40102e:	4a42      	ldr	r2, [pc, #264]	; (401138 <UDP_Handler+0x250>)
  401030:	2300      	movs	r3, #0
  401032:	8013      	strh	r3, [r2, #0]
  401034:	4a41      	ldr	r2, [pc, #260]	; (40113c <UDP_Handler+0x254>)
  401036:	8013      	strh	r3, [r2, #0]
  401038:	2302      	movs	r3, #2
  40103a:	702b      	strb	r3, [r5, #0]
  40103c:	4b40      	ldr	r3, [pc, #256]	; (401140 <UDP_Handler+0x258>)
  40103e:	4798      	blx	r3
  401040:	e3ae      	b.n	4017a0 <UDP_Handler+0x8b8>
  401042:	930c      	str	r3, [sp, #48]	; 0x30
  401044:	9b0c      	ldr	r3, [sp, #48]	; 0x30
  401046:	f043 034f 	orr.w	r3, r3, #79	; 0x4f
  40104a:	930c      	str	r3, [sp, #48]	; 0x30
  40104c:	9b0c      	ldr	r3, [sp, #48]	; 0x30
  40104e:	f023 0304 	bic.w	r3, r3, #4
  401052:	930c      	str	r3, [sp, #48]	; 0x30
  401054:	9b0c      	ldr	r3, [sp, #48]	; 0x30
  401056:	6323      	str	r3, [r4, #48]	; 0x30
  401058:	2300      	movs	r3, #0
  40105a:	930d      	str	r3, [sp, #52]	; 0x34
  40105c:	9b0d      	ldr	r3, [sp, #52]	; 0x34
  40105e:	2b13      	cmp	r3, #19
  401060:	d803      	bhi.n	40106a <UDP_Handler+0x182>
  401062:	bf00      	nop
  401064:	9b0d      	ldr	r3, [sp, #52]	; 0x34
  401066:	3301      	adds	r3, #1
  401068:	e7f7      	b.n	40105a <UDP_Handler+0x172>
  40106a:	88f3      	ldrh	r3, [r6, #6]
  40106c:	b90b      	cbnz	r3, 401072 <UDP_Handler+0x18a>
  40106e:	4b35      	ldr	r3, [pc, #212]	; (401144 <UDP_Handler+0x25c>)
  401070:	e7e5      	b.n	40103e <UDP_Handler+0x156>
  401072:	4a31      	ldr	r2, [pc, #196]	; (401138 <UDP_Handler+0x250>)
  401074:	2300      	movs	r3, #0
  401076:	8013      	strh	r3, [r2, #0]
  401078:	4a30      	ldr	r2, [pc, #192]	; (40113c <UDP_Handler+0x254>)
  40107a:	8013      	strh	r3, [r2, #0]
  40107c:	2301      	movs	r3, #1
  40107e:	702b      	strb	r3, [r5, #0]
  401080:	e38e      	b.n	4017a0 <UDP_Handler+0x8b8>
  401082:	6b1a      	ldr	r2, [r3, #48]	; 0x30
  401084:	07d5      	lsls	r5, r2, #31
  401086:	d4d9      	bmi.n	40103c <UDP_Handler+0x154>
  401088:	6b1a      	ldr	r2, [r3, #48]	; 0x30
  40108a:	f012 0202 	ands.w	r2, r2, #2
  40108e:	f000 80f1 	beq.w	401274 <UDP_Handler+0x38c>
  401092:	4a23      	ldr	r2, [pc, #140]	; (401120 <UDP_Handler+0x238>)
  401094:	7812      	ldrb	r2, [r2, #0]
  401096:	2a01      	cmp	r2, #1
  401098:	d01f      	beq.n	4010da <UDP_Handler+0x1f2>
  40109a:	2a02      	cmp	r2, #2
  40109c:	d001      	beq.n	4010a2 <UDP_Handler+0x1ba>
  40109e:	2a04      	cmp	r2, #4
  4010a0:	d101      	bne.n	4010a6 <UDP_Handler+0x1be>
  4010a2:	4b20      	ldr	r3, [pc, #128]	; (401124 <UDP_Handler+0x23c>)
  4010a4:	e000      	b.n	4010a8 <UDP_Handler+0x1c0>
  4010a6:	4b21      	ldr	r3, [pc, #132]	; (40112c <UDP_Handler+0x244>)
  4010a8:	4798      	blx	r3
  4010aa:	4a19      	ldr	r2, [pc, #100]	; (401110 <UDP_Handler+0x228>)
  4010ac:	6b13      	ldr	r3, [r2, #48]	; 0x30
  4010ae:	930e      	str	r3, [sp, #56]	; 0x38
  4010b0:	9b0e      	ldr	r3, [sp, #56]	; 0x38
  4010b2:	f043 034f 	orr.w	r3, r3, #79	; 0x4f
  4010b6:	930e      	str	r3, [sp, #56]	; 0x38
  4010b8:	9b0e      	ldr	r3, [sp, #56]	; 0x38
  4010ba:	f023 0302 	bic.w	r3, r3, #2
  4010be:	930e      	str	r3, [sp, #56]	; 0x38
  4010c0:	9b0e      	ldr	r3, [sp, #56]	; 0x38
  4010c2:	6313      	str	r3, [r2, #48]	; 0x30
  4010c4:	2300      	movs	r3, #0
  4010c6:	930f      	str	r3, [sp, #60]	; 0x3c
  4010c8:	9b0f      	ldr	r3, [sp, #60]	; 0x3c
  4010ca:	2b13      	cmp	r3, #19
  4010cc:	d803      	bhi.n	4010d6 <UDP_Handler+0x1ee>
  4010ce:	bf00      	nop
  4010d0:	9b0f      	ldr	r3, [sp, #60]	; 0x3c
  4010d2:	3301      	adds	r3, #1
  4010d4:	e7f7      	b.n	4010c6 <UDP_Handler+0x1de>
  4010d6:	4b14      	ldr	r3, [pc, #80]	; (401128 <UDP_Handler+0x240>)
  4010d8:	e7b1      	b.n	40103e <UDP_Handler+0x156>
  4010da:	4e18      	ldr	r6, [pc, #96]	; (40113c <UDP_Handler+0x254>)
  4010dc:	6b1a      	ldr	r2, [r3, #48]	; 0x30
  4010de:	4814      	ldr	r0, [pc, #80]	; (401130 <UDP_Handler+0x248>)
  4010e0:	8833      	ldrh	r3, [r6, #0]
  4010e2:	8981      	ldrh	r1, [r0, #12]
  4010e4:	4f0a      	ldr	r7, [pc, #40]	; (401110 <UDP_Handler+0x228>)
  4010e6:	f3c2 420a 	ubfx	r2, r2, #16, #11
  4010ea:	189c      	adds	r4, r3, r2
  4010ec:	42a1      	cmp	r1, r4
  4010ee:	bfb8      	it	lt
  4010f0:	1aca      	sublt	r2, r1, r3
  4010f2:	6881      	ldr	r1, [r0, #8]
  4010f4:	4419      	add	r1, r3
  4010f6:	b292      	uxth	r2, r2
  4010f8:	460d      	mov	r5, r1
  4010fa:	1a6c      	subs	r4, r5, r1
  4010fc:	b2e4      	uxtb	r4, r4
  4010fe:	4294      	cmp	r4, r2
  401100:	d222      	bcs.n	401148 <UDP_Handler+0x260>
  401102:	6d3c      	ldr	r4, [r7, #80]	; 0x50
  401104:	f805 4b01 	strb.w	r4, [r5], #1
  401108:	e7f7      	b.n	4010fa <UDP_Handler+0x212>
  40110a:	bf00      	nop
  40110c:	00402699 	.word	0x00402699
  401110:	40034000 	.word	0x40034000
  401114:	20000160 	.word	0x20000160
  401118:	0040231d 	.word	0x0040231d
  40111c:	0040036d 	.word	0x0040036d
  401120:	2000033c 	.word	0x2000033c
  401124:	004009f5 	.word	0x004009f5
  401128:	0040095d 	.word	0x0040095d
  40112c:	00400975 	.word	0x00400975
  401130:	2000036c 	.word	0x2000036c
  401134:	004003a1 	.word	0x004003a1
  401138:	200002bc 	.word	0x200002bc
  40113c:	2000033a 	.word	0x2000033a
  401140:	00400d01 	.word	0x00400d01
  401144:	004009b5 	.word	0x004009b5
  401148:	4413      	add	r3, r2
  40114a:	b29b      	uxth	r3, r3
  40114c:	2a40      	cmp	r2, #64	; 0x40
  40114e:	4da1      	ldr	r5, [pc, #644]	; (4013d4 <UDP_Handler+0x4ec>)
  401150:	8033      	strh	r3, [r6, #0]
  401152:	d106      	bne.n	401162 <UDP_Handler+0x27a>
  401154:	4ea0      	ldr	r6, [pc, #640]	; (4013d8 <UDP_Handler+0x4f0>)
  401156:	88c4      	ldrh	r4, [r0, #6]
  401158:	8832      	ldrh	r2, [r6, #0]
  40115a:	49a0      	ldr	r1, [pc, #640]	; (4013dc <UDP_Handler+0x4f4>)
  40115c:	441a      	add	r2, r3
  40115e:	4294      	cmp	r4, r2
  401160:	dc33      	bgt.n	4011ca <UDP_Handler+0x2e2>
  401162:	8183      	strh	r3, [r0, #12]
  401164:	6943      	ldr	r3, [r0, #20]
  401166:	4c9e      	ldr	r4, [pc, #632]	; (4013e0 <UDP_Handler+0x4f8>)
  401168:	b1cb      	cbz	r3, 40119e <UDP_Handler+0x2b6>
  40116a:	4798      	blx	r3
  40116c:	b9b8      	cbnz	r0, 40119e <UDP_Handler+0x2b6>
  40116e:	4b9d      	ldr	r3, [pc, #628]	; (4013e4 <UDP_Handler+0x4fc>)
  401170:	4798      	blx	r3
  401172:	6b23      	ldr	r3, [r4, #48]	; 0x30
  401174:	9310      	str	r3, [sp, #64]	; 0x40
  401176:	9b10      	ldr	r3, [sp, #64]	; 0x40
  401178:	f043 034f 	orr.w	r3, r3, #79	; 0x4f
  40117c:	9310      	str	r3, [sp, #64]	; 0x40
  40117e:	9b10      	ldr	r3, [sp, #64]	; 0x40
  401180:	f023 0302 	bic.w	r3, r3, #2
  401184:	9310      	str	r3, [sp, #64]	; 0x40
  401186:	9b10      	ldr	r3, [sp, #64]	; 0x40
  401188:	6323      	str	r3, [r4, #48]	; 0x30
  40118a:	9011      	str	r0, [sp, #68]	; 0x44
  40118c:	9b11      	ldr	r3, [sp, #68]	; 0x44
  40118e:	2b13      	cmp	r3, #19
  401190:	f200 8306 	bhi.w	4017a0 <UDP_Handler+0x8b8>
  401194:	bf00      	nop
  401196:	9b11      	ldr	r3, [sp, #68]	; 0x44
  401198:	3301      	adds	r3, #1
  40119a:	9311      	str	r3, [sp, #68]	; 0x44
  40119c:	e7f6      	b.n	40118c <UDP_Handler+0x2a4>
  40119e:	6b23      	ldr	r3, [r4, #48]	; 0x30
  4011a0:	9312      	str	r3, [sp, #72]	; 0x48
  4011a2:	9b12      	ldr	r3, [sp, #72]	; 0x48
  4011a4:	f043 034f 	orr.w	r3, r3, #79	; 0x4f
  4011a8:	9312      	str	r3, [sp, #72]	; 0x48
  4011aa:	9b12      	ldr	r3, [sp, #72]	; 0x48
  4011ac:	f023 0302 	bic.w	r3, r3, #2
  4011b0:	9312      	str	r3, [sp, #72]	; 0x48
  4011b2:	9b12      	ldr	r3, [sp, #72]	; 0x48
  4011b4:	6323      	str	r3, [r4, #48]	; 0x30
  4011b6:	2300      	movs	r3, #0
  4011b8:	9313      	str	r3, [sp, #76]	; 0x4c
  4011ba:	9b13      	ldr	r3, [sp, #76]	; 0x4c
  4011bc:	2b13      	cmp	r3, #19
  4011be:	f63f af56 	bhi.w	40106e <UDP_Handler+0x186>
  4011c2:	bf00      	nop
  4011c4:	9b13      	ldr	r3, [sp, #76]	; 0x4c
  4011c6:	3301      	adds	r3, #1
  4011c8:	e7f6      	b.n	4011b8 <UDP_Handler+0x2d0>
  4011ca:	898a      	ldrh	r2, [r1, #12]
  4011cc:	429a      	cmp	r2, r3
  4011ce:	d13a      	bne.n	401246 <UDP_Handler+0x35e>
  4011d0:	6949      	ldr	r1, [r1, #20]
  4011d2:	4c83      	ldr	r4, [pc, #524]	; (4013e0 <UDP_Handler+0x4f8>)
  4011d4:	b9b9      	cbnz	r1, 401206 <UDP_Handler+0x31e>
  4011d6:	4b83      	ldr	r3, [pc, #524]	; (4013e4 <UDP_Handler+0x4fc>)
  4011d8:	4798      	blx	r3
  4011da:	6b23      	ldr	r3, [r4, #48]	; 0x30
  4011dc:	9314      	str	r3, [sp, #80]	; 0x50
  4011de:	9b14      	ldr	r3, [sp, #80]	; 0x50
  4011e0:	f043 034f 	orr.w	r3, r3, #79	; 0x4f
  4011e4:	9314      	str	r3, [sp, #80]	; 0x50
  4011e6:	9b14      	ldr	r3, [sp, #80]	; 0x50
  4011e8:	f023 0302 	bic.w	r3, r3, #2
  4011ec:	9314      	str	r3, [sp, #80]	; 0x50
  4011ee:	9b14      	ldr	r3, [sp, #80]	; 0x50
  4011f0:	6323      	str	r3, [r4, #48]	; 0x30
  4011f2:	9115      	str	r1, [sp, #84]	; 0x54
  4011f4:	9b15      	ldr	r3, [sp, #84]	; 0x54
  4011f6:	2b13      	cmp	r3, #19
  4011f8:	f200 82d2 	bhi.w	4017a0 <UDP_Handler+0x8b8>
  4011fc:	bf00      	nop
  4011fe:	9b15      	ldr	r3, [sp, #84]	; 0x54
  401200:	3301      	adds	r3, #1
  401202:	9315      	str	r3, [sp, #84]	; 0x54
  401204:	e7f6      	b.n	4011f4 <UDP_Handler+0x30c>
  401206:	4788      	blx	r1
  401208:	b9b8      	cbnz	r0, 40123a <UDP_Handler+0x352>
  40120a:	4b76      	ldr	r3, [pc, #472]	; (4013e4 <UDP_Handler+0x4fc>)
  40120c:	4798      	blx	r3
  40120e:	6b23      	ldr	r3, [r4, #48]	; 0x30
  401210:	9316      	str	r3, [sp, #88]	; 0x58
  401212:	9b16      	ldr	r3, [sp, #88]	; 0x58
  401214:	f043 034f 	orr.w	r3, r3, #79	; 0x4f
  401218:	9316      	str	r3, [sp, #88]	; 0x58
  40121a:	9b16      	ldr	r3, [sp, #88]	; 0x58
  40121c:	f023 0302 	bic.w	r3, r3, #2
  401220:	9316      	str	r3, [sp, #88]	; 0x58
  401222:	9b16      	ldr	r3, [sp, #88]	; 0x58
  401224:	6323      	str	r3, [r4, #48]	; 0x30
  401226:	9017      	str	r0, [sp, #92]	; 0x5c
  401228:	9b17      	ldr	r3, [sp, #92]	; 0x5c
  40122a:	2b13      	cmp	r3, #19
  40122c:	f200 82b8 	bhi.w	4017a0 <UDP_Handler+0x8b8>
  401230:	bf00      	nop
  401232:	9b17      	ldr	r3, [sp, #92]	; 0x5c
  401234:	3301      	adds	r3, #1
  401236:	9317      	str	r3, [sp, #92]	; 0x5c
  401238:	e7f6      	b.n	401228 <UDP_Handler+0x340>
  40123a:	8832      	ldrh	r2, [r6, #0]
  40123c:	882b      	ldrh	r3, [r5, #0]
  40123e:	4413      	add	r3, r2
  401240:	8033      	strh	r3, [r6, #0]
  401242:	2300      	movs	r3, #0
  401244:	802b      	strh	r3, [r5, #0]
  401246:	4a66      	ldr	r2, [pc, #408]	; (4013e0 <UDP_Handler+0x4f8>)
  401248:	6b13      	ldr	r3, [r2, #48]	; 0x30
  40124a:	9318      	str	r3, [sp, #96]	; 0x60
  40124c:	9b18      	ldr	r3, [sp, #96]	; 0x60
  40124e:	f043 034f 	orr.w	r3, r3, #79	; 0x4f
  401252:	9318      	str	r3, [sp, #96]	; 0x60
  401254:	9b18      	ldr	r3, [sp, #96]	; 0x60
  401256:	f023 0302 	bic.w	r3, r3, #2
  40125a:	9318      	str	r3, [sp, #96]	; 0x60
  40125c:	9b18      	ldr	r3, [sp, #96]	; 0x60
  40125e:	6313      	str	r3, [r2, #48]	; 0x30
  401260:	2300      	movs	r3, #0
  401262:	9319      	str	r3, [sp, #100]	; 0x64
  401264:	9b19      	ldr	r3, [sp, #100]	; 0x64
  401266:	2b13      	cmp	r3, #19
  401268:	f200 829a 	bhi.w	4017a0 <UDP_Handler+0x8b8>
  40126c:	bf00      	nop
  40126e:	9b19      	ldr	r3, [sp, #100]	; 0x64
  401270:	3301      	adds	r3, #1
  401272:	e7f6      	b.n	401262 <UDP_Handler+0x37a>
  401274:	6b19      	ldr	r1, [r3, #48]	; 0x30
  401276:	070c      	lsls	r4, r1, #28
  401278:	d515      	bpl.n	4012a6 <UDP_Handler+0x3be>
  40127a:	6b19      	ldr	r1, [r3, #48]	; 0x30
  40127c:	9102      	str	r1, [sp, #8]
  40127e:	9902      	ldr	r1, [sp, #8]
  401280:	f041 014f 	orr.w	r1, r1, #79	; 0x4f
  401284:	9102      	str	r1, [sp, #8]
  401286:	9902      	ldr	r1, [sp, #8]
  401288:	f021 0108 	bic.w	r1, r1, #8
  40128c:	9102      	str	r1, [sp, #8]
  40128e:	9902      	ldr	r1, [sp, #8]
  401290:	6319      	str	r1, [r3, #48]	; 0x30
  401292:	9203      	str	r2, [sp, #12]
  401294:	9b03      	ldr	r3, [sp, #12]
  401296:	2b13      	cmp	r3, #19
  401298:	f200 8282 	bhi.w	4017a0 <UDP_Handler+0x8b8>
  40129c:	bf00      	nop
  40129e:	9b03      	ldr	r3, [sp, #12]
  4012a0:	3301      	adds	r3, #1
  4012a2:	9303      	str	r3, [sp, #12]
  4012a4:	e7f6      	b.n	401294 <UDP_Handler+0x3ac>
  4012a6:	f8df a140 	ldr.w	sl, [pc, #320]	; 4013e8 <UDP_Handler+0x500>
  4012aa:	2301      	movs	r3, #1
  4012ac:	f04f 0c01 	mov.w	ip, #1
  4012b0:	f04f 0b14 	mov.w	fp, #20
  4012b4:	4a4a      	ldr	r2, [pc, #296]	; (4013e0 <UDP_Handler+0x4f8>)
  4012b6:	6992      	ldr	r2, [r2, #24]
  4012b8:	fa0c f903 	lsl.w	r9, ip, r3
  4012bc:	ea12 0f09 	tst.w	r2, r9
  4012c0:	b2dd      	uxtb	r5, r3
  4012c2:	f000 81b5 	beq.w	401630 <UDP_Handler+0x748>
  4012c6:	009c      	lsls	r4, r3, #2
  4012c8:	f104 2440 	add.w	r4, r4, #1073758208	; 0x40004000
  4012cc:	f504 3440 	add.w	r4, r4, #196608	; 0x30000
  4012d0:	4a45      	ldr	r2, [pc, #276]	; (4013e8 <UDP_Handler+0x500>)
  4012d2:	6b20      	ldr	r0, [r4, #48]	; 0x30
  4012d4:	fb0b a803 	mla	r8, fp, r3, sl
  4012d8:	f010 0e42 	ands.w	lr, r0, #66	; 0x42
  4012dc:	f103 36ff 	add.w	r6, r3, #4294967295
  4012e0:	f04f 0114 	mov.w	r1, #20
  4012e4:	f1a8 0814 	sub.w	r8, r8, #20
  4012e8:	4617      	mov	r7, r2
  4012ea:	d041      	beq.n	401370 <UDP_Handler+0x488>
  4012ec:	fb01 2106 	mla	r1, r1, r6, r2
  4012f0:	6b23      	ldr	r3, [r4, #48]	; 0x30
  4012f2:	f8b1 b010 	ldrh.w	fp, [r1, #16]
  4012f6:	f3c3 4a0a 	ubfx	sl, r3, #16, #11
  4012fa:	f3cb 0b09 	ubfx	fp, fp, #0, #10
  4012fe:	f1ba 0f00 	cmp.w	sl, #0
  401302:	d019      	beq.n	401338 <UDP_Handler+0x450>
  401304:	68c8      	ldr	r0, [r1, #12]
  401306:	688b      	ldr	r3, [r1, #8]
  401308:	f04f 0e14 	mov.w	lr, #20
  40130c:	fb0e 2e06 	mla	lr, lr, r6, r2
  401310:	1a1b      	subs	r3, r3, r0
  401312:	4553      	cmp	r3, sl
  401314:	f8de 2004 	ldr.w	r2, [lr, #4]
  401318:	bf88      	it	hi
  40131a:	4653      	movhi	r3, sl
  40131c:	4402      	add	r2, r0
  40131e:	4418      	add	r0, r3
  401320:	bf8c      	ite	hi
  401322:	2100      	movhi	r1, #0
  401324:	2101      	movls	r1, #1
  401326:	f8ce 000c 	str.w	r0, [lr, #12]
  40132a:	4413      	add	r3, r2
  40132c:	429a      	cmp	r2, r3
  40132e:	d004      	beq.n	40133a <UDP_Handler+0x452>
  401330:	6d20      	ldr	r0, [r4, #80]	; 0x50
  401332:	f802 0b01 	strb.w	r0, [r2], #1
  401336:	e7f9      	b.n	40132c <UDP_Handler+0x444>
  401338:	4651      	mov	r1, sl
  40133a:	4628      	mov	r0, r5
  40133c:	4b2b      	ldr	r3, [pc, #172]	; (4013ec <UDP_Handler+0x504>)
  40133e:	9101      	str	r1, [sp, #4]
  401340:	4798      	blx	r3
  401342:	9901      	ldr	r1, [sp, #4]
  401344:	b911      	cbnz	r1, 40134c <UDP_Handler+0x464>
  401346:	45d3      	cmp	fp, sl
  401348:	f240 822a 	bls.w	4017a0 <UDP_Handler+0x8b8>
  40134c:	6b21      	ldr	r1, [r4, #48]	; 0x30
  40134e:	f011 0120 	ands.w	r1, r1, #32
  401352:	f040 8225 	bne.w	4017a0 <UDP_Handler+0x8b8>
  401356:	4b22      	ldr	r3, [pc, #136]	; (4013e0 <UDP_Handler+0x4f8>)
  401358:	f8c3 9014 	str.w	r9, [r3, #20]
  40135c:	2314      	movs	r3, #20
  40135e:	fb03 7606 	mla	r6, r3, r6, r7
  401362:	462a      	mov	r2, r5
  401364:	68f3      	ldr	r3, [r6, #12]
  401366:	60b3      	str	r3, [r6, #8]
  401368:	4640      	mov	r0, r8
  40136a:	4b21      	ldr	r3, [pc, #132]	; (4013f0 <UDP_Handler+0x508>)
  40136c:	4798      	blx	r3
  40136e:	e217      	b.n	4017a0 <UDP_Handler+0x8b8>
  401370:	6b20      	ldr	r0, [r4, #48]	; 0x30
  401372:	f010 0001 	ands.w	r0, r0, #1
  401376:	f000 813a 	beq.w	4015ee <UDP_Handler+0x706>
  40137a:	fb01 2206 	mla	r2, r1, r6, r2
  40137e:	f102 0c10 	add.w	ip, r2, #16
  401382:	f89c 3001 	ldrb.w	r3, [ip, #1]
  401386:	f3c3 0081 	ubfx	r0, r3, #2, #2
  40138a:	3003      	adds	r0, #3
  40138c:	f360 0383 	bfi	r3, r0, #2, #2
  401390:	f88c 3001 	strb.w	r3, [ip, #1]
  401394:	7c53      	ldrb	r3, [r2, #17]
  401396:	f003 0020 	and.w	r0, r3, #32
  40139a:	f000 01ff 	and.w	r1, r0, #255	; 0xff
  40139e:	2800      	cmp	r0, #0
  4013a0:	d06f      	beq.n	401482 <UDP_Handler+0x59a>
  4013a2:	f013 030c 	ands.w	r3, r3, #12
  4013a6:	d03b      	beq.n	401420 <UDP_Handler+0x538>
  4013a8:	6b23      	ldr	r3, [r4, #48]	; 0x30
  4013aa:	931a      	str	r3, [sp, #104]	; 0x68
  4013ac:	9b1a      	ldr	r3, [sp, #104]	; 0x68
  4013ae:	f043 034f 	orr.w	r3, r3, #79	; 0x4f
  4013b2:	931a      	str	r3, [sp, #104]	; 0x68
  4013b4:	9b1a      	ldr	r3, [sp, #104]	; 0x68
  4013b6:	f043 0310 	orr.w	r3, r3, #16
  4013ba:	931a      	str	r3, [sp, #104]	; 0x68
  4013bc:	9b1a      	ldr	r3, [sp, #104]	; 0x68
  4013be:	6323      	str	r3, [r4, #48]	; 0x30
  4013c0:	f8cd e06c 	str.w	lr, [sp, #108]	; 0x6c
  4013c4:	9b1b      	ldr	r3, [sp, #108]	; 0x6c
  4013c6:	2b13      	cmp	r3, #19
  4013c8:	d814      	bhi.n	4013f4 <UDP_Handler+0x50c>
  4013ca:	bf00      	nop
  4013cc:	9b1b      	ldr	r3, [sp, #108]	; 0x6c
  4013ce:	3301      	adds	r3, #1
  4013d0:	931b      	str	r3, [sp, #108]	; 0x6c
  4013d2:	e7f7      	b.n	4013c4 <UDP_Handler+0x4dc>
  4013d4:	2000033a 	.word	0x2000033a
  4013d8:	200002bc 	.word	0x200002bc
  4013dc:	2000036c 	.word	0x2000036c
  4013e0:	40034000 	.word	0x40034000
  4013e4:	00400975 	.word	0x00400975
  4013e8:	200002c0 	.word	0x200002c0
  4013ec:	00400a05 	.word	0x00400a05
  4013f0:	00400ea9 	.word	0x00400ea9
  4013f4:	6b23      	ldr	r3, [r4, #48]	; 0x30
  4013f6:	931c      	str	r3, [sp, #112]	; 0x70
  4013f8:	9b1c      	ldr	r3, [sp, #112]	; 0x70
  4013fa:	f043 034f 	orr.w	r3, r3, #79	; 0x4f
  4013fe:	931c      	str	r3, [sp, #112]	; 0x70
  401400:	9b1c      	ldr	r3, [sp, #112]	; 0x70
  401402:	f023 0301 	bic.w	r3, r3, #1
  401406:	931c      	str	r3, [sp, #112]	; 0x70
  401408:	9b1c      	ldr	r3, [sp, #112]	; 0x70
  40140a:	6323      	str	r3, [r4, #48]	; 0x30
  40140c:	2300      	movs	r3, #0
  40140e:	931d      	str	r3, [sp, #116]	; 0x74
  401410:	9b1d      	ldr	r3, [sp, #116]	; 0x74
  401412:	2b13      	cmp	r3, #19
  401414:	f200 81c4 	bhi.w	4017a0 <UDP_Handler+0x8b8>
  401418:	bf00      	nop
  40141a:	9b1d      	ldr	r3, [sp, #116]	; 0x74
  40141c:	3301      	adds	r3, #1
  40141e:	e7f6      	b.n	40140e <UDP_Handler+0x526>
  401420:	6b22      	ldr	r2, [r4, #48]	; 0x30
  401422:	921e      	str	r2, [sp, #120]	; 0x78
  401424:	9a1e      	ldr	r2, [sp, #120]	; 0x78
  401426:	f042 024f 	orr.w	r2, r2, #79	; 0x4f
  40142a:	921e      	str	r2, [sp, #120]	; 0x78
  40142c:	9a1e      	ldr	r2, [sp, #120]	; 0x78
  40142e:	f022 0201 	bic.w	r2, r2, #1
  401432:	921e      	str	r2, [sp, #120]	; 0x78
  401434:	9a1e      	ldr	r2, [sp, #120]	; 0x78
  401436:	6322      	str	r2, [r4, #48]	; 0x30
  401438:	931f      	str	r3, [sp, #124]	; 0x7c
  40143a:	9b1f      	ldr	r3, [sp, #124]	; 0x7c
  40143c:	2b13      	cmp	r3, #19
  40143e:	d803      	bhi.n	401448 <UDP_Handler+0x560>
  401440:	bf00      	nop
  401442:	9b1f      	ldr	r3, [sp, #124]	; 0x7c
  401444:	3301      	adds	r3, #1
  401446:	e7f7      	b.n	401438 <UDP_Handler+0x550>
  401448:	6b23      	ldr	r3, [r4, #48]	; 0x30
  40144a:	9320      	str	r3, [sp, #128]	; 0x80
  40144c:	9b20      	ldr	r3, [sp, #128]	; 0x80
  40144e:	f043 034f 	orr.w	r3, r3, #79	; 0x4f
  401452:	9320      	str	r3, [sp, #128]	; 0x80
  401454:	9b20      	ldr	r3, [sp, #128]	; 0x80
  401456:	f043 0320 	orr.w	r3, r3, #32
  40145a:	9320      	str	r3, [sp, #128]	; 0x80
  40145c:	9b20      	ldr	r3, [sp, #128]	; 0x80
  40145e:	6323      	str	r3, [r4, #48]	; 0x30
  401460:	2300      	movs	r3, #0
  401462:	9321      	str	r3, [sp, #132]	; 0x84
  401464:	9b21      	ldr	r3, [sp, #132]	; 0x84
  401466:	2b13      	cmp	r3, #19
  401468:	d803      	bhi.n	401472 <UDP_Handler+0x58a>
  40146a:	bf00      	nop
  40146c:	9b21      	ldr	r3, [sp, #132]	; 0x84
  40146e:	3301      	adds	r3, #1
  401470:	e7f7      	b.n	401462 <UDP_Handler+0x57a>
  401472:	2314      	movs	r3, #20
  401474:	fb03 7606 	mla	r6, r3, r6, r7
  401478:	7c73      	ldrb	r3, [r6, #17]
  40147a:	f36f 1345 	bfc	r3, #5, #1
  40147e:	7473      	strb	r3, [r6, #17]
  401480:	e18e      	b.n	4017a0 <UDP_Handler+0x8b8>
  401482:	0618      	lsls	r0, r3, #24
  401484:	d50b      	bpl.n	40149e <UDP_Handler+0x5b6>
  401486:	f89c 3001 	ldrb.w	r3, [ip, #1]
  40148a:	f361 13c7 	bfi	r3, r1, #7, #1
  40148e:	f88c 3001 	strb.w	r3, [ip, #1]
  401492:	68d3      	ldr	r3, [r2, #12]
  401494:	6093      	str	r3, [r2, #8]
  401496:	4640      	mov	r0, r8
  401498:	462a      	mov	r2, r5
  40149a:	4b87      	ldr	r3, [pc, #540]	; (4016b8 <UDP_Handler+0x7d0>)
  40149c:	4798      	blx	r3
  40149e:	2314      	movs	r3, #20
  4014a0:	fb03 7306 	mla	r3, r3, r6, r7
  4014a4:	68d9      	ldr	r1, [r3, #12]
  4014a6:	689a      	ldr	r2, [r3, #8]
  4014a8:	4291      	cmp	r1, r2
  4014aa:	d320      	bcc.n	4014ee <UDP_Handler+0x606>
  4014ac:	7c5b      	ldrb	r3, [r3, #17]
  4014ae:	f013 014c 	ands.w	r1, r3, #76	; 0x4c
  4014b2:	d11c      	bne.n	4014ee <UDP_Handler+0x606>
  4014b4:	4b81      	ldr	r3, [pc, #516]	; (4016bc <UDP_Handler+0x7d4>)
  4014b6:	4798      	blx	r3
  4014b8:	4b81      	ldr	r3, [pc, #516]	; (4016c0 <UDP_Handler+0x7d8>)
  4014ba:	f8c3 9014 	str.w	r9, [r3, #20]
  4014be:	4b81      	ldr	r3, [pc, #516]	; (4016c4 <UDP_Handler+0x7dc>)
  4014c0:	4798      	blx	r3
  4014c2:	6b23      	ldr	r3, [r4, #48]	; 0x30
  4014c4:	9322      	str	r3, [sp, #136]	; 0x88
  4014c6:	9b22      	ldr	r3, [sp, #136]	; 0x88
  4014c8:	f043 034f 	orr.w	r3, r3, #79	; 0x4f
  4014cc:	9322      	str	r3, [sp, #136]	; 0x88
  4014ce:	9b22      	ldr	r3, [sp, #136]	; 0x88
  4014d0:	f023 0301 	bic.w	r3, r3, #1
  4014d4:	9322      	str	r3, [sp, #136]	; 0x88
  4014d6:	9b22      	ldr	r3, [sp, #136]	; 0x88
  4014d8:	6323      	str	r3, [r4, #48]	; 0x30
  4014da:	9123      	str	r1, [sp, #140]	; 0x8c
  4014dc:	9b23      	ldr	r3, [sp, #140]	; 0x8c
  4014de:	2b13      	cmp	r3, #19
  4014e0:	f200 815e 	bhi.w	4017a0 <UDP_Handler+0x8b8>
  4014e4:	bf00      	nop
  4014e6:	9b23      	ldr	r3, [sp, #140]	; 0x8c
  4014e8:	3301      	adds	r3, #1
  4014ea:	9323      	str	r3, [sp, #140]	; 0x8c
  4014ec:	e7f6      	b.n	4014dc <UDP_Handler+0x5f4>
  4014ee:	2d03      	cmp	r5, #3
  4014f0:	d063      	beq.n	4015ba <UDP_Handler+0x6d2>
  4014f2:	2314      	movs	r3, #20
  4014f4:	fb03 7606 	mla	r6, r3, r6, r7
  4014f8:	f106 0910 	add.w	r9, r6, #16
  4014fc:	f899 3001 	ldrb.w	r3, [r9, #1]
  401500:	f013 0f0c 	tst.w	r3, #12
  401504:	d02e      	beq.n	401564 <UDP_Handler+0x67c>
  401506:	6b23      	ldr	r3, [r4, #48]	; 0x30
  401508:	9324      	str	r3, [sp, #144]	; 0x90
  40150a:	9b24      	ldr	r3, [sp, #144]	; 0x90
  40150c:	f043 034f 	orr.w	r3, r3, #79	; 0x4f
  401510:	9324      	str	r3, [sp, #144]	; 0x90
  401512:	9b24      	ldr	r3, [sp, #144]	; 0x90
  401514:	f043 0310 	orr.w	r3, r3, #16
  401518:	9324      	str	r3, [sp, #144]	; 0x90
  40151a:	9b24      	ldr	r3, [sp, #144]	; 0x90
  40151c:	6323      	str	r3, [r4, #48]	; 0x30
  40151e:	2300      	movs	r3, #0
  401520:	9325      	str	r3, [sp, #148]	; 0x94
  401522:	9b25      	ldr	r3, [sp, #148]	; 0x94
  401524:	2b13      	cmp	r3, #19
  401526:	d803      	bhi.n	401530 <UDP_Handler+0x648>
  401528:	bf00      	nop
  40152a:	9b25      	ldr	r3, [sp, #148]	; 0x94
  40152c:	3301      	adds	r3, #1
  40152e:	e7f7      	b.n	401520 <UDP_Handler+0x638>
  401530:	6b23      	ldr	r3, [r4, #48]	; 0x30
  401532:	9326      	str	r3, [sp, #152]	; 0x98
  401534:	9b26      	ldr	r3, [sp, #152]	; 0x98
  401536:	f043 034f 	orr.w	r3, r3, #79	; 0x4f
  40153a:	9326      	str	r3, [sp, #152]	; 0x98
  40153c:	9b26      	ldr	r3, [sp, #152]	; 0x98
  40153e:	f023 0301 	bic.w	r3, r3, #1
  401542:	9326      	str	r3, [sp, #152]	; 0x98
  401544:	9b26      	ldr	r3, [sp, #152]	; 0x98
  401546:	6323      	str	r3, [r4, #48]	; 0x30
  401548:	2300      	movs	r3, #0
  40154a:	9327      	str	r3, [sp, #156]	; 0x9c
  40154c:	9b27      	ldr	r3, [sp, #156]	; 0x9c
  40154e:	2b13      	cmp	r3, #19
  401550:	d803      	bhi.n	40155a <UDP_Handler+0x672>
  401552:	bf00      	nop
  401554:	9b27      	ldr	r3, [sp, #156]	; 0x9c
  401556:	3301      	adds	r3, #1
  401558:	e7f7      	b.n	40154a <UDP_Handler+0x662>
  40155a:	2100      	movs	r1, #0
  40155c:	4628      	mov	r0, r5
  40155e:	4b5a      	ldr	r3, [pc, #360]	; (4016c8 <UDP_Handler+0x7e0>)
  401560:	4798      	blx	r3
  401562:	e11d      	b.n	4017a0 <UDP_Handler+0x8b8>
  401564:	2101      	movs	r1, #1
  401566:	4628      	mov	r0, r5
  401568:	4f57      	ldr	r7, [pc, #348]	; (4016c8 <UDP_Handler+0x7e0>)
  40156a:	47b8      	blx	r7
  40156c:	4601      	mov	r1, r0
  40156e:	b958      	cbnz	r0, 401588 <UDP_Handler+0x6a0>
  401570:	f899 3001 	ldrb.w	r3, [r9, #1]
  401574:	f360 13c7 	bfi	r3, r0, #7, #1
  401578:	f889 3001 	strb.w	r3, [r9, #1]
  40157c:	68f3      	ldr	r3, [r6, #12]
  40157e:	60b3      	str	r3, [r6, #8]
  401580:	462a      	mov	r2, r5
  401582:	4640      	mov	r0, r8
  401584:	4b4c      	ldr	r3, [pc, #304]	; (4016b8 <UDP_Handler+0x7d0>)
  401586:	4798      	blx	r3
  401588:	6b23      	ldr	r3, [r4, #48]	; 0x30
  40158a:	9328      	str	r3, [sp, #160]	; 0xa0
  40158c:	9b28      	ldr	r3, [sp, #160]	; 0xa0
  40158e:	f043 034f 	orr.w	r3, r3, #79	; 0x4f
  401592:	9328      	str	r3, [sp, #160]	; 0xa0
  401594:	9b28      	ldr	r3, [sp, #160]	; 0xa0
  401596:	f023 0301 	bic.w	r3, r3, #1
  40159a:	9328      	str	r3, [sp, #160]	; 0xa0
  40159c:	9b28      	ldr	r3, [sp, #160]	; 0xa0
  40159e:	6323      	str	r3, [r4, #48]	; 0x30
  4015a0:	2300      	movs	r3, #0
  4015a2:	9329      	str	r3, [sp, #164]	; 0xa4
  4015a4:	9b29      	ldr	r3, [sp, #164]	; 0xa4
  4015a6:	2b13      	cmp	r3, #19
  4015a8:	d803      	bhi.n	4015b2 <UDP_Handler+0x6ca>
  4015aa:	bf00      	nop
  4015ac:	9b29      	ldr	r3, [sp, #164]	; 0xa4
  4015ae:	3301      	adds	r3, #1
  4015b0:	e7f7      	b.n	4015a2 <UDP_Handler+0x6ba>
  4015b2:	2100      	movs	r1, #0
  4015b4:	4628      	mov	r0, r5
  4015b6:	47b8      	blx	r7
  4015b8:	e0f2      	b.n	4017a0 <UDP_Handler+0x8b8>
  4015ba:	4b43      	ldr	r3, [pc, #268]	; (4016c8 <UDP_Handler+0x7e0>)
  4015bc:	2101      	movs	r1, #1
  4015be:	4628      	mov	r0, r5
  4015c0:	4798      	blx	r3
  4015c2:	6b23      	ldr	r3, [r4, #48]	; 0x30
  4015c4:	932a      	str	r3, [sp, #168]	; 0xa8
  4015c6:	9b2a      	ldr	r3, [sp, #168]	; 0xa8
  4015c8:	f043 034f 	orr.w	r3, r3, #79	; 0x4f
  4015cc:	932a      	str	r3, [sp, #168]	; 0xa8
  4015ce:	9b2a      	ldr	r3, [sp, #168]	; 0xa8
  4015d0:	f023 0301 	bic.w	r3, r3, #1
  4015d4:	932a      	str	r3, [sp, #168]	; 0xa8
  4015d6:	9b2a      	ldr	r3, [sp, #168]	; 0xa8
  4015d8:	6323      	str	r3, [r4, #48]	; 0x30
  4015da:	2300      	movs	r3, #0
  4015dc:	932b      	str	r3, [sp, #172]	; 0xac
  4015de:	9b2b      	ldr	r3, [sp, #172]	; 0xac
  4015e0:	2b13      	cmp	r3, #19
  4015e2:	f200 80dd 	bhi.w	4017a0 <UDP_Handler+0x8b8>
  4015e6:	bf00      	nop
  4015e8:	9b2b      	ldr	r3, [sp, #172]	; 0xac
  4015ea:	3301      	adds	r3, #1
  4015ec:	e7f6      	b.n	4015dc <UDP_Handler+0x6f4>
  4015ee:	6b22      	ldr	r2, [r4, #48]	; 0x30
  4015f0:	0711      	lsls	r1, r2, #28
  4015f2:	d51d      	bpl.n	401630 <UDP_Handler+0x748>
  4015f4:	6b23      	ldr	r3, [r4, #48]	; 0x30
  4015f6:	932c      	str	r3, [sp, #176]	; 0xb0
  4015f8:	9b2c      	ldr	r3, [sp, #176]	; 0xb0
  4015fa:	f043 034f 	orr.w	r3, r3, #79	; 0x4f
  4015fe:	932c      	str	r3, [sp, #176]	; 0xb0
  401600:	9b2c      	ldr	r3, [sp, #176]	; 0xb0
  401602:	f023 0308 	bic.w	r3, r3, #8
  401606:	932c      	str	r3, [sp, #176]	; 0xb0
  401608:	9b2c      	ldr	r3, [sp, #176]	; 0xb0
  40160a:	6323      	str	r3, [r4, #48]	; 0x30
  40160c:	902d      	str	r0, [sp, #180]	; 0xb4
  40160e:	9b2d      	ldr	r3, [sp, #180]	; 0xb4
  401610:	2b13      	cmp	r3, #19
  401612:	d804      	bhi.n	40161e <UDP_Handler+0x736>
  401614:	bf00      	nop
  401616:	9b2d      	ldr	r3, [sp, #180]	; 0xb4
  401618:	3301      	adds	r3, #1
  40161a:	932d      	str	r3, [sp, #180]	; 0xb4
  40161c:	e7f7      	b.n	40160e <UDP_Handler+0x726>
  40161e:	6b23      	ldr	r3, [r4, #48]	; 0x30
  401620:	f403 63e0 	and.w	r3, r3, #1792	; 0x700
  401624:	f5b3 7f80 	cmp.w	r3, #256	; 0x100
  401628:	f000 80ba 	beq.w	4017a0 <UDP_Handler+0x8b8>
  40162c:	6b23      	ldr	r3, [r4, #48]	; 0x30
  40162e:	e0b7      	b.n	4017a0 <UDP_Handler+0x8b8>
  401630:	3301      	adds	r3, #1
  401632:	2b07      	cmp	r3, #7
  401634:	f47f ae3e 	bne.w	4012b4 <UDP_Handler+0x3cc>
  401638:	4b21      	ldr	r3, [pc, #132]	; (4016c0 <UDP_Handler+0x7d8>)
  40163a:	699a      	ldr	r2, [r3, #24]
  40163c:	0492      	lsls	r2, r2, #18
  40163e:	d502      	bpl.n	401646 <UDP_Handler+0x75e>
  401640:	69da      	ldr	r2, [r3, #28]
  401642:	0492      	lsls	r2, r2, #18
  401644:	d40d      	bmi.n	401662 <UDP_Handler+0x77a>
  401646:	699b      	ldr	r3, [r3, #24]
  401648:	059b      	lsls	r3, r3, #22
  40164a:	d503      	bpl.n	401654 <UDP_Handler+0x76c>
  40164c:	4b1c      	ldr	r3, [pc, #112]	; (4016c0 <UDP_Handler+0x7d8>)
  40164e:	69db      	ldr	r3, [r3, #28]
  401650:	059f      	lsls	r7, r3, #22
  401652:	d406      	bmi.n	401662 <UDP_Handler+0x77a>
  401654:	4a1a      	ldr	r2, [pc, #104]	; (4016c0 <UDP_Handler+0x7d8>)
  401656:	6993      	ldr	r3, [r2, #24]
  401658:	055e      	lsls	r6, r3, #21
  40165a:	d512      	bpl.n	401682 <UDP_Handler+0x79a>
  40165c:	69d3      	ldr	r3, [r2, #28]
  40165e:	055d      	lsls	r5, r3, #21
  401660:	d50f      	bpl.n	401682 <UDP_Handler+0x79a>
  401662:	4c17      	ldr	r4, [pc, #92]	; (4016c0 <UDP_Handler+0x7d8>)
  401664:	f44f 5318 	mov.w	r3, #9728	; 0x2600
  401668:	6223      	str	r3, [r4, #32]
  40166a:	2001      	movs	r0, #1
  40166c:	6163      	str	r3, [r4, #20]
  40166e:	4b17      	ldr	r3, [pc, #92]	; (4016cc <UDP_Handler+0x7e4>)
  401670:	4798      	blx	r3
  401672:	f44f 7380 	mov.w	r3, #256	; 0x100
  401676:	6223      	str	r3, [r4, #32]
  401678:	6123      	str	r3, [r4, #16]
  40167a:	f44f 6300 	mov.w	r3, #2048	; 0x800
  40167e:	6123      	str	r3, [r4, #16]
  401680:	e08e      	b.n	4017a0 <UDP_Handler+0x8b8>
  401682:	6992      	ldr	r2, [r2, #24]
  401684:	4b0e      	ldr	r3, [pc, #56]	; (4016c0 <UDP_Handler+0x7d8>)
  401686:	05d4      	lsls	r4, r2, #23
  401688:	d524      	bpl.n	4016d4 <UDP_Handler+0x7ec>
  40168a:	69da      	ldr	r2, [r3, #28]
  40168c:	05d0      	lsls	r0, r2, #23
  40168e:	d521      	bpl.n	4016d4 <UDP_Handler+0x7ec>
  401690:	f44f 7280 	mov.w	r2, #256	; 0x100
  401694:	621a      	str	r2, [r3, #32]
  401696:	615a      	str	r2, [r3, #20]
  401698:	f44f 5200 	mov.w	r2, #8192	; 0x2000
  40169c:	611a      	str	r2, [r3, #16]
  40169e:	f44f 7200 	mov.w	r2, #512	; 0x200
  4016a2:	611a      	str	r2, [r3, #16]
  4016a4:	f44f 6280 	mov.w	r2, #1024	; 0x400
  4016a8:	611a      	str	r2, [r3, #16]
  4016aa:	2022      	movs	r0, #34	; 0x22
  4016ac:	4b08      	ldr	r3, [pc, #32]	; (4016d0 <UDP_Handler+0x7e8>)
  4016ae:	4798      	blx	r3
  4016b0:	2000      	movs	r0, #0
  4016b2:	4b06      	ldr	r3, [pc, #24]	; (4016cc <UDP_Handler+0x7e4>)
  4016b4:	4798      	blx	r3
  4016b6:	e073      	b.n	4017a0 <UDP_Handler+0x8b8>
  4016b8:	00400ea9 	.word	0x00400ea9
  4016bc:	00400941 	.word	0x00400941
  4016c0:	40034000 	.word	0x40034000
  4016c4:	00400c69 	.word	0x00400c69
  4016c8:	00400ad5 	.word	0x00400ad5
  4016cc:	00400cd5 	.word	0x00400cd5
  4016d0:	0040235d 	.word	0x0040235d
  4016d4:	4b34      	ldr	r3, [pc, #208]	; (4017a8 <UDP_Handler+0x8c0>)
  4016d6:	69da      	ldr	r2, [r3, #28]
  4016d8:	04d1      	lsls	r1, r2, #19
  4016da:	d561      	bpl.n	4017a0 <UDP_Handler+0x8b8>
  4016dc:	f44f 5280 	mov.w	r2, #4096	; 0x1000
  4016e0:	4e32      	ldr	r6, [pc, #200]	; (4017ac <UDP_Handler+0x8c4>)
  4016e2:	4d33      	ldr	r5, [pc, #204]	; (4017b0 <UDP_Handler+0x8c8>)
  4016e4:	621a      	str	r2, [r3, #32]
  4016e6:	2000      	movs	r0, #0
  4016e8:	2714      	movs	r7, #20
  4016ea:	1c44      	adds	r4, r0, #1
  4016ec:	b2e2      	uxtb	r2, r4
  4016ee:	fb07 6000 	mla	r0, r7, r0, r6
  4016f2:	2101      	movs	r1, #1
  4016f4:	47a8      	blx	r5
  4016f6:	2c06      	cmp	r4, #6
  4016f8:	4620      	mov	r0, r4
  4016fa:	d1f6      	bne.n	4016ea <UDP_Handler+0x802>
  4016fc:	4b2d      	ldr	r3, [pc, #180]	; (4017b4 <UDP_Handler+0x8cc>)
  4016fe:	4798      	blx	r3
  401700:	4b29      	ldr	r3, [pc, #164]	; (4017a8 <UDP_Handler+0x8c0>)
  401702:	685a      	ldr	r2, [r3, #4]
  401704:	f022 0201 	bic.w	r2, r2, #1
  401708:	605a      	str	r2, [r3, #4]
  40170a:	685a      	ldr	r2, [r3, #4]
  40170c:	f022 0202 	bic.w	r2, r2, #2
  401710:	605a      	str	r2, [r3, #4]
  401712:	689a      	ldr	r2, [r3, #8]
  401714:	f442 7280 	orr.w	r2, r2, #256	; 0x100
  401718:	609a      	str	r2, [r3, #8]
  40171a:	689a      	ldr	r2, [r3, #8]
  40171c:	f022 027f 	bic.w	r2, r2, #127	; 0x7f
  401720:	609a      	str	r2, [r3, #8]
  401722:	6b1a      	ldr	r2, [r3, #48]	; 0x30
  401724:	922e      	str	r2, [sp, #184]	; 0xb8
  401726:	9a2e      	ldr	r2, [sp, #184]	; 0xb8
  401728:	f042 024f 	orr.w	r2, r2, #79	; 0x4f
  40172c:	922e      	str	r2, [sp, #184]	; 0xb8
  40172e:	9a2e      	ldr	r2, [sp, #184]	; 0xb8
  401730:	f422 4207 	bic.w	r2, r2, #34560	; 0x8700
  401734:	f022 0280 	bic.w	r2, r2, #128	; 0x80
  401738:	922e      	str	r2, [sp, #184]	; 0xb8
  40173a:	9a2e      	ldr	r2, [sp, #184]	; 0xb8
  40173c:	f442 4200 	orr.w	r2, r2, #32768	; 0x8000
  401740:	922e      	str	r2, [sp, #184]	; 0xb8
  401742:	9a2e      	ldr	r2, [sp, #184]	; 0xb8
  401744:	631a      	str	r2, [r3, #48]	; 0x30
  401746:	2200      	movs	r2, #0
  401748:	922f      	str	r2, [sp, #188]	; 0xbc
  40174a:	9a2f      	ldr	r2, [sp, #188]	; 0xbc
  40174c:	2a13      	cmp	r2, #19
  40174e:	d803      	bhi.n	401758 <UDP_Handler+0x870>
  401750:	bf00      	nop
  401752:	9a2f      	ldr	r2, [sp, #188]	; 0xbc
  401754:	3201      	adds	r2, #1
  401756:	e7f7      	b.n	401748 <UDP_Handler+0x860>
  401758:	6b1a      	ldr	r2, [r3, #48]	; 0x30
  40175a:	9230      	str	r2, [sp, #192]	; 0xc0
  40175c:	9a30      	ldr	r2, [sp, #192]	; 0xc0
  40175e:	f042 024f 	orr.w	r2, r2, #79	; 0x4f
  401762:	9230      	str	r2, [sp, #192]	; 0xc0
  401764:	9a30      	ldr	r2, [sp, #192]	; 0xc0
  401766:	f442 4200 	orr.w	r2, r2, #32768	; 0x8000
  40176a:	9230      	str	r2, [sp, #192]	; 0xc0
  40176c:	9a30      	ldr	r2, [sp, #192]	; 0xc0
  40176e:	631a      	str	r2, [r3, #48]	; 0x30
  401770:	2300      	movs	r3, #0
  401772:	9331      	str	r3, [sp, #196]	; 0xc4
  401774:	9b31      	ldr	r3, [sp, #196]	; 0xc4
  401776:	2b13      	cmp	r3, #19
  401778:	d803      	bhi.n	401782 <UDP_Handler+0x89a>
  40177a:	bf00      	nop
  40177c:	9b31      	ldr	r3, [sp, #196]	; 0xc4
  40177e:	3301      	adds	r3, #1
  401780:	e7f7      	b.n	401772 <UDP_Handler+0x88a>
  401782:	4b0d      	ldr	r3, [pc, #52]	; (4017b8 <UDP_Handler+0x8d0>)
  401784:	4798      	blx	r3
  401786:	4908      	ldr	r1, [pc, #32]	; (4017a8 <UDP_Handler+0x8c0>)
  401788:	2301      	movs	r3, #1
  40178a:	610b      	str	r3, [r1, #16]
  40178c:	4b0b      	ldr	r3, [pc, #44]	; (4017bc <UDP_Handler+0x8d4>)
  40178e:	4798      	blx	r3
  401790:	4b0b      	ldr	r3, [pc, #44]	; (4017c0 <UDP_Handler+0x8d8>)
  401792:	4798      	blx	r3
  401794:	f44f 7380 	mov.w	r3, #256	; 0x100
  401798:	610b      	str	r3, [r1, #16]
  40179a:	f44f 6300 	mov.w	r3, #2048	; 0x800
  40179e:	610b      	str	r3, [r1, #16]
  4017a0:	b033      	add	sp, #204	; 0xcc
  4017a2:	e8bd 8ff0 	ldmia.w	sp!, {r4, r5, r6, r7, r8, r9, sl, fp, pc}
  4017a6:	bf00      	nop
  4017a8:	40034000 	.word	0x40034000
  4017ac:	200002c0 	.word	0x200002c0
  4017b0:	00400ea9 	.word	0x00400ea9
  4017b4:	0040032d 	.word	0x0040032d
  4017b8:	00400941 	.word	0x00400941
  4017bc:	00400c69 	.word	0x00400c69
  4017c0:	0040095d 	.word	0x0040095d

004017c4 <udd_attach>:
  4017c4:	b510      	push	{r4, lr}
  4017c6:	4b13      	ldr	r3, [pc, #76]	; (401814 <udd_attach+0x50>)
  4017c8:	4798      	blx	r3
  4017ca:	4b13      	ldr	r3, [pc, #76]	; (401818 <udd_attach+0x54>)
  4017cc:	4604      	mov	r4, r0
  4017ce:	2001      	movs	r0, #1
  4017d0:	4798      	blx	r3
  4017d2:	4b12      	ldr	r3, [pc, #72]	; (40181c <udd_attach+0x58>)
  4017d4:	2022      	movs	r0, #34	; 0x22
  4017d6:	4798      	blx	r3
  4017d8:	4b11      	ldr	r3, [pc, #68]	; (401820 <udd_attach+0x5c>)
  4017da:	6f5a      	ldr	r2, [r3, #116]	; 0x74
  4017dc:	f422 7280 	bic.w	r2, r2, #256	; 0x100
  4017e0:	675a      	str	r2, [r3, #116]	; 0x74
  4017e2:	6f5a      	ldr	r2, [r3, #116]	; 0x74
  4017e4:	f442 7200 	orr.w	r2, r2, #512	; 0x200
  4017e8:	675a      	str	r2, [r3, #116]	; 0x74
  4017ea:	f44f 7280 	mov.w	r2, #256	; 0x100
  4017ee:	611a      	str	r2, [r3, #16]
  4017f0:	f44f 5200 	mov.w	r2, #8192	; 0x2000
  4017f4:	611a      	str	r2, [r3, #16]
  4017f6:	f44f 7200 	mov.w	r2, #512	; 0x200
  4017fa:	611a      	str	r2, [r3, #16]
  4017fc:	f44f 6280 	mov.w	r2, #1024	; 0x400
  401800:	611a      	str	r2, [r3, #16]
  401802:	f44f 6200 	mov.w	r2, #2048	; 0x800
  401806:	611a      	str	r2, [r3, #16]
  401808:	4620      	mov	r0, r4
  40180a:	4b06      	ldr	r3, [pc, #24]	; (401824 <udd_attach+0x60>)
  40180c:	e8bd 4010 	ldmia.w	sp!, {r4, lr}
  401810:	4718      	bx	r3
  401812:	bf00      	nop
  401814:	00400941 	.word	0x00400941
  401818:	00400cd5 	.word	0x00400cd5
  40181c:	0040231d 	.word	0x0040231d
  401820:	40034000 	.word	0x40034000
  401824:	00400c69 	.word	0x00400c69

00401828 <udd_enable>:
  401828:	b570      	push	{r4, r5, r6, lr}
  40182a:	4b16      	ldr	r3, [pc, #88]	; (401884 <udd_enable+0x5c>)
  40182c:	4798      	blx	r3
  40182e:	4b16      	ldr	r3, [pc, #88]	; (401888 <udd_enable+0x60>)
  401830:	4604      	mov	r4, r0
  401832:	2022      	movs	r0, #34	; 0x22
  401834:	4798      	blx	r3
  401836:	4b15      	ldr	r3, [pc, #84]	; (40188c <udd_enable+0x64>)
  401838:	4798      	blx	r3
  40183a:	4b15      	ldr	r3, [pc, #84]	; (401890 <udd_enable+0x68>)
  40183c:	4815      	ldr	r0, [pc, #84]	; (401894 <udd_enable+0x6c>)
  40183e:	2250      	movs	r2, #80	; 0x50
  401840:	f883 2322 	strb.w	r2, [r3, #802]	; 0x322
  401844:	2204      	movs	r2, #4
  401846:	605a      	str	r2, [r3, #4]
  401848:	2514      	movs	r5, #20
  40184a:	2300      	movs	r3, #0
  40184c:	fb05 0203 	mla	r2, r5, r3, r0
  401850:	3301      	adds	r3, #1
  401852:	7c51      	ldrb	r1, [r2, #17]
  401854:	f001 0183 	and.w	r1, r1, #131	; 0x83
  401858:	f36f 11c7 	bfc	r1, #7, #1
  40185c:	2b06      	cmp	r3, #6
  40185e:	7451      	strb	r1, [r2, #17]
  401860:	d1f4      	bne.n	40184c <udd_enable+0x24>
  401862:	f44f 2080 	mov.w	r0, #262144	; 0x40000
  401866:	4b0c      	ldr	r3, [pc, #48]	; (401898 <udd_enable+0x70>)
  401868:	4798      	blx	r3
  40186a:	4b0c      	ldr	r3, [pc, #48]	; (40189c <udd_enable+0x74>)
  40186c:	2000      	movs	r0, #0
  40186e:	7018      	strb	r0, [r3, #0]
  401870:	4b0b      	ldr	r3, [pc, #44]	; (4018a0 <udd_enable+0x78>)
  401872:	4798      	blx	r3
  401874:	4b0b      	ldr	r3, [pc, #44]	; (4018a4 <udd_enable+0x7c>)
  401876:	4798      	blx	r3
  401878:	4620      	mov	r0, r4
  40187a:	4b0b      	ldr	r3, [pc, #44]	; (4018a8 <udd_enable+0x80>)
  40187c:	e8bd 4070 	ldmia.w	sp!, {r4, r5, r6, lr}
  401880:	4718      	bx	r3
  401882:	bf00      	nop
  401884:	00400941 	.word	0x00400941
  401888:	0040231d 	.word	0x0040231d
  40188c:	00401f49 	.word	0x00401f49
  401890:	e000e100 	.word	0xe000e100
  401894:	200002c0 	.word	0x200002c0
  401898:	004023e5 	.word	0x004023e5
  40189c:	20000338 	.word	0x20000338
  4018a0:	00400c7d 	.word	0x00400c7d
  4018a4:	004017c5 	.word	0x004017c5
  4018a8:	00400c69 	.word	0x00400c69

004018ac <udd_set_address>:
  4018ac:	4b0c      	ldr	r3, [pc, #48]	; (4018e0 <udd_set_address+0x34>)
  4018ae:	685a      	ldr	r2, [r3, #4]
  4018b0:	f022 0201 	bic.w	r2, r2, #1
  4018b4:	605a      	str	r2, [r3, #4]
  4018b6:	689a      	ldr	r2, [r3, #8]
  4018b8:	f422 7280 	bic.w	r2, r2, #256	; 0x100
  4018bc:	609a      	str	r2, [r3, #8]
  4018be:	b170      	cbz	r0, 4018de <udd_set_address+0x32>
  4018c0:	689a      	ldr	r2, [r3, #8]
  4018c2:	f000 007f 	and.w	r0, r0, #127	; 0x7f
  4018c6:	f022 027f 	bic.w	r2, r2, #127	; 0x7f
  4018ca:	4310      	orrs	r0, r2
  4018cc:	6098      	str	r0, [r3, #8]
  4018ce:	689a      	ldr	r2, [r3, #8]
  4018d0:	f442 7280 	orr.w	r2, r2, #256	; 0x100
  4018d4:	609a      	str	r2, [r3, #8]
  4018d6:	685a      	ldr	r2, [r3, #4]
  4018d8:	f042 0201 	orr.w	r2, r2, #1
  4018dc:	605a      	str	r2, [r3, #4]
  4018de:	4770      	bx	lr
  4018e0:	40034000 	.word	0x40034000

004018e4 <udd_getaddress>:
  4018e4:	4b04      	ldr	r3, [pc, #16]	; (4018f8 <udd_getaddress+0x14>)
  4018e6:	6858      	ldr	r0, [r3, #4]
  4018e8:	f010 0001 	ands.w	r0, r0, #1
  4018ec:	bf1c      	itt	ne
  4018ee:	6898      	ldrne	r0, [r3, #8]
  4018f0:	f000 007f 	andne.w	r0, r0, #127	; 0x7f
  4018f4:	4770      	bx	lr
  4018f6:	bf00      	nop
  4018f8:	40034000 	.word	0x40034000

004018fc <udd_set_setup_payload>:
  4018fc:	4b01      	ldr	r3, [pc, #4]	; (401904 <udd_set_setup_payload+0x8>)
  4018fe:	6098      	str	r0, [r3, #8]
  401900:	8199      	strh	r1, [r3, #12]
  401902:	4770      	bx	lr
  401904:	2000036c 	.word	0x2000036c

00401908 <udd_ep_alloc>:
  401908:	b5f7      	push	{r0, r1, r2, r4, r5, r6, r7, lr}
  40190a:	f000 040f 	and.w	r4, r0, #15
  40190e:	2c06      	cmp	r4, #6
  401910:	d866      	bhi.n	4019e0 <udd_ep_alloc+0xd8>
  401912:	00a5      	lsls	r5, r4, #2
  401914:	f105 2540 	add.w	r5, r5, #1073758208	; 0x40004000
  401918:	f505 3540 	add.w	r5, r5, #196608	; 0x30000
  40191c:	6b2b      	ldr	r3, [r5, #48]	; 0x30
  40191e:	f413 4300 	ands.w	r3, r3, #32768	; 0x8000
  401922:	d15d      	bne.n	4019e0 <udd_ep_alloc+0xd8>
  401924:	f001 0603 	and.w	r6, r1, #3
  401928:	2e01      	cmp	r6, #1
  40192a:	d103      	bne.n	401934 <udd_ep_alloc+0x2c>
  40192c:	2c00      	cmp	r4, #0
  40192e:	d053      	beq.n	4019d8 <udd_ep_alloc+0xd0>
  401930:	2c03      	cmp	r4, #3
  401932:	d053      	beq.n	4019dc <udd_ep_alloc+0xd4>
  401934:	1f23      	subs	r3, r4, #4
  401936:	2b01      	cmp	r3, #1
  401938:	bf94      	ite	ls
  40193a:	f44f 7300 	movls.w	r3, #512	; 0x200
  40193e:	2340      	movhi	r3, #64	; 0x40
  401940:	4293      	cmp	r3, r2
  401942:	db4d      	blt.n	4019e0 <udd_ep_alloc+0xd8>
  401944:	4f28      	ldr	r7, [pc, #160]	; (4019e8 <udd_ep_alloc+0xe0>)
  401946:	1e63      	subs	r3, r4, #1
  401948:	f04f 0e14 	mov.w	lr, #20
  40194c:	fb0e 7303 	mla	r3, lr, r3, r7
  401950:	f103 0610 	add.w	r6, r3, #16
  401954:	8a1f      	ldrh	r7, [r3, #16]
  401956:	f362 0709 	bfi	r7, r2, #0, #10
  40195a:	821f      	strh	r7, [r3, #16]
  40195c:	7c5b      	ldrb	r3, [r3, #17]
  40195e:	f003 037f 	and.w	r3, r3, #127	; 0x7f
  401962:	f020 007f 	bic.w	r0, r0, #127	; 0x7f
  401966:	f36f 1345 	bfc	r3, #5, #1
  40196a:	7073      	strb	r3, [r6, #1]
  40196c:	f000 02ff 	and.w	r2, r0, #255	; 0xff
  401970:	b118      	cbz	r0, 40197a <udd_ep_alloc+0x72>
  401972:	b2db      	uxtb	r3, r3
  401974:	f36f 0383 	bfc	r3, #2, #2
  401978:	7073      	strb	r3, [r6, #1]
  40197a:	4b1c      	ldr	r3, [pc, #112]	; (4019ec <udd_ep_alloc+0xe4>)
  40197c:	2001      	movs	r0, #1
  40197e:	6a9e      	ldr	r6, [r3, #40]	; 0x28
  401980:	40a0      	lsls	r0, r4
  401982:	ea46 0400 	orr.w	r4, r6, r0
  401986:	629c      	str	r4, [r3, #40]	; 0x28
  401988:	6a9c      	ldr	r4, [r3, #40]	; 0x28
  40198a:	ea24 0000 	bic.w	r0, r4, r0
  40198e:	6298      	str	r0, [r3, #40]	; 0x28
  401990:	6b2b      	ldr	r3, [r5, #48]	; 0x30
  401992:	9300      	str	r3, [sp, #0]
  401994:	9b00      	ldr	r3, [sp, #0]
  401996:	f043 034f 	orr.w	r3, r3, #79	; 0x4f
  40199a:	9300      	str	r3, [sp, #0]
  40199c:	9b00      	ldr	r3, [sp, #0]
  40199e:	f423 4307 	bic.w	r3, r3, #34560	; 0x8700
  4019a2:	f023 0380 	bic.w	r3, r3, #128	; 0x80
  4019a6:	9300      	str	r3, [sp, #0]
  4019a8:	b10a      	cbz	r2, 4019ae <udd_ep_alloc+0xa6>
  4019aa:	f041 0104 	orr.w	r1, r1, #4
  4019ae:	0209      	lsls	r1, r1, #8
  4019b0:	9b00      	ldr	r3, [sp, #0]
  4019b2:	f401 61e0 	and.w	r1, r1, #1792	; 0x700
  4019b6:	f441 4100 	orr.w	r1, r1, #32768	; 0x8000
  4019ba:	4319      	orrs	r1, r3
  4019bc:	9100      	str	r1, [sp, #0]
  4019be:	9b00      	ldr	r3, [sp, #0]
  4019c0:	632b      	str	r3, [r5, #48]	; 0x30
  4019c2:	2300      	movs	r3, #0
  4019c4:	9301      	str	r3, [sp, #4]
  4019c6:	9b01      	ldr	r3, [sp, #4]
  4019c8:	2b13      	cmp	r3, #19
  4019ca:	d803      	bhi.n	4019d4 <udd_ep_alloc+0xcc>
  4019cc:	bf00      	nop
  4019ce:	9b01      	ldr	r3, [sp, #4]
  4019d0:	3301      	adds	r3, #1
  4019d2:	e7f7      	b.n	4019c4 <udd_ep_alloc+0xbc>
  4019d4:	2001      	movs	r0, #1
  4019d6:	e004      	b.n	4019e2 <udd_ep_alloc+0xda>
  4019d8:	4620      	mov	r0, r4
  4019da:	e002      	b.n	4019e2 <udd_ep_alloc+0xda>
  4019dc:	4618      	mov	r0, r3
  4019de:	e000      	b.n	4019e2 <udd_ep_alloc+0xda>
  4019e0:	2000      	movs	r0, #0
  4019e2:	b003      	add	sp, #12
  4019e4:	bdf0      	pop	{r4, r5, r6, r7, pc}
  4019e6:	bf00      	nop
  4019e8:	200002c0 	.word	0x200002c0
  4019ec:	40034000 	.word	0x40034000

004019f0 <udd_ep_free>:
  4019f0:	f000 020f 	and.w	r2, r0, #15
  4019f4:	2a06      	cmp	r2, #6
  4019f6:	b513      	push	{r0, r1, r4, lr}
  4019f8:	d821      	bhi.n	401a3e <udd_ep_free+0x4e>
  4019fa:	0093      	lsls	r3, r2, #2
  4019fc:	f103 2340 	add.w	r3, r3, #1073758208	; 0x40004000
  401a00:	f503 3340 	add.w	r3, r3, #196608	; 0x30000
  401a04:	6b19      	ldr	r1, [r3, #48]	; 0x30
  401a06:	9100      	str	r1, [sp, #0]
  401a08:	9900      	ldr	r1, [sp, #0]
  401a0a:	f041 014f 	orr.w	r1, r1, #79	; 0x4f
  401a0e:	9100      	str	r1, [sp, #0]
  401a10:	9900      	ldr	r1, [sp, #0]
  401a12:	f421 4100 	bic.w	r1, r1, #32768	; 0x8000
  401a16:	9100      	str	r1, [sp, #0]
  401a18:	9900      	ldr	r1, [sp, #0]
  401a1a:	6319      	str	r1, [r3, #48]	; 0x30
  401a1c:	2300      	movs	r3, #0
  401a1e:	9301      	str	r3, [sp, #4]
  401a20:	9b01      	ldr	r3, [sp, #4]
  401a22:	2b13      	cmp	r3, #19
  401a24:	d803      	bhi.n	401a2e <udd_ep_free+0x3e>
  401a26:	bf00      	nop
  401a28:	9b01      	ldr	r3, [sp, #4]
  401a2a:	3301      	adds	r3, #1
  401a2c:	e7f7      	b.n	401a1e <udd_ep_free+0x2e>
  401a2e:	4b05      	ldr	r3, [pc, #20]	; (401a44 <udd_ep_free+0x54>)
  401a30:	1e50      	subs	r0, r2, #1
  401a32:	2414      	movs	r4, #20
  401a34:	fb04 3000 	mla	r0, r4, r0, r3
  401a38:	2101      	movs	r1, #1
  401a3a:	4b03      	ldr	r3, [pc, #12]	; (401a48 <udd_ep_free+0x58>)
  401a3c:	4798      	blx	r3
  401a3e:	b002      	add	sp, #8
  401a40:	bd10      	pop	{r4, pc}
  401a42:	bf00      	nop
  401a44:	200002c0 	.word	0x200002c0
  401a48:	00400ea9 	.word	0x00400ea9

00401a4c <udd_ep_is_halted>:
  401a4c:	f000 000f 	and.w	r0, r0, #15
  401a50:	2806      	cmp	r0, #6
  401a52:	b510      	push	{r4, lr}
  401a54:	d813      	bhi.n	401a7e <udd_ep_is_halted+0x32>
  401a56:	490b      	ldr	r1, [pc, #44]	; (401a84 <udd_ep_is_halted+0x38>)
  401a58:	1e43      	subs	r3, r0, #1
  401a5a:	2414      	movs	r4, #20
  401a5c:	fb04 1303 	mla	r3, r4, r3, r1
  401a60:	7c5b      	ldrb	r3, [r3, #17]
  401a62:	069b      	lsls	r3, r3, #26
  401a64:	d409      	bmi.n	401a7a <udd_ep_is_halted+0x2e>
  401a66:	300c      	adds	r0, #12
  401a68:	4b07      	ldr	r3, [pc, #28]	; (401a88 <udd_ep_is_halted+0x3c>)
  401a6a:	f853 3020 	ldr.w	r3, [r3, r0, lsl #2]
  401a6e:	f013 0f28 	tst.w	r3, #40	; 0x28
  401a72:	bf14      	ite	ne
  401a74:	2001      	movne	r0, #1
  401a76:	2000      	moveq	r0, #0
  401a78:	bd10      	pop	{r4, pc}
  401a7a:	2001      	movs	r0, #1
  401a7c:	bd10      	pop	{r4, pc}
  401a7e:	2000      	movs	r0, #0
  401a80:	bd10      	pop	{r4, pc}
  401a82:	bf00      	nop
  401a84:	200002c0 	.word	0x200002c0
  401a88:	40034000 	.word	0x40034000

00401a8c <udd_ep_set_halt>:
  401a8c:	b513      	push	{r0, r1, r4, lr}
  401a8e:	f000 010f 	and.w	r1, r0, #15
  401a92:	2906      	cmp	r1, #6
  401a94:	4604      	mov	r4, r0
  401a96:	d841      	bhi.n	401b1c <udd_ep_set_halt+0x90>
  401a98:	4b22      	ldr	r3, [pc, #136]	; (401b24 <udd_ep_set_halt+0x98>)
  401a9a:	4798      	blx	r3
  401a9c:	0623      	lsls	r3, r4, #24
  401a9e:	d51a      	bpl.n	401ad6 <udd_ep_set_halt+0x4a>
  401aa0:	f101 030c 	add.w	r3, r1, #12
  401aa4:	4c20      	ldr	r4, [pc, #128]	; (401b28 <udd_ep_set_halt+0x9c>)
  401aa6:	f854 3023 	ldr.w	r3, [r4, r3, lsl #2]
  401aaa:	f013 0f10 	tst.w	r3, #16
  401aae:	f101 32ff 	add.w	r2, r1, #4294967295
  401ab2:	4b1e      	ldr	r3, [pc, #120]	; (401b2c <udd_ep_set_halt+0xa0>)
  401ab4:	d107      	bne.n	401ac6 <udd_ep_set_halt+0x3a>
  401ab6:	2414      	movs	r4, #20
  401ab8:	fb04 3402 	mla	r4, r4, r2, r3
  401abc:	7c64      	ldrb	r4, [r4, #17]
  401abe:	f3c4 0481 	ubfx	r4, r4, #2, #2
  401ac2:	2c01      	cmp	r4, #1
  401ac4:	dd07      	ble.n	401ad6 <udd_ep_set_halt+0x4a>
  401ac6:	2414      	movs	r4, #20
  401ac8:	fb04 3302 	mla	r3, r4, r2, r3
  401acc:	7c5a      	ldrb	r2, [r3, #17]
  401ace:	f042 0220 	orr.w	r2, r2, #32
  401ad2:	745a      	strb	r2, [r3, #17]
  401ad4:	e019      	b.n	401b0a <udd_ep_set_halt+0x7e>
  401ad6:	008b      	lsls	r3, r1, #2
  401ad8:	f103 2340 	add.w	r3, r3, #1073758208	; 0x40004000
  401adc:	f503 3340 	add.w	r3, r3, #196608	; 0x30000
  401ae0:	6b1a      	ldr	r2, [r3, #48]	; 0x30
  401ae2:	9200      	str	r2, [sp, #0]
  401ae4:	9a00      	ldr	r2, [sp, #0]
  401ae6:	f042 024f 	orr.w	r2, r2, #79	; 0x4f
  401aea:	9200      	str	r2, [sp, #0]
  401aec:	9a00      	ldr	r2, [sp, #0]
  401aee:	f042 0220 	orr.w	r2, r2, #32
  401af2:	9200      	str	r2, [sp, #0]
  401af4:	9a00      	ldr	r2, [sp, #0]
  401af6:	631a      	str	r2, [r3, #48]	; 0x30
  401af8:	2300      	movs	r3, #0
  401afa:	9301      	str	r3, [sp, #4]
  401afc:	9b01      	ldr	r3, [sp, #4]
  401afe:	2b13      	cmp	r3, #19
  401b00:	d803      	bhi.n	401b0a <udd_ep_set_halt+0x7e>
  401b02:	bf00      	nop
  401b04:	9b01      	ldr	r3, [sp, #4]
  401b06:	3301      	adds	r3, #1
  401b08:	e7f7      	b.n	401afa <udd_ep_set_halt+0x6e>
  401b0a:	2401      	movs	r4, #1
  401b0c:	4b06      	ldr	r3, [pc, #24]	; (401b28 <udd_ep_set_halt+0x9c>)
  401b0e:	fa04 f101 	lsl.w	r1, r4, r1
  401b12:	6119      	str	r1, [r3, #16]
  401b14:	4b06      	ldr	r3, [pc, #24]	; (401b30 <udd_ep_set_halt+0xa4>)
  401b16:	4798      	blx	r3
  401b18:	4620      	mov	r0, r4
  401b1a:	e000      	b.n	401b1e <udd_ep_set_halt+0x92>
  401b1c:	2000      	movs	r0, #0
  401b1e:	b002      	add	sp, #8
  401b20:	bd10      	pop	{r4, pc}
  401b22:	bf00      	nop
  401b24:	00400941 	.word	0x00400941
  401b28:	40034000 	.word	0x40034000
  401b2c:	200002c0 	.word	0x200002c0
  401b30:	00400c69 	.word	0x00400c69

00401b34 <udd_ep_clear_halt>:
  401b34:	b57f      	push	{r0, r1, r2, r3, r4, r5, r6, lr}
  401b36:	f000 000f 	and.w	r0, r0, #15
  401b3a:	2806      	cmp	r0, #6
  401b3c:	d854      	bhi.n	401be8 <udd_ep_clear_halt+0xb4>
  401b3e:	4a2c      	ldr	r2, [pc, #176]	; (401bf0 <udd_ep_clear_halt+0xbc>)
  401b40:	1e46      	subs	r6, r0, #1
  401b42:	2114      	movs	r1, #20
  401b44:	fb01 2106 	mla	r1, r1, r6, r2
  401b48:	7c4b      	ldrb	r3, [r1, #17]
  401b4a:	f36f 1345 	bfc	r3, #5, #1
  401b4e:	744b      	strb	r3, [r1, #17]
  401b50:	0083      	lsls	r3, r0, #2
  401b52:	f103 2340 	add.w	r3, r3, #1073758208	; 0x40004000
  401b56:	f503 3340 	add.w	r3, r3, #196608	; 0x30000
  401b5a:	6b19      	ldr	r1, [r3, #48]	; 0x30
  401b5c:	068c      	lsls	r4, r1, #26
  401b5e:	d541      	bpl.n	401be4 <udd_ep_clear_halt+0xb0>
  401b60:	6b19      	ldr	r1, [r3, #48]	; 0x30
  401b62:	9100      	str	r1, [sp, #0]
  401b64:	9900      	ldr	r1, [sp, #0]
  401b66:	f041 014f 	orr.w	r1, r1, #79	; 0x4f
  401b6a:	9100      	str	r1, [sp, #0]
  401b6c:	9900      	ldr	r1, [sp, #0]
  401b6e:	f021 0120 	bic.w	r1, r1, #32
  401b72:	9100      	str	r1, [sp, #0]
  401b74:	9900      	ldr	r1, [sp, #0]
  401b76:	6319      	str	r1, [r3, #48]	; 0x30
  401b78:	2100      	movs	r1, #0
  401b7a:	9101      	str	r1, [sp, #4]
  401b7c:	9901      	ldr	r1, [sp, #4]
  401b7e:	2913      	cmp	r1, #19
  401b80:	d803      	bhi.n	401b8a <udd_ep_clear_halt+0x56>
  401b82:	bf00      	nop
  401b84:	9901      	ldr	r1, [sp, #4]
  401b86:	3101      	adds	r1, #1
  401b88:	e7f7      	b.n	401b7a <udd_ep_clear_halt+0x46>
  401b8a:	4c1a      	ldr	r4, [pc, #104]	; (401bf4 <udd_ep_clear_halt+0xc0>)
  401b8c:	2501      	movs	r5, #1
  401b8e:	6aa1      	ldr	r1, [r4, #40]	; 0x28
  401b90:	fa05 f000 	lsl.w	r0, r5, r0
  401b94:	4301      	orrs	r1, r0
  401b96:	62a1      	str	r1, [r4, #40]	; 0x28
  401b98:	6aa1      	ldr	r1, [r4, #40]	; 0x28
  401b9a:	ea21 0000 	bic.w	r0, r1, r0
  401b9e:	62a0      	str	r0, [r4, #40]	; 0x28
  401ba0:	6b19      	ldr	r1, [r3, #48]	; 0x30
  401ba2:	9102      	str	r1, [sp, #8]
  401ba4:	9902      	ldr	r1, [sp, #8]
  401ba6:	f041 014f 	orr.w	r1, r1, #79	; 0x4f
  401baa:	9102      	str	r1, [sp, #8]
  401bac:	9802      	ldr	r0, [sp, #8]
  401bae:	f020 0008 	bic.w	r0, r0, #8
  401bb2:	9002      	str	r0, [sp, #8]
  401bb4:	9902      	ldr	r1, [sp, #8]
  401bb6:	6319      	str	r1, [r3, #48]	; 0x30
  401bb8:	2300      	movs	r3, #0
  401bba:	9303      	str	r3, [sp, #12]
  401bbc:	9b03      	ldr	r3, [sp, #12]
  401bbe:	2b13      	cmp	r3, #19
  401bc0:	d803      	bhi.n	401bca <udd_ep_clear_halt+0x96>
  401bc2:	bf00      	nop
  401bc4:	9b03      	ldr	r3, [sp, #12]
  401bc6:	3301      	adds	r3, #1
  401bc8:	e7f7      	b.n	401bba <udd_ep_clear_halt+0x86>
  401bca:	2314      	movs	r3, #20
  401bcc:	fb03 f106 	mul.w	r1, r3, r6
  401bd0:	1853      	adds	r3, r2, r1
  401bd2:	7c5a      	ldrb	r2, [r3, #17]
  401bd4:	06d0      	lsls	r0, r2, #27
  401bd6:	d505      	bpl.n	401be4 <udd_ep_clear_halt+0xb0>
  401bd8:	f36f 1204 	bfc	r2, #4, #1
  401bdc:	745a      	strb	r2, [r3, #17]
  401bde:	4b04      	ldr	r3, [pc, #16]	; (401bf0 <udd_ep_clear_halt+0xbc>)
  401be0:	585b      	ldr	r3, [r3, r1]
  401be2:	4798      	blx	r3
  401be4:	2001      	movs	r0, #1
  401be6:	e000      	b.n	401bea <udd_ep_clear_halt+0xb6>
  401be8:	2000      	movs	r0, #0
  401bea:	b004      	add	sp, #16
  401bec:	bd70      	pop	{r4, r5, r6, pc}
  401bee:	bf00      	nop
  401bf0:	200002c0 	.word	0x200002c0
  401bf4:	40034000 	.word	0x40034000

00401bf8 <udd_ep_run>:
  401bf8:	e92d 4ff0 	stmdb	sp!, {r4, r5, r6, r7, r8, r9, sl, fp, lr}
  401bfc:	f000 060f 	and.w	r6, r0, #15
  401c00:	b085      	sub	sp, #20
  401c02:	2e06      	cmp	r6, #6
  401c04:	4682      	mov	sl, r0
  401c06:	e88d 0006 	stmia.w	sp, {r1, r2}
  401c0a:	461d      	mov	r5, r3
  401c0c:	d869      	bhi.n	401ce2 <udd_ep_run+0xea>
  401c0e:	00b4      	lsls	r4, r6, #2
  401c10:	f104 2440 	add.w	r4, r4, #1073758208	; 0x40004000
  401c14:	f504 3440 	add.w	r4, r4, #196608	; 0x30000
  401c18:	6b20      	ldr	r0, [r4, #48]	; 0x30
  401c1a:	f410 4000 	ands.w	r0, r0, #32768	; 0x8000
  401c1e:	d061      	beq.n	401ce4 <udd_ep_run+0xec>
  401c20:	4a32      	ldr	r2, [pc, #200]	; (401cec <udd_ep_run+0xf4>)
  401c22:	1e71      	subs	r1, r6, #1
  401c24:	f04f 0914 	mov.w	r9, #20
  401c28:	fb09 f901 	mul.w	r9, r9, r1
  401c2c:	eb02 0709 	add.w	r7, r2, r9
  401c30:	4690      	mov	r8, r2
  401c32:	7c7b      	ldrb	r3, [r7, #17]
  401c34:	f003 0320 	and.w	r3, r3, #32
  401c38:	f003 00ff 	and.w	r0, r3, #255	; 0xff
  401c3c:	2b00      	cmp	r3, #0
  401c3e:	d150      	bne.n	401ce2 <udd_ep_run+0xea>
  401c40:	6b23      	ldr	r3, [r4, #48]	; 0x30
  401c42:	f013 0b20 	ands.w	fp, r3, #32
  401c46:	d14d      	bne.n	401ce4 <udd_ep_run+0xec>
  401c48:	4b29      	ldr	r3, [pc, #164]	; (401cf0 <udd_ep_run+0xf8>)
  401c4a:	9303      	str	r3, [sp, #12]
  401c4c:	4798      	blx	r3
  401c4e:	f897 e011 	ldrb.w	lr, [r7, #17]
  401c52:	4a28      	ldr	r2, [pc, #160]	; (401cf4 <udd_ep_run+0xfc>)
  401c54:	f00e 0e10 	and.w	lr, lr, #16
  401c58:	f00e 03ff 	and.w	r3, lr, #255	; 0xff
  401c5c:	9302      	str	r3, [sp, #8]
  401c5e:	9b03      	ldr	r3, [sp, #12]
  401c60:	f1be 0f00 	cmp.w	lr, #0
  401c64:	d002      	beq.n	401c6c <udd_ep_run+0x74>
  401c66:	4790      	blx	r2
  401c68:	4658      	mov	r0, fp
  401c6a:	e03b      	b.n	401ce4 <udd_ep_run+0xec>
  401c6c:	f897 e011 	ldrb.w	lr, [r7, #17]
  401c70:	9303      	str	r3, [sp, #12]
  401c72:	f04e 0e10 	orr.w	lr, lr, #16
  401c76:	f887 e011 	strb.w	lr, [r7, #17]
  401c7a:	4790      	blx	r2
  401c7c:	9a0e      	ldr	r2, [sp, #56]	; 0x38
  401c7e:	9b01      	ldr	r3, [sp, #4]
  401c80:	f848 2009 	str.w	r2, [r8, r9]
  401c84:	9a00      	ldr	r2, [sp, #0]
  401c86:	607b      	str	r3, [r7, #4]
  401c88:	9b02      	ldr	r3, [sp, #8]
  401c8a:	60fb      	str	r3, [r7, #12]
  401c8c:	60bd      	str	r5, [r7, #8]
  401c8e:	9b03      	ldr	r3, [sp, #12]
  401c90:	b91a      	cbnz	r2, 401c9a <udd_ep_run+0xa2>
  401c92:	fab5 f585 	clz	r5, r5
  401c96:	096d      	lsrs	r5, r5, #5
  401c98:	e000      	b.n	401c9c <udd_ep_run+0xa4>
  401c9a:	2501      	movs	r5, #1
  401c9c:	2214      	movs	r2, #20
  401c9e:	fb02 8101 	mla	r1, r2, r1, r8
  401ca2:	7c4a      	ldrb	r2, [r1, #17]
  401ca4:	f365 1286 	bfi	r2, r5, #6, #1
  401ca8:	f36f 12c7 	bfc	r2, #7, #1
  401cac:	744a      	strb	r2, [r1, #17]
  401cae:	4798      	blx	r3
  401cb0:	2101      	movs	r1, #1
  401cb2:	4b11      	ldr	r3, [pc, #68]	; (401cf8 <udd_ep_run+0x100>)
  401cb4:	fa01 f206 	lsl.w	r2, r1, r6
  401cb8:	f01a 0f80 	tst.w	sl, #128	; 0x80
  401cbc:	4607      	mov	r7, r0
  401cbe:	611a      	str	r2, [r3, #16]
  401cc0:	d00a      	beq.n	401cd8 <udd_ep_run+0xe0>
  401cc2:	6b23      	ldr	r3, [r4, #48]	; 0x30
  401cc4:	f013 0411 	ands.w	r4, r3, #17
  401cc8:	d106      	bne.n	401cd8 <udd_ep_run+0xe0>
  401cca:	4630      	mov	r0, r6
  401ccc:	4d0b      	ldr	r5, [pc, #44]	; (401cfc <udd_ep_run+0x104>)
  401cce:	47a8      	blx	r5
  401cd0:	b110      	cbz	r0, 401cd8 <udd_ep_run+0xe0>
  401cd2:	4621      	mov	r1, r4
  401cd4:	4630      	mov	r0, r6
  401cd6:	47a8      	blx	r5
  401cd8:	4638      	mov	r0, r7
  401cda:	4b06      	ldr	r3, [pc, #24]	; (401cf4 <udd_ep_run+0xfc>)
  401cdc:	4798      	blx	r3
  401cde:	2001      	movs	r0, #1
  401ce0:	e000      	b.n	401ce4 <udd_ep_run+0xec>
  401ce2:	2000      	movs	r0, #0
  401ce4:	b005      	add	sp, #20
  401ce6:	e8bd 8ff0 	ldmia.w	sp!, {r4, r5, r6, r7, r8, r9, sl, fp, pc}
  401cea:	bf00      	nop
  401cec:	200002c0 	.word	0x200002c0
  401cf0:	00400941 	.word	0x00400941
  401cf4:	00400c69 	.word	0x00400c69
  401cf8:	40034000 	.word	0x40034000
  401cfc:	00400ad5 	.word	0x00400ad5

00401d00 <udd_ep_abort>:
  401d00:	b5f0      	push	{r4, r5, r6, r7, lr}
  401d02:	f000 040f 	and.w	r4, r0, #15
  401d06:	2c06      	cmp	r4, #6
  401d08:	b089      	sub	sp, #36	; 0x24
  401d0a:	4606      	mov	r6, r0
  401d0c:	f200 809a 	bhi.w	401e44 <udd_ep_abort+0x144>
  401d10:	4b4d      	ldr	r3, [pc, #308]	; (401e48 <udd_ep_abort+0x148>)
  401d12:	4798      	blx	r3
  401d14:	2501      	movs	r5, #1
  401d16:	494d      	ldr	r1, [pc, #308]	; (401e4c <udd_ep_abort+0x14c>)
  401d18:	4b4d      	ldr	r3, [pc, #308]	; (401e50 <udd_ep_abort+0x150>)
  401d1a:	40a5      	lsls	r5, r4
  401d1c:	614d      	str	r5, [r1, #20]
  401d1e:	4798      	blx	r3
  401d20:	0630      	lsls	r0, r6, #24
  401d22:	d402      	bmi.n	401d2a <udd_ep_abort+0x2a>
  401d24:	460e      	mov	r6, r1
  401d26:	4f4b      	ldr	r7, [pc, #300]	; (401e54 <udd_ep_abort+0x154>)
  401d28:	e071      	b.n	401e0e <udd_ep_abort+0x10e>
  401d2a:	00a3      	lsls	r3, r4, #2
  401d2c:	f103 2340 	add.w	r3, r3, #1073758208	; 0x40004000
  401d30:	f503 3340 	add.w	r3, r3, #196608	; 0x30000
  401d34:	6b1a      	ldr	r2, [r3, #48]	; 0x30
  401d36:	06d1      	lsls	r1, r2, #27
  401d38:	d40d      	bmi.n	401d56 <udd_ep_abort+0x56>
  401d3a:	6b1a      	ldr	r2, [r3, #48]	; 0x30
  401d3c:	9206      	str	r2, [sp, #24]
  401d3e:	9a06      	ldr	r2, [sp, #24]
  401d40:	f042 024f 	orr.w	r2, r2, #79	; 0x4f
  401d44:	9206      	str	r2, [sp, #24]
  401d46:	9a06      	ldr	r2, [sp, #24]
  401d48:	f022 0201 	bic.w	r2, r2, #1
  401d4c:	9206      	str	r2, [sp, #24]
  401d4e:	9a06      	ldr	r2, [sp, #24]
  401d50:	631a      	str	r2, [r3, #48]	; 0x30
  401d52:	2300      	movs	r3, #0
  401d54:	e049      	b.n	401dea <udd_ep_abort+0xea>
  401d56:	b96c      	cbnz	r4, 401d74 <udd_ep_abort+0x74>
  401d58:	6b1a      	ldr	r2, [r3, #48]	; 0x30
  401d5a:	9204      	str	r2, [sp, #16]
  401d5c:	9a04      	ldr	r2, [sp, #16]
  401d5e:	f042 024f 	orr.w	r2, r2, #79	; 0x4f
  401d62:	9204      	str	r2, [sp, #16]
  401d64:	9a04      	ldr	r2, [sp, #16]
  401d66:	f022 0210 	bic.w	r2, r2, #16
  401d6a:	9204      	str	r2, [sp, #16]
  401d6c:	9a04      	ldr	r2, [sp, #16]
  401d6e:	631a      	str	r2, [r3, #48]	; 0x30
  401d70:	2200      	movs	r2, #0
  401d72:	e032      	b.n	401dda <udd_ep_abort+0xda>
  401d74:	2c03      	cmp	r4, #3
  401d76:	d0ef      	beq.n	401d58 <udd_ep_abort+0x58>
  401d78:	6b1a      	ldr	r2, [r3, #48]	; 0x30
  401d7a:	9200      	str	r2, [sp, #0]
  401d7c:	9a00      	ldr	r2, [sp, #0]
  401d7e:	f042 024f 	orr.w	r2, r2, #79	; 0x4f
  401d82:	9200      	str	r2, [sp, #0]
  401d84:	9a00      	ldr	r2, [sp, #0]
  401d86:	f022 0210 	bic.w	r2, r2, #16
  401d8a:	9200      	str	r2, [sp, #0]
  401d8c:	9a00      	ldr	r2, [sp, #0]
  401d8e:	631a      	str	r2, [r3, #48]	; 0x30
  401d90:	2200      	movs	r2, #0
  401d92:	9201      	str	r2, [sp, #4]
  401d94:	9a01      	ldr	r2, [sp, #4]
  401d96:	2a13      	cmp	r2, #19
  401d98:	d803      	bhi.n	401da2 <udd_ep_abort+0xa2>
  401d9a:	bf00      	nop
  401d9c:	9a01      	ldr	r2, [sp, #4]
  401d9e:	3201      	adds	r2, #1
  401da0:	e7f7      	b.n	401d92 <udd_ep_abort+0x92>
  401da2:	6b1a      	ldr	r2, [r3, #48]	; 0x30
  401da4:	f012 0210 	ands.w	r2, r2, #16
  401da8:	d1fb      	bne.n	401da2 <udd_ep_abort+0xa2>
  401daa:	6b19      	ldr	r1, [r3, #48]	; 0x30
  401dac:	9102      	str	r1, [sp, #8]
  401dae:	9902      	ldr	r1, [sp, #8]
  401db0:	f041 014f 	orr.w	r1, r1, #79	; 0x4f
  401db4:	9102      	str	r1, [sp, #8]
  401db6:	9902      	ldr	r1, [sp, #8]
  401db8:	f041 0110 	orr.w	r1, r1, #16
  401dbc:	9102      	str	r1, [sp, #8]
  401dbe:	9902      	ldr	r1, [sp, #8]
  401dc0:	6319      	str	r1, [r3, #48]	; 0x30
  401dc2:	9203      	str	r2, [sp, #12]
  401dc4:	9a03      	ldr	r2, [sp, #12]
  401dc6:	2a13      	cmp	r2, #19
  401dc8:	d803      	bhi.n	401dd2 <udd_ep_abort+0xd2>
  401dca:	bf00      	nop
  401dcc:	9a03      	ldr	r2, [sp, #12]
  401dce:	3201      	adds	r2, #1
  401dd0:	e7f7      	b.n	401dc2 <udd_ep_abort+0xc2>
  401dd2:	6b1a      	ldr	r2, [r3, #48]	; 0x30
  401dd4:	06d2      	lsls	r2, r2, #27
  401dd6:	d5fc      	bpl.n	401dd2 <udd_ep_abort+0xd2>
  401dd8:	e7be      	b.n	401d58 <udd_ep_abort+0x58>
  401dda:	9205      	str	r2, [sp, #20]
  401ddc:	9a05      	ldr	r2, [sp, #20]
  401dde:	2a13      	cmp	r2, #19
  401de0:	d8ab      	bhi.n	401d3a <udd_ep_abort+0x3a>
  401de2:	bf00      	nop
  401de4:	9a05      	ldr	r2, [sp, #20]
  401de6:	3201      	adds	r2, #1
  401de8:	e7f7      	b.n	401dda <udd_ep_abort+0xda>
  401dea:	9307      	str	r3, [sp, #28]
  401dec:	9b07      	ldr	r3, [sp, #28]
  401dee:	2b13      	cmp	r3, #19
  401df0:	d803      	bhi.n	401dfa <udd_ep_abort+0xfa>
  401df2:	bf00      	nop
  401df4:	9b07      	ldr	r3, [sp, #28]
  401df6:	3301      	adds	r3, #1
  401df8:	e7f7      	b.n	401dea <udd_ep_abort+0xea>
  401dfa:	4917      	ldr	r1, [pc, #92]	; (401e58 <udd_ep_abort+0x158>)
  401dfc:	1e63      	subs	r3, r4, #1
  401dfe:	2014      	movs	r0, #20
  401e00:	fb00 1303 	mla	r3, r0, r3, r1
  401e04:	7c5a      	ldrb	r2, [r3, #17]
  401e06:	f36f 0283 	bfc	r2, #2, #2
  401e0a:	745a      	strb	r2, [r3, #17]
  401e0c:	e009      	b.n	401e22 <udd_ep_abort+0x122>
  401e0e:	f104 030c 	add.w	r3, r4, #12
  401e12:	f856 3023 	ldr.w	r3, [r6, r3, lsl #2]
  401e16:	f013 0f42 	tst.w	r3, #66	; 0x42
  401e1a:	d002      	beq.n	401e22 <udd_ep_abort+0x122>
  401e1c:	4620      	mov	r0, r4
  401e1e:	47b8      	blx	r7
  401e20:	e7f5      	b.n	401e0e <udd_ep_abort+0x10e>
  401e22:	4b0a      	ldr	r3, [pc, #40]	; (401e4c <udd_ep_abort+0x14c>)
  401e24:	6a9a      	ldr	r2, [r3, #40]	; 0x28
  401e26:	432a      	orrs	r2, r5
  401e28:	629a      	str	r2, [r3, #40]	; 0x28
  401e2a:	6a9a      	ldr	r2, [r3, #40]	; 0x28
  401e2c:	ea22 0505 	bic.w	r5, r2, r5
  401e30:	629d      	str	r5, [r3, #40]	; 0x28
  401e32:	4b09      	ldr	r3, [pc, #36]	; (401e58 <udd_ep_abort+0x158>)
  401e34:	1e60      	subs	r0, r4, #1
  401e36:	4622      	mov	r2, r4
  401e38:	2414      	movs	r4, #20
  401e3a:	fb04 3000 	mla	r0, r4, r0, r3
  401e3e:	2101      	movs	r1, #1
  401e40:	4b06      	ldr	r3, [pc, #24]	; (401e5c <udd_ep_abort+0x15c>)
  401e42:	4798      	blx	r3
  401e44:	b009      	add	sp, #36	; 0x24
  401e46:	bdf0      	pop	{r4, r5, r6, r7, pc}
  401e48:	00400941 	.word	0x00400941
  401e4c:	40034000 	.word	0x40034000
  401e50:	00400c69 	.word	0x00400c69
  401e54:	00400a05 	.word	0x00400a05
  401e58:	200002c0 	.word	0x200002c0
  401e5c:	00400ea9 	.word	0x00400ea9

00401e60 <wdt_init>:
  401e60:	b510      	push	{r4, lr}
  401e62:	4c04      	ldr	r4, [pc, #16]	; (401e74 <wdt_init+0x14>)
  401e64:	f3c2 020b 	ubfx	r2, r2, #0, #12
  401e68:	ea04 4303 	and.w	r3, r4, r3, lsl #16
  401e6c:	4313      	orrs	r3, r2
  401e6e:	4319      	orrs	r1, r3
  401e70:	6041      	str	r1, [r0, #4]
  401e72:	bd10      	pop	{r4, pc}
  401e74:	0fff0000 	.word	0x0fff0000

00401e78 <wdt_disable>:
  401e78:	f44f 4300 	mov.w	r3, #32768	; 0x8000
  401e7c:	6043      	str	r3, [r0, #4]
  401e7e:	4770      	bx	lr

00401e80 <flash_is_gpnvm_set>:
  401e80:	2801      	cmp	r0, #1
  401e82:	b510      	push	{r4, lr}
  401e84:	4604      	mov	r4, r0
  401e86:	d80f      	bhi.n	401ea8 <flash_is_gpnvm_set+0x28>
  401e88:	2200      	movs	r2, #0
  401e8a:	210d      	movs	r1, #13
  401e8c:	4808      	ldr	r0, [pc, #32]	; (401eb0 <flash_is_gpnvm_set+0x30>)
  401e8e:	4b09      	ldr	r3, [pc, #36]	; (401eb4 <flash_is_gpnvm_set+0x34>)
  401e90:	4798      	blx	r3
  401e92:	b958      	cbnz	r0, 401eac <flash_is_gpnvm_set+0x2c>
  401e94:	4b08      	ldr	r3, [pc, #32]	; (401eb8 <flash_is_gpnvm_set+0x38>)
  401e96:	4806      	ldr	r0, [pc, #24]	; (401eb0 <flash_is_gpnvm_set+0x30>)
  401e98:	4798      	blx	r3
  401e9a:	2301      	movs	r3, #1
  401e9c:	40a3      	lsls	r3, r4
  401e9e:	4203      	tst	r3, r0
  401ea0:	bf14      	ite	ne
  401ea2:	2001      	movne	r0, #1
  401ea4:	2000      	moveq	r0, #0
  401ea6:	bd10      	pop	{r4, pc}
  401ea8:	2011      	movs	r0, #17
  401eaa:	bd10      	pop	{r4, pc}
  401eac:	2010      	movs	r0, #16
  401eae:	bd10      	pop	{r4, pc}
  401eb0:	400e0a00 	.word	0x400e0a00
  401eb4:	00400741 	.word	0x00400741
  401eb8:	0040073d 	.word	0x0040073d

00401ebc <flash_clear_gpnvm>:
  401ebc:	2801      	cmp	r0, #1
  401ebe:	b510      	push	{r4, lr}
  401ec0:	4604      	mov	r4, r0
  401ec2:	d80d      	bhi.n	401ee0 <flash_clear_gpnvm+0x24>
  401ec4:	4b07      	ldr	r3, [pc, #28]	; (401ee4 <flash_clear_gpnvm+0x28>)
  401ec6:	4798      	blx	r3
  401ec8:	b908      	cbnz	r0, 401ece <flash_clear_gpnvm+0x12>
  401eca:	2000      	movs	r0, #0
  401ecc:	bd10      	pop	{r4, pc}
  401ece:	4622      	mov	r2, r4
  401ed0:	210c      	movs	r1, #12
  401ed2:	4805      	ldr	r0, [pc, #20]	; (401ee8 <flash_clear_gpnvm+0x2c>)
  401ed4:	4b05      	ldr	r3, [pc, #20]	; (401eec <flash_clear_gpnvm+0x30>)
  401ed6:	4798      	blx	r3
  401ed8:	2800      	cmp	r0, #0
  401eda:	d0f6      	beq.n	401eca <flash_clear_gpnvm+0xe>
  401edc:	2010      	movs	r0, #16
  401ede:	bd10      	pop	{r4, pc}
  401ee0:	2011      	movs	r0, #17
  401ee2:	bd10      	pop	{r4, pc}
  401ee4:	00401e81 	.word	0x00401e81
  401ee8:	400e0a00 	.word	0x400e0a00
  401eec:	00400741 	.word	0x00400741

00401ef0 <osc_enable>:
  401ef0:	3801      	subs	r0, #1
  401ef2:	2806      	cmp	r0, #6
  401ef4:	d818      	bhi.n	401f28 <osc_enable+0x38>
  401ef6:	e8df f000 	tbb	[pc, r0]
  401efa:	0604      	.short	0x0604
  401efc:	100d0b09 	.word	0x100d0b09
  401f00:	13          	.byte	0x13
  401f01:	00          	.byte	0x00
  401f02:	2000      	movs	r0, #0
  401f04:	e000      	b.n	401f08 <osc_enable+0x18>
  401f06:	2001      	movs	r0, #1
  401f08:	4b08      	ldr	r3, [pc, #32]	; (401f2c <osc_enable+0x3c>)
  401f0a:	4718      	bx	r3
  401f0c:	2000      	movs	r0, #0
  401f0e:	e002      	b.n	401f16 <osc_enable+0x26>
  401f10:	2010      	movs	r0, #16
  401f12:	e000      	b.n	401f16 <osc_enable+0x26>
  401f14:	2020      	movs	r0, #32
  401f16:	4b06      	ldr	r3, [pc, #24]	; (401f30 <osc_enable+0x40>)
  401f18:	e7f7      	b.n	401f0a <osc_enable+0x1a>
  401f1a:	213e      	movs	r1, #62	; 0x3e
  401f1c:	2000      	movs	r0, #0
  401f1e:	e001      	b.n	401f24 <osc_enable+0x34>
  401f20:	213e      	movs	r1, #62	; 0x3e
  401f22:	2001      	movs	r0, #1
  401f24:	4b03      	ldr	r3, [pc, #12]	; (401f34 <osc_enable+0x44>)
  401f26:	4718      	bx	r3
  401f28:	4770      	bx	lr
  401f2a:	bf00      	nop
  401f2c:	00402219 	.word	0x00402219
  401f30:	00402239 	.word	0x00402239
  401f34:	00402281 	.word	0x00402281

00401f38 <osc_wait_ready.constprop.4>:
  401f38:	b510      	push	{r4, lr}
  401f3a:	4c02      	ldr	r4, [pc, #8]	; (401f44 <osc_wait_ready.constprop.4+0xc>)
  401f3c:	47a0      	blx	r4
  401f3e:	2800      	cmp	r0, #0
  401f40:	d0fc      	beq.n	401f3c <osc_wait_ready.constprop.4+0x4>
  401f42:	bd10      	pop	{r4, pc}
  401f44:	004022d1 	.word	0x004022d1

00401f48 <sysclk_enable_usb>:
  401f48:	b510      	push	{r4, lr}
  401f4a:	2006      	movs	r0, #6
  401f4c:	4b09      	ldr	r3, [pc, #36]	; (401f74 <sysclk_enable_usb+0x2c>)
  401f4e:	4c0a      	ldr	r4, [pc, #40]	; (401f78 <sysclk_enable_usb+0x30>)
  401f50:	4798      	blx	r3
  401f52:	4b0a      	ldr	r3, [pc, #40]	; (401f7c <sysclk_enable_usb+0x34>)
  401f54:	4798      	blx	r3
  401f56:	4b0a      	ldr	r3, [pc, #40]	; (401f80 <sysclk_enable_usb+0x38>)
  401f58:	4798      	blx	r3
  401f5a:	4b0a      	ldr	r3, [pc, #40]	; (401f84 <sysclk_enable_usb+0x3c>)
  401f5c:	4a0a      	ldr	r2, [pc, #40]	; (401f88 <sysclk_enable_usb+0x40>)
  401f5e:	62da      	str	r2, [r3, #44]	; 0x2c
  401f60:	47a0      	blx	r4
  401f62:	2800      	cmp	r0, #0
  401f64:	d0fc      	beq.n	401f60 <sysclk_enable_usb+0x18>
  401f66:	4b09      	ldr	r3, [pc, #36]	; (401f8c <sysclk_enable_usb+0x44>)
  401f68:	2000      	movs	r0, #0
  401f6a:	4798      	blx	r3
  401f6c:	4b08      	ldr	r3, [pc, #32]	; (401f90 <sysclk_enable_usb+0x48>)
  401f6e:	e8bd 4010 	ldmia.w	sp!, {r4, lr}
  401f72:	4718      	bx	r3
  401f74:	00401ef1 	.word	0x00401ef1
  401f78:	0040230d 	.word	0x0040230d
  401f7c:	00401f39 	.word	0x00401f39
  401f80:	00402301 	.word	0x00402301
  401f84:	400e0400 	.word	0x400e0400
  401f88:	00023f01 	.word	0x00023f01
  401f8c:	004023c5 	.word	0x004023c5
  401f90:	004023d9 	.word	0x004023d9

00401f94 <sysclk_init>:
  401f94:	b570      	push	{r4, r5, r6, lr}
  401f96:	480d      	ldr	r0, [pc, #52]	; (401fcc <sysclk_init+0x38>)
  401f98:	4c0d      	ldr	r4, [pc, #52]	; (401fd0 <sysclk_init+0x3c>)
  401f9a:	4d0e      	ldr	r5, [pc, #56]	; (401fd4 <sysclk_init+0x40>)
  401f9c:	47a0      	blx	r4
  401f9e:	2006      	movs	r0, #6
  401fa0:	4b0d      	ldr	r3, [pc, #52]	; (401fd8 <sysclk_init+0x44>)
  401fa2:	4798      	blx	r3
  401fa4:	4b0d      	ldr	r3, [pc, #52]	; (401fdc <sysclk_init+0x48>)
  401fa6:	4798      	blx	r3
  401fa8:	4b0d      	ldr	r3, [pc, #52]	; (401fe0 <sysclk_init+0x4c>)
  401faa:	4798      	blx	r3
  401fac:	4b0d      	ldr	r3, [pc, #52]	; (401fe4 <sysclk_init+0x50>)
  401fae:	4a0e      	ldr	r2, [pc, #56]	; (401fe8 <sysclk_init+0x54>)
  401fb0:	629a      	str	r2, [r3, #40]	; 0x28
  401fb2:	47a8      	blx	r5
  401fb4:	2800      	cmp	r0, #0
  401fb6:	d0fc      	beq.n	401fb2 <sysclk_init+0x1e>
  401fb8:	4b0c      	ldr	r3, [pc, #48]	; (401fec <sysclk_init+0x58>)
  401fba:	2000      	movs	r0, #0
  401fbc:	4798      	blx	r3
  401fbe:	4b0c      	ldr	r3, [pc, #48]	; (401ff0 <sysclk_init+0x5c>)
  401fc0:	4798      	blx	r3
  401fc2:	4623      	mov	r3, r4
  401fc4:	480b      	ldr	r0, [pc, #44]	; (401ff4 <sysclk_init+0x60>)
  401fc6:	e8bd 4070 	ldmia.w	sp!, {r4, r5, r6, lr}
  401fca:	4718      	bx	r3
  401fcc:	07270e00 	.word	0x07270e00
  401fd0:	00402851 	.word	0x00402851
  401fd4:	004022f1 	.word	0x004022f1
  401fd8:	00401ef1 	.word	0x00401ef1
  401fdc:	00401f39 	.word	0x00401f39
  401fe0:	004022e1 	.word	0x004022e1
  401fe4:	400e0400 	.word	0x400e0400
  401fe8:	20053f01 	.word	0x20053f01
  401fec:	004021d5 	.word	0x004021d5
  401ff0:	00402785 	.word	0x00402785
  401ff4:	05b8d800 	.word	0x05b8d800

00401ff8 <dacc_reset>:
  401ff8:	2301      	movs	r3, #1
  401ffa:	6003      	str	r3, [r0, #0]
  401ffc:	4770      	bx	lr

00401ffe <dacc_set_transfer_mode>:
  401ffe:	6843      	ldr	r3, [r0, #4]
  402000:	f443 7380 	orr.w	r3, r3, #256	; 0x100
  402004:	6043      	str	r3, [r0, #4]
  402006:	6843      	ldr	r3, [r0, #4]
  402008:	b111      	cbz	r1, 402010 <dacc_set_transfer_mode+0x12>
  40200a:	f043 0310 	orr.w	r3, r3, #16
  40200e:	e001      	b.n	402014 <dacc_set_transfer_mode+0x16>
  402010:	f023 0310 	bic.w	r3, r3, #16
  402014:	6043      	str	r3, [r0, #4]
  402016:	2000      	movs	r0, #0
  402018:	4770      	bx	lr

0040201a <dacc_get_interrupt_status>:
  40201a:	6b00      	ldr	r0, [r0, #48]	; 0x30
  40201c:	4770      	bx	lr

0040201e <dacc_write_conversion_data>:
  40201e:	6201      	str	r1, [r0, #32]
  402020:	4770      	bx	lr

00402022 <dacc_set_channel_selection>:
  402022:	6843      	ldr	r3, [r0, #4]
  402024:	2901      	cmp	r1, #1
  402026:	bf9f      	itttt	ls
  402028:	f423 1398 	bicls.w	r3, r3, #1245184	; 0x130000
  40202c:	ea43 4101 	orrls.w	r1, r3, r1, lsl #16
  402030:	6041      	strls	r1, [r0, #4]
  402032:	2000      	movls	r0, #0
  402034:	bf88      	it	hi
  402036:	2001      	movhi	r0, #1
  402038:	4770      	bx	lr

0040203a <dacc_enable_channel>:
  40203a:	2901      	cmp	r1, #1
  40203c:	f04f 0301 	mov.w	r3, #1
  402040:	bf9d      	ittte	ls
  402042:	408b      	lslls	r3, r1
  402044:	6103      	strls	r3, [r0, #16]
  402046:	2000      	movls	r0, #0
  402048:	4618      	movhi	r0, r3
  40204a:	4770      	bx	lr

0040204c <pio_set_peripheral>:
  40204c:	f1b1 5fc0 	cmp.w	r1, #402653184	; 0x18000000
  402050:	b510      	push	{r4, lr}
  402052:	6442      	str	r2, [r0, #68]	; 0x44
  402054:	d02d      	beq.n	4020b2 <pio_set_peripheral+0x66>
  402056:	d807      	bhi.n	402068 <pio_set_peripheral+0x1c>
  402058:	f1b1 6f00 	cmp.w	r1, #134217728	; 0x8000000
  40205c:	d015      	beq.n	40208a <pio_set_peripheral+0x3e>
  40205e:	f1b1 5f80 	cmp.w	r1, #268435456	; 0x10000000
  402062:	d01d      	beq.n	4020a0 <pio_set_peripheral+0x54>
  402064:	bb71      	cbnz	r1, 4020c4 <pio_set_peripheral+0x78>
  402066:	bd10      	pop	{r4, pc}
  402068:	f1b1 5f20 	cmp.w	r1, #671088640	; 0x28000000
  40206c:	d02b      	beq.n	4020c6 <pio_set_peripheral+0x7a>
  40206e:	d805      	bhi.n	40207c <pio_set_peripheral+0x30>
  402070:	f1b1 5f00 	cmp.w	r1, #536870912	; 0x20000000
  402074:	d126      	bne.n	4020c4 <pio_set_peripheral+0x78>
  402076:	6f03      	ldr	r3, [r0, #112]	; 0x70
  402078:	4313      	orrs	r3, r2
  40207a:	e01f      	b.n	4020bc <pio_set_peripheral+0x70>
  40207c:	f1b1 5f40 	cmp.w	r1, #805306368	; 0x30000000
  402080:	d021      	beq.n	4020c6 <pio_set_peripheral+0x7a>
  402082:	f1b1 5f60 	cmp.w	r1, #939524096	; 0x38000000
  402086:	d01e      	beq.n	4020c6 <pio_set_peripheral+0x7a>
  402088:	e01c      	b.n	4020c4 <pio_set_peripheral+0x78>
  40208a:	6f04      	ldr	r4, [r0, #112]	; 0x70
  40208c:	6f01      	ldr	r1, [r0, #112]	; 0x70
  40208e:	43d3      	mvns	r3, r2
  402090:	4021      	ands	r1, r4
  402092:	4019      	ands	r1, r3
  402094:	6701      	str	r1, [r0, #112]	; 0x70
  402096:	6f44      	ldr	r4, [r0, #116]	; 0x74
  402098:	6f41      	ldr	r1, [r0, #116]	; 0x74
  40209a:	4021      	ands	r1, r4
  40209c:	400b      	ands	r3, r1
  40209e:	e010      	b.n	4020c2 <pio_set_peripheral+0x76>
  4020a0:	6f03      	ldr	r3, [r0, #112]	; 0x70
  4020a2:	4313      	orrs	r3, r2
  4020a4:	6703      	str	r3, [r0, #112]	; 0x70
  4020a6:	6f41      	ldr	r1, [r0, #116]	; 0x74
  4020a8:	6f43      	ldr	r3, [r0, #116]	; 0x74
  4020aa:	400b      	ands	r3, r1
  4020ac:	ea23 0302 	bic.w	r3, r3, r2
  4020b0:	e007      	b.n	4020c2 <pio_set_peripheral+0x76>
  4020b2:	6f01      	ldr	r1, [r0, #112]	; 0x70
  4020b4:	6f03      	ldr	r3, [r0, #112]	; 0x70
  4020b6:	400b      	ands	r3, r1
  4020b8:	ea23 0302 	bic.w	r3, r3, r2
  4020bc:	6703      	str	r3, [r0, #112]	; 0x70
  4020be:	6f43      	ldr	r3, [r0, #116]	; 0x74
  4020c0:	4313      	orrs	r3, r2
  4020c2:	6743      	str	r3, [r0, #116]	; 0x74
  4020c4:	6042      	str	r2, [r0, #4]
  4020c6:	bd10      	pop	{r4, pc}

004020c8 <pio_set_input>:
  4020c8:	07d3      	lsls	r3, r2, #31
  4020ca:	6441      	str	r1, [r0, #68]	; 0x44
  4020cc:	bf4c      	ite	mi
  4020ce:	6641      	strmi	r1, [r0, #100]	; 0x64
  4020d0:	6601      	strpl	r1, [r0, #96]	; 0x60
  4020d2:	f012 0f0a 	tst.w	r2, #10
  4020d6:	bf14      	ite	ne
  4020d8:	6201      	strne	r1, [r0, #32]
  4020da:	6241      	streq	r1, [r0, #36]	; 0x24
  4020dc:	0793      	lsls	r3, r2, #30
  4020de:	d502      	bpl.n	4020e6 <pio_set_input+0x1e>
  4020e0:	f8c0 1080 	str.w	r1, [r0, #128]	; 0x80
  4020e4:	e003      	b.n	4020ee <pio_set_input+0x26>
  4020e6:	0713      	lsls	r3, r2, #28
  4020e8:	bf48      	it	mi
  4020ea:	f8c0 1084 	strmi.w	r1, [r0, #132]	; 0x84
  4020ee:	6141      	str	r1, [r0, #20]
  4020f0:	6001      	str	r1, [r0, #0]
  4020f2:	4770      	bx	lr

004020f4 <pio_set_output>:
  4020f4:	b510      	push	{r4, lr}
  4020f6:	9c02      	ldr	r4, [sp, #8]
  4020f8:	6441      	str	r1, [r0, #68]	; 0x44
  4020fa:	b10c      	cbz	r4, 402100 <pio_set_output+0xc>
  4020fc:	6641      	str	r1, [r0, #100]	; 0x64
  4020fe:	e000      	b.n	402102 <pio_set_output+0xe>
  402100:	6601      	str	r1, [r0, #96]	; 0x60
  402102:	b10b      	cbz	r3, 402108 <pio_set_output+0x14>
  402104:	6501      	str	r1, [r0, #80]	; 0x50
  402106:	e000      	b.n	40210a <pio_set_output+0x16>
  402108:	6541      	str	r1, [r0, #84]	; 0x54
  40210a:	b10a      	cbz	r2, 402110 <pio_set_output+0x1c>
  40210c:	6301      	str	r1, [r0, #48]	; 0x30
  40210e:	e000      	b.n	402112 <pio_set_output+0x1e>
  402110:	6341      	str	r1, [r0, #52]	; 0x34
  402112:	6101      	str	r1, [r0, #16]
  402114:	6001      	str	r1, [r0, #0]
  402116:	bd10      	pop	{r4, pc}

00402118 <pio_get_interrupt_status>:
  402118:	6cc0      	ldr	r0, [r0, #76]	; 0x4c
  40211a:	4770      	bx	lr

0040211c <pio_get_interrupt_mask>:
  40211c:	6c80      	ldr	r0, [r0, #72]	; 0x48
  40211e:	4770      	bx	lr

00402120 <pio_configure_pin>:
  402120:	b5f7      	push	{r0, r1, r2, r4, r5, r6, r7, lr}
  402122:	0945      	lsrs	r5, r0, #5
  402124:	460e      	mov	r6, r1
  402126:	f505 1500 	add.w	r5, r5, #2097152	; 0x200000
  40212a:	f001 41f0 	and.w	r1, r1, #2013265920	; 0x78000000
  40212e:	f205 7507 	addw	r5, r5, #1799	; 0x707
  402132:	f1b1 5f00 	cmp.w	r1, #536870912	; 0x20000000
  402136:	ea4f 2545 	mov.w	r5, r5, lsl #9
  40213a:	d01d      	beq.n	402178 <pio_configure_pin+0x58>
  40213c:	d809      	bhi.n	402152 <pio_configure_pin+0x32>
  40213e:	f1b1 5f80 	cmp.w	r1, #268435456	; 0x10000000
  402142:	d019      	beq.n	402178 <pio_configure_pin+0x58>
  402144:	f1b1 5fc0 	cmp.w	r1, #402653184	; 0x18000000
  402148:	d016      	beq.n	402178 <pio_configure_pin+0x58>
  40214a:	f1b1 6f00 	cmp.w	r1, #134217728	; 0x8000000
  40214e:	d138      	bne.n	4021c2 <pio_configure_pin+0xa2>
  402150:	e012      	b.n	402178 <pio_configure_pin+0x58>
  402152:	f1b1 5f40 	cmp.w	r1, #805306368	; 0x30000000
  402156:	d01f      	beq.n	402198 <pio_configure_pin+0x78>
  402158:	f1b1 5f60 	cmp.w	r1, #939524096	; 0x38000000
  40215c:	d01c      	beq.n	402198 <pio_configure_pin+0x78>
  40215e:	f1b1 5f20 	cmp.w	r1, #671088640	; 0x28000000
  402162:	d12e      	bne.n	4021c2 <pio_configure_pin+0xa2>
  402164:	f000 011f 	and.w	r1, r0, #31
  402168:	2401      	movs	r4, #1
  40216a:	4632      	mov	r2, r6
  40216c:	fa04 f101 	lsl.w	r1, r4, r1
  402170:	4628      	mov	r0, r5
  402172:	4b15      	ldr	r3, [pc, #84]	; (4021c8 <pio_configure_pin+0xa8>)
  402174:	4798      	blx	r3
  402176:	e022      	b.n	4021be <pio_configure_pin+0x9e>
  402178:	f000 041f 	and.w	r4, r0, #31
  40217c:	2701      	movs	r7, #1
  40217e:	fa07 f404 	lsl.w	r4, r7, r4
  402182:	4622      	mov	r2, r4
  402184:	4628      	mov	r0, r5
  402186:	4b11      	ldr	r3, [pc, #68]	; (4021cc <pio_configure_pin+0xac>)
  402188:	4798      	blx	r3
  40218a:	07f6      	lsls	r6, r6, #31
  40218c:	d402      	bmi.n	402194 <pio_configure_pin+0x74>
  40218e:	662c      	str	r4, [r5, #96]	; 0x60
  402190:	4638      	mov	r0, r7
  402192:	e017      	b.n	4021c4 <pio_configure_pin+0xa4>
  402194:	666c      	str	r4, [r5, #100]	; 0x64
  402196:	e7fb      	b.n	402190 <pio_configure_pin+0x70>
  402198:	f006 5260 	and.w	r2, r6, #939524096	; 0x38000000
  40219c:	f000 011f 	and.w	r1, r0, #31
  4021a0:	2401      	movs	r4, #1
  4021a2:	f102 4048 	add.w	r0, r2, #3355443200	; 0xc8000000
  4021a6:	ea06 0304 	and.w	r3, r6, r4
  4021aa:	4242      	negs	r2, r0
  4021ac:	9300      	str	r3, [sp, #0]
  4021ae:	4142      	adcs	r2, r0
  4021b0:	f3c6 0380 	ubfx	r3, r6, #2, #1
  4021b4:	4628      	mov	r0, r5
  4021b6:	fa04 f101 	lsl.w	r1, r4, r1
  4021ba:	4d05      	ldr	r5, [pc, #20]	; (4021d0 <pio_configure_pin+0xb0>)
  4021bc:	47a8      	blx	r5
  4021be:	4620      	mov	r0, r4
  4021c0:	e000      	b.n	4021c4 <pio_configure_pin+0xa4>
  4021c2:	2000      	movs	r0, #0
  4021c4:	b003      	add	sp, #12
  4021c6:	bdf0      	pop	{r4, r5, r6, r7, pc}
  4021c8:	004020c9 	.word	0x004020c9
  4021cc:	0040204d 	.word	0x0040204d
  4021d0:	004020f5 	.word	0x004020f5

004021d4 <pmc_switch_mck_to_pllack>:
  4021d4:	4b0f      	ldr	r3, [pc, #60]	; (402214 <pmc_switch_mck_to_pllack+0x40>)
  4021d6:	6b1a      	ldr	r2, [r3, #48]	; 0x30
  4021d8:	f022 0270 	bic.w	r2, r2, #112	; 0x70
  4021dc:	4310      	orrs	r0, r2
  4021de:	6318      	str	r0, [r3, #48]	; 0x30
  4021e0:	f640 0201 	movw	r2, #2049	; 0x801
  4021e4:	6e98      	ldr	r0, [r3, #104]	; 0x68
  4021e6:	490b      	ldr	r1, [pc, #44]	; (402214 <pmc_switch_mck_to_pllack+0x40>)
  4021e8:	0700      	lsls	r0, r0, #28
  4021ea:	d403      	bmi.n	4021f4 <pmc_switch_mck_to_pllack+0x20>
  4021ec:	3a01      	subs	r2, #1
  4021ee:	d1f9      	bne.n	4021e4 <pmc_switch_mck_to_pllack+0x10>
  4021f0:	2001      	movs	r0, #1
  4021f2:	4770      	bx	lr
  4021f4:	6b0a      	ldr	r2, [r1, #48]	; 0x30
  4021f6:	f022 0203 	bic.w	r2, r2, #3
  4021fa:	f042 0202 	orr.w	r2, r2, #2
  4021fe:	630a      	str	r2, [r1, #48]	; 0x30
  402200:	f640 0201 	movw	r2, #2049	; 0x801
  402204:	6e99      	ldr	r1, [r3, #104]	; 0x68
  402206:	0709      	lsls	r1, r1, #28
  402208:	d402      	bmi.n	402210 <pmc_switch_mck_to_pllack+0x3c>
  40220a:	3a01      	subs	r2, #1
  40220c:	d1fa      	bne.n	402204 <pmc_switch_mck_to_pllack+0x30>
  40220e:	e7ef      	b.n	4021f0 <pmc_switch_mck_to_pllack+0x1c>
  402210:	2000      	movs	r0, #0
  402212:	4770      	bx	lr
  402214:	400e0400 	.word	0x400e0400

00402218 <pmc_switch_sclk_to_32kxtal>:
  402218:	4a05      	ldr	r2, [pc, #20]	; (402230 <pmc_switch_sclk_to_32kxtal+0x18>)
  40221a:	2801      	cmp	r0, #1
  40221c:	bf01      	itttt	eq
  40221e:	6893      	ldreq	r3, [r2, #8]
  402220:	f043 4325 	orreq.w	r3, r3, #2768240640	; 0xa5000000
  402224:	f443 1380 	orreq.w	r3, r3, #1048576	; 0x100000
  402228:	6093      	streq	r3, [r2, #8]
  40222a:	4b02      	ldr	r3, [pc, #8]	; (402234 <pmc_switch_sclk_to_32kxtal+0x1c>)
  40222c:	6013      	str	r3, [r2, #0]
  40222e:	4770      	bx	lr
  402230:	400e1410 	.word	0x400e1410
  402234:	a5000008 	.word	0xa5000008

00402238 <pmc_switch_mainck_to_fastrc>:
  402238:	4a10      	ldr	r2, [pc, #64]	; (40227c <pmc_switch_mainck_to_fastrc+0x44>)
  40223a:	6a11      	ldr	r1, [r2, #32]
  40223c:	f441 115c 	orr.w	r1, r1, #3604480	; 0x370000
  402240:	f041 0108 	orr.w	r1, r1, #8
  402244:	6211      	str	r1, [r2, #32]
  402246:	6e93      	ldr	r3, [r2, #104]	; 0x68
  402248:	490c      	ldr	r1, [pc, #48]	; (40227c <pmc_switch_mainck_to_fastrc+0x44>)
  40224a:	039b      	lsls	r3, r3, #14
  40224c:	d5fb      	bpl.n	402246 <pmc_switch_mainck_to_fastrc+0xe>
  40224e:	6a0b      	ldr	r3, [r1, #32]
  402250:	f423 135c 	bic.w	r3, r3, #3604480	; 0x370000
  402254:	f023 0370 	bic.w	r3, r3, #112	; 0x70
  402258:	f443 135c 	orr.w	r3, r3, #3604480	; 0x370000
  40225c:	4303      	orrs	r3, r0
  40225e:	620b      	str	r3, [r1, #32]
  402260:	6e93      	ldr	r3, [r2, #104]	; 0x68
  402262:	4906      	ldr	r1, [pc, #24]	; (40227c <pmc_switch_mainck_to_fastrc+0x44>)
  402264:	039b      	lsls	r3, r3, #14
  402266:	d5fb      	bpl.n	402260 <pmc_switch_mainck_to_fastrc+0x28>
  402268:	6a0b      	ldr	r3, [r1, #32]
  40226a:	f023 739b 	bic.w	r3, r3, #20316160	; 0x1360000
  40226e:	f423 3380 	bic.w	r3, r3, #65536	; 0x10000
  402272:	f443 135c 	orr.w	r3, r3, #3604480	; 0x370000
  402276:	620b      	str	r3, [r1, #32]
  402278:	4770      	bx	lr
  40227a:	bf00      	nop
  40227c:	400e0400 	.word	0x400e0400

00402280 <pmc_switch_mainck_to_xtal>:
  402280:	b510      	push	{r4, lr}
  402282:	4c10      	ldr	r4, [pc, #64]	; (4022c4 <pmc_switch_mainck_to_xtal+0x44>)
  402284:	b130      	cbz	r0, 402294 <pmc_switch_mainck_to_xtal+0x14>
  402286:	6a23      	ldr	r3, [r4, #32]
  402288:	4a0f      	ldr	r2, [pc, #60]	; (4022c8 <pmc_switch_mainck_to_xtal+0x48>)
  40228a:	401a      	ands	r2, r3
  40228c:	4b0f      	ldr	r3, [pc, #60]	; (4022cc <pmc_switch_mainck_to_xtal+0x4c>)
  40228e:	4313      	orrs	r3, r2
  402290:	6223      	str	r3, [r4, #32]
  402292:	bd10      	pop	{r4, pc}
  402294:	6a22      	ldr	r2, [r4, #32]
  402296:	f422 135c 	bic.w	r3, r2, #3604480	; 0x370000
  40229a:	f023 0303 	bic.w	r3, r3, #3
  40229e:	0209      	lsls	r1, r1, #8
  4022a0:	f443 135c 	orr.w	r3, r3, #3604480	; 0x370000
  4022a4:	b289      	uxth	r1, r1
  4022a6:	f043 0301 	orr.w	r3, r3, #1
  4022aa:	430b      	orrs	r3, r1
  4022ac:	6223      	str	r3, [r4, #32]
  4022ae:	6ea3      	ldr	r3, [r4, #104]	; 0x68
  4022b0:	4a04      	ldr	r2, [pc, #16]	; (4022c4 <pmc_switch_mainck_to_xtal+0x44>)
  4022b2:	07db      	lsls	r3, r3, #31
  4022b4:	d5fb      	bpl.n	4022ae <pmc_switch_mainck_to_xtal+0x2e>
  4022b6:	6a13      	ldr	r3, [r2, #32]
  4022b8:	f043 739b 	orr.w	r3, r3, #20316160	; 0x1360000
  4022bc:	f443 3380 	orr.w	r3, r3, #65536	; 0x10000
  4022c0:	6213      	str	r3, [r2, #32]
  4022c2:	bd10      	pop	{r4, pc}
  4022c4:	400e0400 	.word	0x400e0400
  4022c8:	fec8fffc 	.word	0xfec8fffc
  4022cc:	01370002 	.word	0x01370002

004022d0 <pmc_osc_is_ready_mainck>:
  4022d0:	4b02      	ldr	r3, [pc, #8]	; (4022dc <pmc_osc_is_ready_mainck+0xc>)
  4022d2:	6e98      	ldr	r0, [r3, #104]	; 0x68
  4022d4:	f400 3080 	and.w	r0, r0, #65536	; 0x10000
  4022d8:	4770      	bx	lr
  4022da:	bf00      	nop
  4022dc:	400e0400 	.word	0x400e0400

004022e0 <pmc_disable_pllack>:
  4022e0:	4b02      	ldr	r3, [pc, #8]	; (4022ec <pmc_disable_pllack+0xc>)
  4022e2:	f04f 5200 	mov.w	r2, #536870912	; 0x20000000
  4022e6:	629a      	str	r2, [r3, #40]	; 0x28
  4022e8:	4770      	bx	lr
  4022ea:	bf00      	nop
  4022ec:	400e0400 	.word	0x400e0400

004022f0 <pmc_is_locked_pllack>:
  4022f0:	4b02      	ldr	r3, [pc, #8]	; (4022fc <pmc_is_locked_pllack+0xc>)
  4022f2:	6e98      	ldr	r0, [r3, #104]	; 0x68
  4022f4:	f000 0002 	and.w	r0, r0, #2
  4022f8:	4770      	bx	lr
  4022fa:	bf00      	nop
  4022fc:	400e0400 	.word	0x400e0400

00402300 <pmc_disable_pllbck>:
  402300:	4b01      	ldr	r3, [pc, #4]	; (402308 <pmc_disable_pllbck+0x8>)
  402302:	2200      	movs	r2, #0
  402304:	62da      	str	r2, [r3, #44]	; 0x2c
  402306:	4770      	bx	lr
  402308:	400e0400 	.word	0x400e0400

0040230c <pmc_is_locked_pllbck>:
  40230c:	4b02      	ldr	r3, [pc, #8]	; (402318 <pmc_is_locked_pllbck+0xc>)
  40230e:	6e98      	ldr	r0, [r3, #104]	; 0x68
  402310:	f000 0004 	and.w	r0, r0, #4
  402314:	4770      	bx	lr
  402316:	bf00      	nop
  402318:	400e0400 	.word	0x400e0400

0040231c <pmc_enable_periph_clk>:
  40231c:	2822      	cmp	r0, #34	; 0x22
  40231e:	d817      	bhi.n	402350 <pmc_enable_periph_clk+0x34>
  402320:	281f      	cmp	r0, #31
  402322:	4a0d      	ldr	r2, [pc, #52]	; (402358 <pmc_enable_periph_clk+0x3c>)
  402324:	f04f 0301 	mov.w	r3, #1
  402328:	d807      	bhi.n	40233a <pmc_enable_periph_clk+0x1e>
  40232a:	6991      	ldr	r1, [r2, #24]
  40232c:	fa03 f000 	lsl.w	r0, r3, r0
  402330:	ea30 0301 	bics.w	r3, r0, r1
  402334:	d00e      	beq.n	402354 <pmc_enable_periph_clk+0x38>
  402336:	6110      	str	r0, [r2, #16]
  402338:	e00c      	b.n	402354 <pmc_enable_periph_clk+0x38>
  40233a:	3820      	subs	r0, #32
  40233c:	f8d2 1108 	ldr.w	r1, [r2, #264]	; 0x108
  402340:	fa03 f000 	lsl.w	r0, r3, r0
  402344:	ea30 0301 	bics.w	r3, r0, r1
  402348:	d004      	beq.n	402354 <pmc_enable_periph_clk+0x38>
  40234a:	f8c2 0100 	str.w	r0, [r2, #256]	; 0x100
  40234e:	e001      	b.n	402354 <pmc_enable_periph_clk+0x38>
  402350:	2001      	movs	r0, #1
  402352:	4770      	bx	lr
  402354:	2000      	movs	r0, #0
  402356:	4770      	bx	lr
  402358:	400e0400 	.word	0x400e0400

0040235c <pmc_disable_periph_clk>:
  40235c:	2822      	cmp	r0, #34	; 0x22
  40235e:	d817      	bhi.n	402390 <pmc_disable_periph_clk+0x34>
  402360:	281f      	cmp	r0, #31
  402362:	4a0d      	ldr	r2, [pc, #52]	; (402398 <pmc_disable_periph_clk+0x3c>)
  402364:	f04f 0301 	mov.w	r3, #1
  402368:	d807      	bhi.n	40237a <pmc_disable_periph_clk+0x1e>
  40236a:	6991      	ldr	r1, [r2, #24]
  40236c:	fa03 f000 	lsl.w	r0, r3, r0
  402370:	ea30 0301 	bics.w	r3, r0, r1
  402374:	d10e      	bne.n	402394 <pmc_disable_periph_clk+0x38>
  402376:	6150      	str	r0, [r2, #20]
  402378:	e00c      	b.n	402394 <pmc_disable_periph_clk+0x38>
  40237a:	3820      	subs	r0, #32
  40237c:	f8d2 1108 	ldr.w	r1, [r2, #264]	; 0x108
  402380:	fa03 f000 	lsl.w	r0, r3, r0
  402384:	ea30 0301 	bics.w	r3, r0, r1
  402388:	d104      	bne.n	402394 <pmc_disable_periph_clk+0x38>
  40238a:	f8c2 0104 	str.w	r0, [r2, #260]	; 0x104
  40238e:	e001      	b.n	402394 <pmc_disable_periph_clk+0x38>
  402390:	2001      	movs	r0, #1
  402392:	4770      	bx	lr
  402394:	2000      	movs	r0, #0
  402396:	4770      	bx	lr
  402398:	400e0400 	.word	0x400e0400

0040239c <pmc_disable_all_periph_clk>:
  40239c:	4b08      	ldr	r3, [pc, #32]	; (4023c0 <pmc_disable_all_periph_clk+0x24>)
  40239e:	f06f 0203 	mvn.w	r2, #3
  4023a2:	615a      	str	r2, [r3, #20]
  4023a4:	699a      	ldr	r2, [r3, #24]
  4023a6:	f032 0203 	bics.w	r2, r2, #3
  4023aa:	d1fb      	bne.n	4023a4 <pmc_disable_all_periph_clk+0x8>
  4023ac:	4a04      	ldr	r2, [pc, #16]	; (4023c0 <pmc_disable_all_periph_clk+0x24>)
  4023ae:	f04f 31ff 	mov.w	r1, #4294967295
  4023b2:	f8c2 1104 	str.w	r1, [r2, #260]	; 0x104
  4023b6:	f8d3 2108 	ldr.w	r2, [r3, #264]	; 0x108
  4023ba:	2a00      	cmp	r2, #0
  4023bc:	d1fb      	bne.n	4023b6 <pmc_disable_all_periph_clk+0x1a>
  4023be:	4770      	bx	lr
  4023c0:	400e0400 	.word	0x400e0400

004023c4 <pmc_switch_udpck_to_pllbck>:
  4023c4:	0200      	lsls	r0, r0, #8
  4023c6:	f400 6070 	and.w	r0, r0, #3840	; 0xf00
  4023ca:	4b02      	ldr	r3, [pc, #8]	; (4023d4 <pmc_switch_udpck_to_pllbck+0x10>)
  4023cc:	f040 0001 	orr.w	r0, r0, #1
  4023d0:	6398      	str	r0, [r3, #56]	; 0x38
  4023d2:	4770      	bx	lr
  4023d4:	400e0400 	.word	0x400e0400

004023d8 <pmc_enable_udpck>:
  4023d8:	4b01      	ldr	r3, [pc, #4]	; (4023e0 <pmc_enable_udpck+0x8>)
  4023da:	2280      	movs	r2, #128	; 0x80
  4023dc:	601a      	str	r2, [r3, #0]
  4023de:	4770      	bx	lr
  4023e0:	400e0400 	.word	0x400e0400

004023e4 <pmc_set_fast_startup_input>:
  4023e4:	4a03      	ldr	r2, [pc, #12]	; (4023f4 <pmc_set_fast_startup_input+0x10>)
  4023e6:	6f13      	ldr	r3, [r2, #112]	; 0x70
  4023e8:	f3c0 0012 	ubfx	r0, r0, #0, #19
  4023ec:	4303      	orrs	r3, r0
  4023ee:	6713      	str	r3, [r2, #112]	; 0x70
  4023f0:	4770      	bx	lr
  4023f2:	bf00      	nop
  4023f4:	400e0400 	.word	0x400e0400

004023f8 <pmc_set_flash_in_wait_mode>:
  4023f8:	4b01      	ldr	r3, [pc, #4]	; (402400 <pmc_set_flash_in_wait_mode+0x8>)
  4023fa:	6018      	str	r0, [r3, #0]
  4023fc:	4770      	bx	lr
  4023fe:	bf00      	nop
  402400:	2000015c 	.word	0x2000015c

00402404 <pmc_enable_waitmode>:
  402404:	4b10      	ldr	r3, [pc, #64]	; (402448 <pmc_enable_waitmode+0x44>)
  402406:	6f1a      	ldr	r2, [r3, #112]	; 0x70
  402408:	f422 01c0 	bic.w	r1, r2, #6291456	; 0x600000
  40240c:	4a0f      	ldr	r2, [pc, #60]	; (40244c <pmc_enable_waitmode+0x48>)
  40240e:	6812      	ldr	r2, [r2, #0]
  402410:	430a      	orrs	r2, r1
  402412:	671a      	str	r2, [r3, #112]	; 0x70
  402414:	6a1a      	ldr	r2, [r3, #32]
  402416:	f442 125c 	orr.w	r2, r2, #3604480	; 0x370000
  40241a:	f042 0204 	orr.w	r2, r2, #4
  40241e:	621a      	str	r2, [r3, #32]
  402420:	6e9a      	ldr	r2, [r3, #104]	; 0x68
  402422:	0710      	lsls	r0, r2, #28
  402424:	d5fc      	bpl.n	402420 <pmc_enable_waitmode+0x1c>
  402426:	f44f 72fa 	mov.w	r2, #500	; 0x1f4
  40242a:	bf00      	nop
  40242c:	3a01      	subs	r2, #1
  40242e:	d1fc      	bne.n	40242a <pmc_enable_waitmode+0x26>
  402430:	6a19      	ldr	r1, [r3, #32]
  402432:	4a05      	ldr	r2, [pc, #20]	; (402448 <pmc_enable_waitmode+0x44>)
  402434:	0709      	lsls	r1, r1, #28
  402436:	d5fb      	bpl.n	402430 <pmc_enable_waitmode+0x2c>
  402438:	6f13      	ldr	r3, [r2, #112]	; 0x70
  40243a:	f423 03c0 	bic.w	r3, r3, #6291456	; 0x600000
  40243e:	f443 0380 	orr.w	r3, r3, #4194304	; 0x400000
  402442:	6713      	str	r3, [r2, #112]	; 0x70
  402444:	4770      	bx	lr
  402446:	bf00      	nop
  402448:	400e0400 	.word	0x400e0400
  40244c:	2000015c 	.word	0x2000015c

00402450 <pmc_sleep>:
  402450:	e92d 4ff0 	stmdb	sp!, {r4, r5, r6, r7, r8, r9, sl, fp, lr}
  402454:	1e43      	subs	r3, r0, #1
  402456:	b085      	sub	sp, #20
  402458:	4683      	mov	fp, r0
  40245a:	2b04      	cmp	r3, #4
  40245c:	f200 80fa 	bhi.w	402654 <pmc_sleep+0x204>
  402460:	e8df f013 	tbh	[pc, r3, lsl #1]
  402464:	00050005 	.word	0x00050005
  402468:	000b000b 	.word	0x000b000b
  40246c:	00e9      	.short	0x00e9
  40246e:	4a7b      	ldr	r2, [pc, #492]	; (40265c <pmc_sleep+0x20c>)
  402470:	6913      	ldr	r3, [r2, #16]
  402472:	f023 0304 	bic.w	r3, r3, #4
  402476:	6113      	str	r3, [r2, #16]
  402478:	e0e5      	b.n	402646 <pmc_sleep+0x1f6>
  40247a:	2803      	cmp	r0, #3
  40247c:	4b78      	ldr	r3, [pc, #480]	; (402660 <pmc_sleep+0x210>)
  40247e:	bf0c      	ite	eq
  402480:	2000      	moveq	r0, #0
  402482:	f44f 1000 	movne.w	r0, #2097152	; 0x200000
  402486:	4798      	blx	r3
  402488:	b672      	cpsid	i
  40248a:	f3bf 8f5f 	dmb	sy
  40248e:	4d75      	ldr	r5, [pc, #468]	; (402664 <pmc_sleep+0x214>)
  402490:	4f75      	ldr	r7, [pc, #468]	; (402668 <pmc_sleep+0x218>)
  402492:	4c76      	ldr	r4, [pc, #472]	; (40266c <pmc_sleep+0x21c>)
  402494:	4e76      	ldr	r6, [pc, #472]	; (402670 <pmc_sleep+0x220>)
  402496:	2300      	movs	r3, #0
  402498:	702b      	strb	r3, [r5, #0]
  40249a:	2301      	movs	r3, #1
  40249c:	703b      	strb	r3, [r7, #0]
  40249e:	f8d4 a020 	ldr.w	sl, [r4, #32]
  4024a2:	f8d4 8030 	ldr.w	r8, [r4, #48]	; 0x30
  4024a6:	6833      	ldr	r3, [r6, #0]
  4024a8:	9301      	str	r3, [sp, #4]
  4024aa:	6aa3      	ldr	r3, [r4, #40]	; 0x28
  4024ac:	9302      	str	r3, [sp, #8]
  4024ae:	6ae3      	ldr	r3, [r4, #44]	; 0x2c
  4024b0:	9303      	str	r3, [sp, #12]
  4024b2:	f008 0903 	and.w	r9, r8, #3
  4024b6:	f44a 135c 	orr.w	r3, sl, #3604480	; 0x370000
  4024ba:	f043 0308 	orr.w	r3, r3, #8
  4024be:	f1b9 0f01 	cmp.w	r9, #1
  4024c2:	6223      	str	r3, [r4, #32]
  4024c4:	d908      	bls.n	4024d8 <pmc_sleep+0x88>
  4024c6:	f028 0303 	bic.w	r3, r8, #3
  4024ca:	f043 0301 	orr.w	r3, r3, #1
  4024ce:	6323      	str	r3, [r4, #48]	; 0x30
  4024d0:	6ea2      	ldr	r2, [r4, #104]	; 0x68
  4024d2:	0712      	lsls	r2, r2, #28
  4024d4:	d5fc      	bpl.n	4024d0 <pmc_sleep+0x80>
  4024d6:	e000      	b.n	4024da <pmc_sleep+0x8a>
  4024d8:	4643      	mov	r3, r8
  4024da:	f013 0f70 	tst.w	r3, #112	; 0x70
  4024de:	d104      	bne.n	4024ea <pmc_sleep+0x9a>
  4024e0:	4b64      	ldr	r3, [pc, #400]	; (402674 <pmc_sleep+0x224>)
  4024e2:	4798      	blx	r3
  4024e4:	4b64      	ldr	r3, [pc, #400]	; (402678 <pmc_sleep+0x228>)
  4024e6:	4798      	blx	r3
  4024e8:	e006      	b.n	4024f8 <pmc_sleep+0xa8>
  4024ea:	f023 0370 	bic.w	r3, r3, #112	; 0x70
  4024ee:	6323      	str	r3, [r4, #48]	; 0x30
  4024f0:	6ea3      	ldr	r3, [r4, #104]	; 0x68
  4024f2:	071b      	lsls	r3, r3, #28
  4024f4:	d5fc      	bpl.n	4024f0 <pmc_sleep+0xa0>
  4024f6:	e7f3      	b.n	4024e0 <pmc_sleep+0x90>
  4024f8:	6ea3      	ldr	r3, [r4, #104]	; 0x68
  4024fa:	4a5c      	ldr	r2, [pc, #368]	; (40266c <pmc_sleep+0x21c>)
  4024fc:	0398      	lsls	r0, r3, #14
  4024fe:	d5fb      	bpl.n	4024f8 <pmc_sleep+0xa8>
  402500:	6a13      	ldr	r3, [r2, #32]
  402502:	f023 739b 	bic.w	r3, r3, #20316160	; 0x1360000
  402506:	f423 3380 	bic.w	r3, r3, #65536	; 0x10000
  40250a:	f443 135c 	orr.w	r3, r3, #3604480	; 0x370000
  40250e:	6213      	str	r3, [r2, #32]
  402510:	6ea3      	ldr	r3, [r4, #104]	; 0x68
  402512:	4a56      	ldr	r2, [pc, #344]	; (40266c <pmc_sleep+0x21c>)
  402514:	03d9      	lsls	r1, r3, #15
  402516:	d5fb      	bpl.n	402510 <pmc_sleep+0xc0>
  402518:	9b01      	ldr	r3, [sp, #4]
  40251a:	f1bb 0f04 	cmp.w	fp, #4
  40251e:	f423 6370 	bic.w	r3, r3, #3840	; 0xf00
  402522:	6033      	str	r3, [r6, #0]
  402524:	d107      	bne.n	402536 <pmc_sleep+0xe6>
  402526:	6a13      	ldr	r3, [r2, #32]
  402528:	f423 135c 	bic.w	r3, r3, #3604480	; 0x370000
  40252c:	f023 0301 	bic.w	r3, r3, #1
  402530:	f443 135c 	orr.w	r3, r3, #3604480	; 0x370000
  402534:	6213      	str	r3, [r2, #32]
  402536:	2301      	movs	r3, #1
  402538:	702b      	strb	r3, [r5, #0]
  40253a:	f3bf 8f5f 	dmb	sy
  40253e:	b662      	cpsie	i
  402540:	4b4e      	ldr	r3, [pc, #312]	; (40267c <pmc_sleep+0x22c>)
  402542:	4798      	blx	r3
  402544:	b672      	cpsid	i
  402546:	f3bf 8f5f 	dmb	sy
  40254a:	2300      	movs	r3, #0
  40254c:	f01a 0f02 	tst.w	sl, #2
  402550:	702b      	strb	r3, [r5, #0]
  402552:	d006      	beq.n	402562 <pmc_sleep+0x112>
  402554:	6a23      	ldr	r3, [r4, #32]
  402556:	484a      	ldr	r0, [pc, #296]	; (402680 <pmc_sleep+0x230>)
  402558:	4018      	ands	r0, r3
  40255a:	4b4a      	ldr	r3, [pc, #296]	; (402684 <pmc_sleep+0x234>)
  40255c:	4303      	orrs	r3, r0
  40255e:	6223      	str	r3, [r4, #32]
  402560:	e022      	b.n	4025a8 <pmc_sleep+0x158>
  402562:	f01a 0f01 	tst.w	sl, #1
  402566:	d027      	beq.n	4025b8 <pmc_sleep+0x168>
  402568:	6a23      	ldr	r3, [r4, #32]
  40256a:	4840      	ldr	r0, [pc, #256]	; (40266c <pmc_sleep+0x21c>)
  40256c:	07da      	lsls	r2, r3, #31
  40256e:	d504      	bpl.n	40257a <pmc_sleep+0x12a>
  402570:	6a23      	ldr	r3, [r4, #32]
  402572:	483e      	ldr	r0, [pc, #248]	; (40266c <pmc_sleep+0x21c>)
  402574:	01db      	lsls	r3, r3, #7
  402576:	d50e      	bpl.n	402596 <pmc_sleep+0x146>
  402578:	e016      	b.n	4025a8 <pmc_sleep+0x158>
  40257a:	6a03      	ldr	r3, [r0, #32]
  40257c:	f423 135c 	bic.w	r3, r3, #3604480	; 0x370000
  402580:	f023 0303 	bic.w	r3, r3, #3
  402584:	f443 135c 	orr.w	r3, r3, #3604480	; 0x370000
  402588:	f043 0301 	orr.w	r3, r3, #1
  40258c:	6203      	str	r3, [r0, #32]
  40258e:	6ea3      	ldr	r3, [r4, #104]	; 0x68
  402590:	07d8      	lsls	r0, r3, #31
  402592:	d5fc      	bpl.n	40258e <pmc_sleep+0x13e>
  402594:	e7ec      	b.n	402570 <pmc_sleep+0x120>
  402596:	6a03      	ldr	r3, [r0, #32]
  402598:	f043 739b 	orr.w	r3, r3, #20316160	; 0x1360000
  40259c:	f443 3380 	orr.w	r3, r3, #65536	; 0x10000
  4025a0:	6203      	str	r3, [r0, #32]
  4025a2:	6ea3      	ldr	r3, [r4, #104]	; 0x68
  4025a4:	03d9      	lsls	r1, r3, #15
  4025a6:	d5fc      	bpl.n	4025a2 <pmc_sleep+0x152>
  4025a8:	6a23      	ldr	r3, [r4, #32]
  4025aa:	f423 135c 	bic.w	r3, r3, #3604480	; 0x370000
  4025ae:	f023 0378 	bic.w	r3, r3, #120	; 0x78
  4025b2:	f443 135c 	orr.w	r3, r3, #3604480	; 0x370000
  4025b6:	6223      	str	r3, [r4, #32]
  4025b8:	4b33      	ldr	r3, [pc, #204]	; (402688 <pmc_sleep+0x238>)
  4025ba:	9a02      	ldr	r2, [sp, #8]
  4025bc:	4013      	ands	r3, r2
  4025be:	b11b      	cbz	r3, 4025c8 <pmc_sleep+0x178>
  4025c0:	f042 5300 	orr.w	r3, r2, #536870912	; 0x20000000
  4025c4:	62a3      	str	r3, [r4, #40]	; 0x28
  4025c6:	2302      	movs	r3, #2
  4025c8:	482f      	ldr	r0, [pc, #188]	; (402688 <pmc_sleep+0x238>)
  4025ca:	9a03      	ldr	r2, [sp, #12]
  4025cc:	4010      	ands	r0, r2
  4025ce:	b110      	cbz	r0, 4025d6 <pmc_sleep+0x186>
  4025d0:	62e2      	str	r2, [r4, #44]	; 0x2c
  4025d2:	f043 0304 	orr.w	r3, r3, #4
  4025d6:	f1b9 0f02 	cmp.w	r9, #2
  4025da:	d003      	beq.n	4025e4 <pmc_sleep+0x194>
  4025dc:	f1b9 0f03 	cmp.w	r9, #3
  4025e0:	d004      	beq.n	4025ec <pmc_sleep+0x19c>
  4025e2:	e006      	b.n	4025f2 <pmc_sleep+0x1a2>
  4025e4:	6ea1      	ldr	r1, [r4, #104]	; 0x68
  4025e6:	078a      	lsls	r2, r1, #30
  4025e8:	d5fc      	bpl.n	4025e4 <pmc_sleep+0x194>
  4025ea:	e002      	b.n	4025f2 <pmc_sleep+0x1a2>
  4025ec:	6ea1      	ldr	r1, [r4, #104]	; 0x68
  4025ee:	0748      	lsls	r0, r1, #29
  4025f0:	d5fc      	bpl.n	4025ec <pmc_sleep+0x19c>
  4025f2:	6b21      	ldr	r1, [r4, #48]	; 0x30
  4025f4:	f021 0070 	bic.w	r0, r1, #112	; 0x70
  4025f8:	f008 0170 	and.w	r1, r8, #112	; 0x70
  4025fc:	4301      	orrs	r1, r0
  4025fe:	6321      	str	r1, [r4, #48]	; 0x30
  402600:	6ea1      	ldr	r1, [r4, #104]	; 0x68
  402602:	0709      	lsls	r1, r1, #28
  402604:	d5fc      	bpl.n	402600 <pmc_sleep+0x1b0>
  402606:	4919      	ldr	r1, [pc, #100]	; (40266c <pmc_sleep+0x21c>)
  402608:	9a01      	ldr	r2, [sp, #4]
  40260a:	6032      	str	r2, [r6, #0]
  40260c:	f8c1 8030 	str.w	r8, [r1, #48]	; 0x30
  402610:	6ea2      	ldr	r2, [r4, #104]	; 0x68
  402612:	0712      	lsls	r2, r2, #28
  402614:	d5fc      	bpl.n	402610 <pmc_sleep+0x1c0>
  402616:	6ea2      	ldr	r2, [r4, #104]	; 0x68
  402618:	421a      	tst	r2, r3
  40261a:	d0fc      	beq.n	402616 <pmc_sleep+0x1c6>
  40261c:	4c1b      	ldr	r4, [pc, #108]	; (40268c <pmc_sleep+0x23c>)
  40261e:	6823      	ldr	r3, [r4, #0]
  402620:	2600      	movs	r6, #0
  402622:	703e      	strb	r6, [r7, #0]
  402624:	b10b      	cbz	r3, 40262a <pmc_sleep+0x1da>
  402626:	4798      	blx	r3
  402628:	6026      	str	r6, [r4, #0]
  40262a:	2301      	movs	r3, #1
  40262c:	702b      	strb	r3, [r5, #0]
  40262e:	f3bf 8f5f 	dmb	sy
  402632:	b662      	cpsie	i
  402634:	e00e      	b.n	402654 <pmc_sleep+0x204>
  402636:	4a09      	ldr	r2, [pc, #36]	; (40265c <pmc_sleep+0x20c>)
  402638:	6913      	ldr	r3, [r2, #16]
  40263a:	f043 0304 	orr.w	r3, r3, #4
  40263e:	6113      	str	r3, [r2, #16]
  402640:	4b13      	ldr	r3, [pc, #76]	; (402690 <pmc_sleep+0x240>)
  402642:	4a14      	ldr	r2, [pc, #80]	; (402694 <pmc_sleep+0x244>)
  402644:	601a      	str	r2, [r3, #0]
  402646:	4b07      	ldr	r3, [pc, #28]	; (402664 <pmc_sleep+0x214>)
  402648:	2201      	movs	r2, #1
  40264a:	701a      	strb	r2, [r3, #0]
  40264c:	f3bf 8f5f 	dmb	sy
  402650:	b662      	cpsie	i
  402652:	bf30      	wfi
  402654:	b005      	add	sp, #20
  402656:	e8bd 8ff0 	ldmia.w	sp!, {r4, r5, r6, r7, r8, r9, sl, fp, pc}
  40265a:	bf00      	nop
  40265c:	e000ed00 	.word	0xe000ed00
  402660:	004023f9 	.word	0x004023f9
  402664:	20000160 	.word	0x20000160
  402668:	20000344 	.word	0x20000344
  40266c:	400e0400 	.word	0x400e0400
  402670:	400e0a00 	.word	0x400e0a00
  402674:	004022e1 	.word	0x004022e1
  402678:	00402301 	.word	0x00402301
  40267c:	00402405 	.word	0x00402405
  402680:	fec8fffc 	.word	0xfec8fffc
  402684:	01370002 	.word	0x01370002
  402688:	07ff0000 	.word	0x07ff0000
  40268c:	20000340 	.word	0x20000340
  402690:	400e1410 	.word	0x400e1410
  402694:	a5000004 	.word	0xa5000004

00402698 <pmc_is_wakeup_clocks_restored>:
  402698:	4b02      	ldr	r3, [pc, #8]	; (4026a4 <pmc_is_wakeup_clocks_restored+0xc>)
  40269a:	7818      	ldrb	r0, [r3, #0]
  40269c:	f080 0001 	eor.w	r0, r0, #1
  4026a0:	4770      	bx	lr
  4026a2:	bf00      	nop
  4026a4:	20000344 	.word	0x20000344

004026a8 <cpu_irq_enter_critical>:
  4026a8:	4b08      	ldr	r3, [pc, #32]	; (4026cc <cpu_irq_enter_critical+0x24>)
  4026aa:	6819      	ldr	r1, [r3, #0]
  4026ac:	b951      	cbnz	r1, 4026c4 <cpu_irq_enter_critical+0x1c>
  4026ae:	f3ef 8010 	mrs	r0, PRIMASK
  4026b2:	4a07      	ldr	r2, [pc, #28]	; (4026d0 <cpu_irq_enter_critical+0x28>)
  4026b4:	b928      	cbnz	r0, 4026c2 <cpu_irq_enter_critical+0x1a>
  4026b6:	b672      	cpsid	i
  4026b8:	f3bf 8f5f 	dmb	sy
  4026bc:	4905      	ldr	r1, [pc, #20]	; (4026d4 <cpu_irq_enter_critical+0x2c>)
  4026be:	7008      	strb	r0, [r1, #0]
  4026c0:	2101      	movs	r1, #1
  4026c2:	7011      	strb	r1, [r2, #0]
  4026c4:	681a      	ldr	r2, [r3, #0]
  4026c6:	3201      	adds	r2, #1
  4026c8:	601a      	str	r2, [r3, #0]
  4026ca:	4770      	bx	lr
  4026cc:	20000348 	.word	0x20000348
  4026d0:	2000034c 	.word	0x2000034c
  4026d4:	20000160 	.word	0x20000160

004026d8 <cpu_irq_leave_critical>:
  4026d8:	4b07      	ldr	r3, [pc, #28]	; (4026f8 <cpu_irq_leave_critical+0x20>)
  4026da:	681a      	ldr	r2, [r3, #0]
  4026dc:	3a01      	subs	r2, #1
  4026de:	601a      	str	r2, [r3, #0]
  4026e0:	681b      	ldr	r3, [r3, #0]
  4026e2:	b943      	cbnz	r3, 4026f6 <cpu_irq_leave_critical+0x1e>
  4026e4:	4b05      	ldr	r3, [pc, #20]	; (4026fc <cpu_irq_leave_critical+0x24>)
  4026e6:	781b      	ldrb	r3, [r3, #0]
  4026e8:	b12b      	cbz	r3, 4026f6 <cpu_irq_leave_critical+0x1e>
  4026ea:	4b05      	ldr	r3, [pc, #20]	; (402700 <cpu_irq_leave_critical+0x28>)
  4026ec:	2201      	movs	r2, #1
  4026ee:	701a      	strb	r2, [r3, #0]
  4026f0:	f3bf 8f5f 	dmb	sy
  4026f4:	b662      	cpsie	i
  4026f6:	4770      	bx	lr
  4026f8:	20000348 	.word	0x20000348
  4026fc:	2000034c 	.word	0x2000034c
  402700:	20000160 	.word	0x20000160

00402704 <Dummy_Handler>:
  402704:	e7fe      	b.n	402704 <Dummy_Handler>
	...

00402708 <Reset_Handler>:
  402708:	b508      	push	{r3, lr}
  40270a:	4a15      	ldr	r2, [pc, #84]	; (402760 <Reset_Handler+0x58>)
  40270c:	4b15      	ldr	r3, [pc, #84]	; (402764 <Reset_Handler+0x5c>)
  40270e:	429a      	cmp	r2, r3
  402710:	d90d      	bls.n	40272e <Reset_Handler+0x26>
  402712:	4915      	ldr	r1, [pc, #84]	; (402768 <Reset_Handler+0x60>)
  402714:	3a04      	subs	r2, #4
  402716:	428b      	cmp	r3, r1
  402718:	d204      	bcs.n	402724 <Reset_Handler+0x1c>
  40271a:	f852 0f04 	ldr.w	r0, [r2, #4]!
  40271e:	f843 0b04 	str.w	r0, [r3], #4
  402722:	e7f8      	b.n	402716 <Reset_Handler+0xe>
  402724:	bf00      	nop
  402726:	4b11      	ldr	r3, [pc, #68]	; (40276c <Reset_Handler+0x64>)
  402728:	4a11      	ldr	r2, [pc, #68]	; (402770 <Reset_Handler+0x68>)
  40272a:	2100      	movs	r1, #0
  40272c:	e00b      	b.n	402746 <Reset_Handler+0x3e>
  40272e:	d2f9      	bcs.n	402724 <Reset_Handler+0x1c>
  402730:	490d      	ldr	r1, [pc, #52]	; (402768 <Reset_Handler+0x60>)
  402732:	3a04      	subs	r2, #4
  402734:	1acb      	subs	r3, r1, r3
  402736:	4413      	add	r3, r2
  402738:	1ac9      	subs	r1, r1, r3
  40273a:	4293      	cmp	r3, r2
  40273c:	d0f2      	beq.n	402724 <Reset_Handler+0x1c>
  40273e:	f853 0904 	ldr.w	r0, [r3], #-4
  402742:	5058      	str	r0, [r3, r1]
  402744:	e7f9      	b.n	40273a <Reset_Handler+0x32>
  402746:	4293      	cmp	r3, r2
  402748:	d202      	bcs.n	402750 <Reset_Handler+0x48>
  40274a:	f843 1b04 	str.w	r1, [r3], #4
  40274e:	e7fa      	b.n	402746 <Reset_Handler+0x3e>
  402750:	4b08      	ldr	r3, [pc, #32]	; (402774 <Reset_Handler+0x6c>)
  402752:	4a09      	ldr	r2, [pc, #36]	; (402778 <Reset_Handler+0x70>)
  402754:	609a      	str	r2, [r3, #8]
  402756:	4b09      	ldr	r3, [pc, #36]	; (40277c <Reset_Handler+0x74>)
  402758:	4798      	blx	r3
  40275a:	4b09      	ldr	r3, [pc, #36]	; (402780 <Reset_Handler+0x78>)
  40275c:	4798      	blx	r3
  40275e:	e7fe      	b.n	40275e <Reset_Handler+0x56>
  402760:	0040326c 	.word	0x0040326c
  402764:	20000000 	.word	0x20000000
  402768:	20000214 	.word	0x20000214
  40276c:	20000214 	.word	0x20000214
  402770:	20000398 	.word	0x20000398
  402774:	e000ed00 	.word	0xe000ed00
  402778:	00400000 	.word	0x00400000
  40277c:	004030a5 	.word	0x004030a5
  402780:	00402ed1 	.word	0x00402ed1

00402784 <SystemCoreClockUpdate>:
  402784:	b510      	push	{r4, lr}
  402786:	4a2c      	ldr	r2, [pc, #176]	; (402838 <SystemCoreClockUpdate+0xb4>)
  402788:	6b13      	ldr	r3, [r2, #48]	; 0x30
  40278a:	f003 0303 	and.w	r3, r3, #3
  40278e:	2b01      	cmp	r3, #1
  402790:	4b2a      	ldr	r3, [pc, #168]	; (40283c <SystemCoreClockUpdate+0xb8>)
  402792:	d00d      	beq.n	4027b0 <SystemCoreClockUpdate+0x2c>
  402794:	d303      	bcc.n	40279e <SystemCoreClockUpdate+0x1a>
  402796:	6a11      	ldr	r1, [r2, #32]
  402798:	01cc      	lsls	r4, r1, #7
  40279a:	d51a      	bpl.n	4027d2 <SystemCoreClockUpdate+0x4e>
  40279c:	e025      	b.n	4027ea <SystemCoreClockUpdate+0x66>
  40279e:	4928      	ldr	r1, [pc, #160]	; (402840 <SystemCoreClockUpdate+0xbc>)
  4027a0:	6949      	ldr	r1, [r1, #20]
  4027a2:	0608      	lsls	r0, r1, #24
  4027a4:	bf4c      	ite	mi
  4027a6:	f44f 4100 	movmi.w	r1, #32768	; 0x8000
  4027aa:	f44f 41fa 	movpl.w	r1, #32000	; 0x7d00
  4027ae:	e030      	b.n	402812 <SystemCoreClockUpdate+0x8e>
  4027b0:	6a11      	ldr	r1, [r2, #32]
  4027b2:	01c9      	lsls	r1, r1, #7
  4027b4:	d40b      	bmi.n	4027ce <SystemCoreClockUpdate+0x4a>
  4027b6:	4923      	ldr	r1, [pc, #140]	; (402844 <SystemCoreClockUpdate+0xc0>)
  4027b8:	6019      	str	r1, [r3, #0]
  4027ba:	6a11      	ldr	r1, [r2, #32]
  4027bc:	f001 0170 	and.w	r1, r1, #112	; 0x70
  4027c0:	2910      	cmp	r1, #16
  4027c2:	d002      	beq.n	4027ca <SystemCoreClockUpdate+0x46>
  4027c4:	2920      	cmp	r1, #32
  4027c6:	d002      	beq.n	4027ce <SystemCoreClockUpdate+0x4a>
  4027c8:	e024      	b.n	402814 <SystemCoreClockUpdate+0x90>
  4027ca:	491f      	ldr	r1, [pc, #124]	; (402848 <SystemCoreClockUpdate+0xc4>)
  4027cc:	e021      	b.n	402812 <SystemCoreClockUpdate+0x8e>
  4027ce:	491f      	ldr	r1, [pc, #124]	; (40284c <SystemCoreClockUpdate+0xc8>)
  4027d0:	e01f      	b.n	402812 <SystemCoreClockUpdate+0x8e>
  4027d2:	491c      	ldr	r1, [pc, #112]	; (402844 <SystemCoreClockUpdate+0xc0>)
  4027d4:	6019      	str	r1, [r3, #0]
  4027d6:	6a11      	ldr	r1, [r2, #32]
  4027d8:	f001 0170 	and.w	r1, r1, #112	; 0x70
  4027dc:	2910      	cmp	r1, #16
  4027de:	d002      	beq.n	4027e6 <SystemCoreClockUpdate+0x62>
  4027e0:	2920      	cmp	r1, #32
  4027e2:	d002      	beq.n	4027ea <SystemCoreClockUpdate+0x66>
  4027e4:	e003      	b.n	4027ee <SystemCoreClockUpdate+0x6a>
  4027e6:	4918      	ldr	r1, [pc, #96]	; (402848 <SystemCoreClockUpdate+0xc4>)
  4027e8:	e000      	b.n	4027ec <SystemCoreClockUpdate+0x68>
  4027ea:	4918      	ldr	r1, [pc, #96]	; (40284c <SystemCoreClockUpdate+0xc8>)
  4027ec:	6019      	str	r1, [r3, #0]
  4027ee:	6b11      	ldr	r1, [r2, #48]	; 0x30
  4027f0:	4811      	ldr	r0, [pc, #68]	; (402838 <SystemCoreClockUpdate+0xb4>)
  4027f2:	f001 0103 	and.w	r1, r1, #3
  4027f6:	2902      	cmp	r1, #2
  4027f8:	bf0b      	itete	eq
  4027fa:	6a81      	ldreq	r1, [r0, #40]	; 0x28
  4027fc:	6ac1      	ldrne	r1, [r0, #44]	; 0x2c
  4027fe:	6a80      	ldreq	r0, [r0, #40]	; 0x28
  402800:	6ac0      	ldrne	r0, [r0, #44]	; 0x2c
  402802:	f3c1 440a 	ubfx	r4, r1, #16, #11
  402806:	6819      	ldr	r1, [r3, #0]
  402808:	b2c0      	uxtb	r0, r0
  40280a:	fb04 1101 	mla	r1, r4, r1, r1
  40280e:	fbb1 f1f0 	udiv	r1, r1, r0
  402812:	6019      	str	r1, [r3, #0]
  402814:	6b12      	ldr	r2, [r2, #48]	; 0x30
  402816:	f002 0270 	and.w	r2, r2, #112	; 0x70
  40281a:	2a70      	cmp	r2, #112	; 0x70
  40281c:	bf17      	itett	ne
  40281e:	4a06      	ldrne	r2, [pc, #24]	; (402838 <SystemCoreClockUpdate+0xb4>)
  402820:	681a      	ldreq	r2, [r3, #0]
  402822:	6b12      	ldrne	r2, [r2, #48]	; 0x30
  402824:	f3c2 1102 	ubfxne	r1, r2, #4, #3
  402828:	bf19      	ittee	ne
  40282a:	681a      	ldrne	r2, [r3, #0]
  40282c:	40ca      	lsrne	r2, r1
  40282e:	2103      	moveq	r1, #3
  402830:	fbb2 f2f1 	udiveq	r2, r2, r1
  402834:	601a      	str	r2, [r3, #0]
  402836:	bd10      	pop	{r4, pc}
  402838:	400e0400 	.word	0x400e0400
  40283c:	20000164 	.word	0x20000164
  402840:	400e1410 	.word	0x400e1410
  402844:	003d0900 	.word	0x003d0900
  402848:	007a1200 	.word	0x007a1200
  40284c:	00b71b00 	.word	0x00b71b00

00402850 <system_init_flash>:
  402850:	4b0c      	ldr	r3, [pc, #48]	; (402884 <system_init_flash+0x34>)
  402852:	4298      	cmp	r0, r3
  402854:	4b0c      	ldr	r3, [pc, #48]	; (402888 <system_init_flash+0x38>)
  402856:	d802      	bhi.n	40285e <system_init_flash+0xe>
  402858:	f04f 6280 	mov.w	r2, #67108864	; 0x4000000
  40285c:	e00f      	b.n	40287e <system_init_flash+0x2e>
  40285e:	4a0b      	ldr	r2, [pc, #44]	; (40288c <system_init_flash+0x3c>)
  402860:	4290      	cmp	r0, r2
  402862:	d801      	bhi.n	402868 <system_init_flash+0x18>
  402864:	4a0a      	ldr	r2, [pc, #40]	; (402890 <system_init_flash+0x40>)
  402866:	e00a      	b.n	40287e <system_init_flash+0x2e>
  402868:	4a0a      	ldr	r2, [pc, #40]	; (402894 <system_init_flash+0x44>)
  40286a:	4290      	cmp	r0, r2
  40286c:	d801      	bhi.n	402872 <system_init_flash+0x22>
  40286e:	4a0a      	ldr	r2, [pc, #40]	; (402898 <system_init_flash+0x48>)
  402870:	e005      	b.n	40287e <system_init_flash+0x2e>
  402872:	4a0a      	ldr	r2, [pc, #40]	; (40289c <system_init_flash+0x4c>)
  402874:	4290      	cmp	r0, r2
  402876:	bf8c      	ite	hi
  402878:	4a09      	ldrhi	r2, [pc, #36]	; (4028a0 <system_init_flash+0x50>)
  40287a:	f04f 2204 	movls.w	r2, #67109888	; 0x4000400
  40287e:	601a      	str	r2, [r3, #0]
  402880:	4770      	bx	lr
  402882:	bf00      	nop
  402884:	01ba813f 	.word	0x01ba813f
  402888:	400e0a00 	.word	0x400e0a00
  40288c:	0375027f 	.word	0x0375027f
  402890:	04000100 	.word	0x04000100
  402894:	053ec5ff 	.word	0x053ec5ff
  402898:	04000200 	.word	0x04000200
  40289c:	07270dff 	.word	0x07270dff
  4028a0:	04000500 	.word	0x04000500

004028a4 <_sbrk>:
  4028a4:	4b07      	ldr	r3, [pc, #28]	; (4028c4 <_sbrk+0x20>)
  4028a6:	681a      	ldr	r2, [r3, #0]
  4028a8:	b90a      	cbnz	r2, 4028ae <_sbrk+0xa>
  4028aa:	4a07      	ldr	r2, [pc, #28]	; (4028c8 <_sbrk+0x24>)
  4028ac:	601a      	str	r2, [r3, #0]
  4028ae:	681b      	ldr	r3, [r3, #0]
  4028b0:	4a06      	ldr	r2, [pc, #24]	; (4028cc <_sbrk+0x28>)
  4028b2:	4418      	add	r0, r3
  4028b4:	4282      	cmp	r2, r0
  4028b6:	bfa3      	ittte	ge
  4028b8:	4a02      	ldrge	r2, [pc, #8]	; (4028c4 <_sbrk+0x20>)
  4028ba:	6010      	strge	r0, [r2, #0]
  4028bc:	4618      	movge	r0, r3
  4028be:	f04f 30ff 	movlt.w	r0, #4294967295
  4028c2:	4770      	bx	lr
  4028c4:	20000350 	.word	0x20000350
  4028c8:	20001398 	.word	0x20001398
  4028cc:	2000fffc 	.word	0x2000fffc

004028d0 <sleepmgr_unlock_mode>:
  4028d0:	b510      	push	{r4, lr}
  4028d2:	4a0b      	ldr	r2, [pc, #44]	; (402900 <sleepmgr_unlock_mode+0x30>)
  4028d4:	5c13      	ldrb	r3, [r2, r0]
  4028d6:	b903      	cbnz	r3, 4028da <sleepmgr_unlock_mode+0xa>
  4028d8:	e7fe      	b.n	4028d8 <sleepmgr_unlock_mode+0x8>
  4028da:	f3ef 8310 	mrs	r3, PRIMASK
  4028de:	b672      	cpsid	i
  4028e0:	f3bf 8f5f 	dmb	sy
  4028e4:	4c07      	ldr	r4, [pc, #28]	; (402904 <sleepmgr_unlock_mode+0x34>)
  4028e6:	2100      	movs	r1, #0
  4028e8:	7021      	strb	r1, [r4, #0]
  4028ea:	5c11      	ldrb	r1, [r2, r0]
  4028ec:	3901      	subs	r1, #1
  4028ee:	5411      	strb	r1, [r2, r0]
  4028f0:	b923      	cbnz	r3, 4028fc <sleepmgr_unlock_mode+0x2c>
  4028f2:	2301      	movs	r3, #1
  4028f4:	7023      	strb	r3, [r4, #0]
  4028f6:	f3bf 8f5f 	dmb	sy
  4028fa:	b662      	cpsie	i
  4028fc:	bd10      	pop	{r4, pc}
  4028fe:	bf00      	nop
  402900:	20000364 	.word	0x20000364
  402904:	20000160 	.word	0x20000160

00402908 <sleepmgr_lock_mode>:
  402908:	b510      	push	{r4, lr}
  40290a:	4a0b      	ldr	r2, [pc, #44]	; (402938 <sleepmgr_lock_mode+0x30>)
  40290c:	5c13      	ldrb	r3, [r2, r0]
  40290e:	2bff      	cmp	r3, #255	; 0xff
  402910:	d100      	bne.n	402914 <sleepmgr_lock_mode+0xc>
  402912:	e7fe      	b.n	402912 <sleepmgr_lock_mode+0xa>
  402914:	f3ef 8310 	mrs	r3, PRIMASK
  402918:	b672      	cpsid	i
  40291a:	f3bf 8f5f 	dmb	sy
  40291e:	4c07      	ldr	r4, [pc, #28]	; (40293c <sleepmgr_lock_mode+0x34>)
  402920:	2100      	movs	r1, #0
  402922:	7021      	strb	r1, [r4, #0]
  402924:	5c11      	ldrb	r1, [r2, r0]
  402926:	3101      	adds	r1, #1
  402928:	5411      	strb	r1, [r2, r0]
  40292a:	b923      	cbnz	r3, 402936 <sleepmgr_lock_mode+0x2e>
  40292c:	2301      	movs	r3, #1
  40292e:	7023      	strb	r3, [r4, #0]
  402930:	f3bf 8f5f 	dmb	sy
  402934:	b662      	cpsie	i
  402936:	bd10      	pop	{r4, pc}
  402938:	20000364 	.word	0x20000364
  40293c:	20000160 	.word	0x20000160

00402940 <stop>:
  402940:	4b1b      	ldr	r3, [pc, #108]	; (4029b0 <stop+0x70>)
  402942:	481c      	ldr	r0, [pc, #112]	; (4029b4 <stop+0x74>)
  402944:	b570      	push	{r4, r5, r6, lr}
  402946:	2400      	movs	r4, #0
  402948:	4d1b      	ldr	r5, [pc, #108]	; (4029b8 <stop+0x78>)
  40294a:	701c      	strb	r4, [r3, #0]
  40294c:	47a8      	blx	r5
  40294e:	07c2      	lsls	r2, r0, #31
  402950:	d508      	bpl.n	402964 <stop+0x24>
  402952:	4621      	mov	r1, r4
  402954:	4b19      	ldr	r3, [pc, #100]	; (4029bc <stop+0x7c>)
  402956:	4817      	ldr	r0, [pc, #92]	; (4029b4 <stop+0x74>)
  402958:	4798      	blx	r3
  40295a:	f44f 6100 	mov.w	r1, #2048	; 0x800
  40295e:	4815      	ldr	r0, [pc, #84]	; (4029b4 <stop+0x74>)
  402960:	4b17      	ldr	r3, [pc, #92]	; (4029c0 <stop+0x80>)
  402962:	4798      	blx	r3
  402964:	2300      	movs	r3, #0
  402966:	461a      	mov	r2, r3
  402968:	f44f 5100 	mov.w	r1, #8192	; 0x2000
  40296c:	4815      	ldr	r0, [pc, #84]	; (4029c4 <stop+0x84>)
  40296e:	4c16      	ldr	r4, [pc, #88]	; (4029c8 <stop+0x88>)
  402970:	47a0      	blx	r4
  402972:	4a16      	ldr	r2, [pc, #88]	; (4029cc <stop+0x8c>)
  402974:	480f      	ldr	r0, [pc, #60]	; (4029b4 <stop+0x74>)
  402976:	2300      	movs	r3, #0
  402978:	8013      	strh	r3, [r2, #0]
  40297a:	4a15      	ldr	r2, [pc, #84]	; (4029d0 <stop+0x90>)
  40297c:	7013      	strb	r3, [r2, #0]
  40297e:	4b15      	ldr	r3, [pc, #84]	; (4029d4 <stop+0x94>)
  402980:	f44f 0280 	mov.w	r2, #4194304	; 0x400000
  402984:	635a      	str	r2, [r3, #52]	; 0x34
  402986:	47a8      	blx	r5
  402988:	07c3      	lsls	r3, r0, #31
  40298a:	d508      	bpl.n	40299e <stop+0x5e>
  40298c:	2101      	movs	r1, #1
  40298e:	4b0b      	ldr	r3, [pc, #44]	; (4029bc <stop+0x7c>)
  402990:	4808      	ldr	r0, [pc, #32]	; (4029b4 <stop+0x74>)
  402992:	4798      	blx	r3
  402994:	f44f 6100 	mov.w	r1, #2048	; 0x800
  402998:	4806      	ldr	r0, [pc, #24]	; (4029b4 <stop+0x74>)
  40299a:	4b09      	ldr	r3, [pc, #36]	; (4029c0 <stop+0x80>)
  40299c:	4798      	blx	r3
  40299e:	2300      	movs	r3, #0
  4029a0:	46a4      	mov	ip, r4
  4029a2:	461a      	mov	r2, r3
  4029a4:	f44f 5100 	mov.w	r1, #8192	; 0x2000
  4029a8:	4806      	ldr	r0, [pc, #24]	; (4029c4 <stop+0x84>)
  4029aa:	e8bd 4070 	ldmia.w	sp!, {r4, r5, r6, lr}
  4029ae:	4760      	bx	ip
  4029b0:	20000355 	.word	0x20000355
  4029b4:	4003c000 	.word	0x4003c000
  4029b8:	0040201b 	.word	0x0040201b
  4029bc:	00402023 	.word	0x00402023
  4029c0:	0040201f 	.word	0x0040201f
  4029c4:	40008000 	.word	0x40008000
  4029c8:	00400861 	.word	0x00400861
  4029cc:	2000035a 	.word	0x2000035a
  4029d0:	20000354 	.word	0x20000354
  4029d4:	400e0e00 	.word	0x400e0e00

004029d8 <speed_set>:
  4029d8:	f5b0 3f80 	cmp.w	r0, #65536	; 0x10000
  4029dc:	d203      	bcs.n	4029e6 <speed_set+0xe>
  4029de:	2805      	cmp	r0, #5
  4029e0:	bf98      	it	ls
  4029e2:	2006      	movls	r0, #6
  4029e4:	e001      	b.n	4029ea <speed_set+0x12>
  4029e6:	f64f 70ff 	movw	r0, #65535	; 0xffff
  4029ea:	4b08      	ldr	r3, [pc, #32]	; (402a0c <speed_set+0x34>)
  4029ec:	4a08      	ldr	r2, [pc, #32]	; (402a10 <speed_set+0x38>)
  4029ee:	6018      	str	r0, [r3, #0]
  4029f0:	4b08      	ldr	r3, [pc, #32]	; (402a14 <speed_set+0x3c>)
  4029f2:	fbb3 f0f0 	udiv	r0, r3, r0
  4029f6:	4b08      	ldr	r3, [pc, #32]	; (402a18 <speed_set+0x40>)
  4029f8:	21f0      	movs	r1, #240	; 0xf0
  4029fa:	6058      	str	r0, [r3, #4]
  4029fc:	f882 1023 	strb.w	r1, [r2, #35]	; 0x23
  402a00:	2200      	movs	r2, #0
  402a02:	609a      	str	r2, [r3, #8]
  402a04:	2207      	movs	r2, #7
  402a06:	601a      	str	r2, [r3, #0]
  402a08:	4770      	bx	lr
  402a0a:	bf00      	nop
  402a0c:	200001a8 	.word	0x200001a8
  402a10:	e000ed00 	.word	0xe000ed00
  402a14:	05b8d800 	.word	0x05b8d800
  402a18:	e000e010 	.word	0xe000e010

00402a1c <usb_bulk_out_callback>:
  402a1c:	e92d 41f0 	stmdb	sp!, {r4, r5, r6, r7, r8, lr}
  402a20:	2800      	cmp	r0, #0
  402a22:	d141      	bne.n	402aa8 <usb_bulk_out_callback+0x8c>
  402a24:	f247 0305 	movw	r3, #28677	; 0x7005
  402a28:	4299      	cmp	r1, r3
  402a2a:	d83d      	bhi.n	402aa8 <usb_bulk_out_callback+0x8c>
  402a2c:	4d1f      	ldr	r5, [pc, #124]	; (402aac <usb_bulk_out_callback+0x90>)
  402a2e:	3905      	subs	r1, #5
  402a30:	682a      	ldr	r2, [r5, #0]
  402a32:	b28c      	uxth	r4, r1
  402a34:	4422      	add	r2, r4
  402a36:	46a8      	mov	r8, r5
  402a38:	78d1      	ldrb	r1, [r2, #3]
  402a3a:	7893      	ldrb	r3, [r2, #2]
  402a3c:	ea43 2301 	orr.w	r3, r3, r1, lsl #8
  402a40:	ebc3 03c3 	rsb	r3, r3, r3, lsl #3
  402a44:	b29b      	uxth	r3, r3
  402a46:	429c      	cmp	r4, r3
  402a48:	d12e      	bne.n	402aa8 <usb_bulk_out_callback+0x8c>
  402a4a:	4b19      	ldr	r3, [pc, #100]	; (402ab0 <usb_bulk_out_callback+0x94>)
  402a4c:	4798      	blx	r3
  402a4e:	682b      	ldr	r3, [r5, #0]
  402a50:	4818      	ldr	r0, [pc, #96]	; (402ab4 <usb_bulk_out_callback+0x98>)
  402a52:	4d19      	ldr	r5, [pc, #100]	; (402ab8 <usb_bulk_out_callback+0x9c>)
  402a54:	1919      	adds	r1, r3, r4
  402a56:	790a      	ldrb	r2, [r1, #4]
  402a58:	f3c2 0640 	ubfx	r6, r2, #1, #1
  402a5c:	7006      	strb	r6, [r0, #0]
  402a5e:	7848      	ldrb	r0, [r1, #1]
  402a60:	5d19      	ldrb	r1, [r3, r4]
  402a62:	ea41 2000 	orr.w	r0, r1, r0, lsl #8
  402a66:	4915      	ldr	r1, [pc, #84]	; (402abc <usb_bulk_out_callback+0xa0>)
  402a68:	6008      	str	r0, [r1, #0]
  402a6a:	4915      	ldr	r1, [pc, #84]	; (402ac0 <usb_bulk_out_callback+0xa4>)
  402a6c:	780f      	ldrb	r7, [r1, #0]
  402a6e:	b10f      	cbz	r7, 402a74 <usb_bulk_out_callback+0x58>
  402a70:	07d2      	lsls	r2, r2, #31
  402a72:	d511      	bpl.n	402a98 <usb_bulk_out_callback+0x7c>
  402a74:	4a13      	ldr	r2, [pc, #76]	; (402ac4 <usb_bulk_out_callback+0xa8>)
  402a76:	6817      	ldr	r7, [r2, #0]
  402a78:	6013      	str	r3, [r2, #0]
  402a7a:	4a13      	ldr	r2, [pc, #76]	; (402ac8 <usb_bulk_out_callback+0xac>)
  402a7c:	f8c8 7000 	str.w	r7, [r8]
  402a80:	2300      	movs	r3, #0
  402a82:	8013      	strh	r3, [r2, #0]
  402a84:	702b      	strb	r3, [r5, #0]
  402a86:	2301      	movs	r3, #1
  402a88:	700b      	strb	r3, [r1, #0]
  402a8a:	4b10      	ldr	r3, [pc, #64]	; (402acc <usb_bulk_out_callback+0xb0>)
  402a8c:	4a10      	ldr	r2, [pc, #64]	; (402ad0 <usb_bulk_out_callback+0xb4>)
  402a8e:	701e      	strb	r6, [r3, #0]
  402a90:	4b10      	ldr	r3, [pc, #64]	; (402ad4 <usb_bulk_out_callback+0xb8>)
  402a92:	8014      	strh	r4, [r2, #0]
  402a94:	4798      	blx	r3
  402a96:	e003      	b.n	402aa0 <usb_bulk_out_callback+0x84>
  402a98:	4b0f      	ldr	r3, [pc, #60]	; (402ad8 <usb_bulk_out_callback+0xbc>)
  402a9a:	801c      	strh	r4, [r3, #0]
  402a9c:	2301      	movs	r3, #1
  402a9e:	702b      	strb	r3, [r5, #0]
  402aa0:	4b0e      	ldr	r3, [pc, #56]	; (402adc <usb_bulk_out_callback+0xc0>)
  402aa2:	e8bd 41f0 	ldmia.w	sp!, {r4, r5, r6, r7, r8, lr}
  402aa6:	4718      	bx	r3
  402aa8:	e8bd 81f0 	ldmia.w	sp!, {r4, r5, r6, r7, r8, pc}
  402aac:	20000388 	.word	0x20000388
  402ab0:	004026a9 	.word	0x004026a9
  402ab4:	200001ac 	.word	0x200001ac
  402ab8:	20000354 	.word	0x20000354
  402abc:	200001a8 	.word	0x200001a8
  402ac0:	20000355 	.word	0x20000355
  402ac4:	20000390 	.word	0x20000390
  402ac8:	2000035a 	.word	0x2000035a
  402acc:	200001a4 	.word	0x200001a4
  402ad0:	20000358 	.word	0x20000358
  402ad4:	004029d9 	.word	0x004029d9
  402ad8:	20000356 	.word	0x20000356
  402adc:	004026d9 	.word	0x004026d9

00402ae0 <callback_vendor_enable>:
  402ae0:	b508      	push	{r3, lr}
  402ae2:	4b08      	ldr	r3, [pc, #32]	; (402b04 <callback_vendor_enable+0x24>)
  402ae4:	4798      	blx	r3
  402ae6:	2003      	movs	r0, #3
  402ae8:	4b07      	ldr	r3, [pc, #28]	; (402b08 <callback_vendor_enable+0x28>)
  402aea:	4798      	blx	r3
  402aec:	2000      	movs	r0, #0
  402aee:	4b07      	ldr	r3, [pc, #28]	; (402b0c <callback_vendor_enable+0x2c>)
  402af0:	4798      	blx	r3
  402af2:	4b07      	ldr	r3, [pc, #28]	; (402b10 <callback_vendor_enable+0x30>)
  402af4:	4a07      	ldr	r2, [pc, #28]	; (402b14 <callback_vendor_enable+0x34>)
  402af6:	6818      	ldr	r0, [r3, #0]
  402af8:	4b07      	ldr	r3, [pc, #28]	; (402b18 <callback_vendor_enable+0x38>)
  402afa:	2102      	movs	r1, #2
  402afc:	4798      	blx	r3
  402afe:	2001      	movs	r0, #1
  402b00:	bd08      	pop	{r3, pc}
  402b02:	bf00      	nop
  402b04:	00402941 	.word	0x00402941
  402b08:	004028d1 	.word	0x004028d1
  402b0c:	00402909 	.word	0x00402909
  402b10:	2000038c 	.word	0x2000038c
  402b14:	00402b55 	.word	0x00402b55
  402b18:	00400195 	.word	0x00400195

00402b1c <callback_vendor_disable>:
  402b1c:	b510      	push	{r4, lr}
  402b1e:	4b05      	ldr	r3, [pc, #20]	; (402b34 <callback_vendor_disable+0x18>)
  402b20:	4798      	blx	r3
  402b22:	2000      	movs	r0, #0
  402b24:	4b04      	ldr	r3, [pc, #16]	; (402b38 <callback_vendor_disable+0x1c>)
  402b26:	4798      	blx	r3
  402b28:	2003      	movs	r0, #3
  402b2a:	4b04      	ldr	r3, [pc, #16]	; (402b3c <callback_vendor_disable+0x20>)
  402b2c:	e8bd 4010 	ldmia.w	sp!, {r4, lr}
  402b30:	4718      	bx	r3
  402b32:	bf00      	nop
  402b34:	00402941 	.word	0x00402941
  402b38:	004028d1 	.word	0x004028d1
  402b3c:	00402909 	.word	0x00402909

00402b40 <shutter_set>:
  402b40:	4b03      	ldr	r3, [pc, #12]	; (402b50 <shutter_set+0x10>)
  402b42:	f44f 1280 	mov.w	r2, #1048576	; 0x100000
  402b46:	b108      	cbz	r0, 402b4c <shutter_set+0xc>
  402b48:	631a      	str	r2, [r3, #48]	; 0x30
  402b4a:	4770      	bx	lr
  402b4c:	635a      	str	r2, [r3, #52]	; 0x34
  402b4e:	4770      	bx	lr
  402b50:	400e0e00 	.word	0x400e0e00

00402b54 <usb_interrupt_out_callback>:
  402b54:	b537      	push	{r0, r1, r2, r4, r5, lr}
  402b56:	4605      	mov	r5, r0
  402b58:	4c21      	ldr	r4, [pc, #132]	; (402be0 <usb_interrupt_out_callback+0x8c>)
  402b5a:	2800      	cmp	r0, #0
  402b5c:	d138      	bne.n	402bd0 <usb_interrupt_out_callback+0x7c>
  402b5e:	2902      	cmp	r1, #2
  402b60:	d136      	bne.n	402bd0 <usb_interrupt_out_callback+0x7c>
  402b62:	6823      	ldr	r3, [r4, #0]
  402b64:	781a      	ldrb	r2, [r3, #0]
  402b66:	2a01      	cmp	r2, #1
  402b68:	d102      	bne.n	402b70 <usb_interrupt_out_callback+0x1c>
  402b6a:	4b1e      	ldr	r3, [pc, #120]	; (402be4 <usb_interrupt_out_callback+0x90>)
  402b6c:	4798      	blx	r3
  402b6e:	e02f      	b.n	402bd0 <usb_interrupt_out_callback+0x7c>
  402b70:	2a02      	cmp	r2, #2
  402b72:	d106      	bne.n	402b82 <usb_interrupt_out_callback+0x2e>
  402b74:	7858      	ldrb	r0, [r3, #1]
  402b76:	4b1c      	ldr	r3, [pc, #112]	; (402be8 <usb_interrupt_out_callback+0x94>)
  402b78:	3000      	adds	r0, #0
  402b7a:	bf18      	it	ne
  402b7c:	2001      	movne	r0, #1
  402b7e:	4798      	blx	r3
  402b80:	e026      	b.n	402bd0 <usb_interrupt_out_callback+0x7c>
  402b82:	2a03      	cmp	r2, #3
  402b84:	d116      	bne.n	402bb4 <usb_interrupt_out_callback+0x60>
  402b86:	2383      	movs	r3, #131	; 0x83
  402b88:	f88d 3004 	strb.w	r3, [sp, #4]
  402b8c:	4b17      	ldr	r3, [pc, #92]	; (402bec <usb_interrupt_out_callback+0x98>)
  402b8e:	781b      	ldrb	r3, [r3, #0]
  402b90:	f083 0201 	eor.w	r2, r3, #1
  402b94:	f88d 2005 	strb.w	r2, [sp, #5]
  402b98:	b933      	cbnz	r3, 402ba8 <usb_interrupt_out_callback+0x54>
  402b9a:	4b15      	ldr	r3, [pc, #84]	; (402bf0 <usb_interrupt_out_callback+0x9c>)
  402b9c:	4a15      	ldr	r2, [pc, #84]	; (402bf4 <usb_interrupt_out_callback+0xa0>)
  402b9e:	6818      	ldr	r0, [r3, #0]
  402ba0:	4b15      	ldr	r3, [pc, #84]	; (402bf8 <usb_interrupt_out_callback+0xa4>)
  402ba2:	f247 0105 	movw	r1, #28677	; 0x7005
  402ba6:	4798      	blx	r3
  402ba8:	2200      	movs	r2, #0
  402baa:	2102      	movs	r1, #2
  402bac:	a801      	add	r0, sp, #4
  402bae:	4b13      	ldr	r3, [pc, #76]	; (402bfc <usb_interrupt_out_callback+0xa8>)
  402bb0:	4798      	blx	r3
  402bb2:	e00d      	b.n	402bd0 <usb_interrupt_out_callback+0x7c>
  402bb4:	2ade      	cmp	r2, #222	; 0xde
  402bb6:	d10b      	bne.n	402bd0 <usb_interrupt_out_callback+0x7c>
  402bb8:	4b0a      	ldr	r3, [pc, #40]	; (402be4 <usb_interrupt_out_callback+0x90>)
  402bba:	4c11      	ldr	r4, [pc, #68]	; (402c00 <usb_interrupt_out_callback+0xac>)
  402bbc:	4798      	blx	r3
  402bbe:	4b11      	ldr	r3, [pc, #68]	; (402c04 <usb_interrupt_out_callback+0xb0>)
  402bc0:	2001      	movs	r0, #1
  402bc2:	4798      	blx	r3
  402bc4:	462b      	mov	r3, r5
  402bc6:	2201      	movs	r2, #1
  402bc8:	4629      	mov	r1, r5
  402bca:	480f      	ldr	r0, [pc, #60]	; (402c08 <usb_interrupt_out_callback+0xb4>)
  402bcc:	47a0      	blx	r4
  402bce:	e7fe      	b.n	402bce <usb_interrupt_out_callback+0x7a>
  402bd0:	4a0e      	ldr	r2, [pc, #56]	; (402c0c <usb_interrupt_out_callback+0xb8>)
  402bd2:	6820      	ldr	r0, [r4, #0]
  402bd4:	4b0e      	ldr	r3, [pc, #56]	; (402c10 <usb_interrupt_out_callback+0xbc>)
  402bd6:	2102      	movs	r1, #2
  402bd8:	4798      	blx	r3
  402bda:	b003      	add	sp, #12
  402bdc:	bd30      	pop	{r4, r5, pc}
  402bde:	bf00      	nop
  402be0:	2000038c 	.word	0x2000038c
  402be4:	00402941 	.word	0x00402941
  402be8:	00402b41 	.word	0x00402b41
  402bec:	20000354 	.word	0x20000354
  402bf0:	20000388 	.word	0x20000388
  402bf4:	00402a1d 	.word	0x00402a1d
  402bf8:	004001ad 	.word	0x004001ad
  402bfc:	0040017d 	.word	0x0040017d
  402c00:	00401e61 	.word	0x00401e61
  402c04:	00401ebd 	.word	0x00401ebd
  402c08:	400e1450 	.word	0x400e1450
  402c0c:	00402b55 	.word	0x00402b55
  402c10:	00400195 	.word	0x00400195

00402c14 <statusled_set>:
  402c14:	4b03      	ldr	r3, [pc, #12]	; (402c24 <statusled_set+0x10>)
  402c16:	f44f 0280 	mov.w	r2, #4194304	; 0x400000
  402c1a:	b108      	cbz	r0, 402c20 <statusled_set+0xc>
  402c1c:	631a      	str	r2, [r3, #48]	; 0x30
  402c1e:	4770      	bx	lr
  402c20:	635a      	str	r2, [r3, #52]	; 0x34
  402c22:	4770      	bx	lr
  402c24:	400e0e00 	.word	0x400e0e00

00402c28 <point_output>:
  402c28:	e92d 41f0 	stmdb	sp!, {r4, r5, r6, r7, r8, lr}
  402c2c:	4b28      	ldr	r3, [pc, #160]	; (402cd0 <point_output+0xa8>)
  402c2e:	4829      	ldr	r0, [pc, #164]	; (402cd4 <point_output+0xac>)
  402c30:	881e      	ldrh	r6, [r3, #0]
  402c32:	4b29      	ldr	r3, [pc, #164]	; (402cd8 <point_output+0xb0>)
  402c34:	4d29      	ldr	r5, [pc, #164]	; (402cdc <point_output+0xb4>)
  402c36:	681f      	ldr	r7, [r3, #0]
  402c38:	47a8      	blx	r5
  402c3a:	07c2      	lsls	r2, r0, #31
  402c3c:	eb07 0406 	add.w	r4, r7, r6
  402c40:	d50b      	bpl.n	402c5a <point_output+0x32>
  402c42:	2100      	movs	r1, #0
  402c44:	4b26      	ldr	r3, [pc, #152]	; (402ce0 <point_output+0xb8>)
  402c46:	4823      	ldr	r0, [pc, #140]	; (402cd4 <point_output+0xac>)
  402c48:	4798      	blx	r3
  402c4a:	7863      	ldrb	r3, [r4, #1]
  402c4c:	5db9      	ldrb	r1, [r7, r6]
  402c4e:	4821      	ldr	r0, [pc, #132]	; (402cd4 <point_output+0xac>)
  402c50:	091b      	lsrs	r3, r3, #4
  402c52:	ea43 1101 	orr.w	r1, r3, r1, lsl #4
  402c56:	4b23      	ldr	r3, [pc, #140]	; (402ce4 <point_output+0xbc>)
  402c58:	4798      	blx	r3
  402c5a:	79a1      	ldrb	r1, [r4, #6]
  402c5c:	4e22      	ldr	r6, [pc, #136]	; (402ce8 <point_output+0xc0>)
  402c5e:	4823      	ldr	r0, [pc, #140]	; (402cec <point_output+0xc4>)
  402c60:	2300      	movs	r3, #0
  402c62:	0109      	lsls	r1, r1, #4
  402c64:	461a      	mov	r2, r3
  402c66:	f441 5180 	orr.w	r1, r1, #4096	; 0x1000
  402c6a:	47b0      	blx	r6
  402c6c:	7961      	ldrb	r1, [r4, #5]
  402c6e:	481f      	ldr	r0, [pc, #124]	; (402cec <point_output+0xc4>)
  402c70:	2300      	movs	r3, #0
  402c72:	0109      	lsls	r1, r1, #4
  402c74:	461a      	mov	r2, r3
  402c76:	f441 41a0 	orr.w	r1, r1, #20480	; 0x5000
  402c7a:	47b0      	blx	r6
  402c7c:	7921      	ldrb	r1, [r4, #4]
  402c7e:	481b      	ldr	r0, [pc, #108]	; (402cec <point_output+0xc4>)
  402c80:	2300      	movs	r3, #0
  402c82:	0109      	lsls	r1, r1, #4
  402c84:	461a      	mov	r2, r3
  402c86:	f441 4110 	orr.w	r1, r1, #36864	; 0x9000
  402c8a:	47b0      	blx	r6
  402c8c:	78e1      	ldrb	r1, [r4, #3]
  402c8e:	4817      	ldr	r0, [pc, #92]	; (402cec <point_output+0xc4>)
  402c90:	2300      	movs	r3, #0
  402c92:	0109      	lsls	r1, r1, #4
  402c94:	461a      	mov	r2, r3
  402c96:	f441 4150 	orr.w	r1, r1, #53248	; 0xd000
  402c9a:	47b0      	blx	r6
  402c9c:	480d      	ldr	r0, [pc, #52]	; (402cd4 <point_output+0xac>)
  402c9e:	47a8      	blx	r5
  402ca0:	07c3      	lsls	r3, r0, #31
  402ca2:	d50c      	bpl.n	402cbe <point_output+0x96>
  402ca4:	2101      	movs	r1, #1
  402ca6:	4b0e      	ldr	r3, [pc, #56]	; (402ce0 <point_output+0xb8>)
  402ca8:	480a      	ldr	r0, [pc, #40]	; (402cd4 <point_output+0xac>)
  402caa:	4798      	blx	r3
  402cac:	7863      	ldrb	r3, [r4, #1]
  402cae:	78a1      	ldrb	r1, [r4, #2]
  402cb0:	4808      	ldr	r0, [pc, #32]	; (402cd4 <point_output+0xac>)
  402cb2:	021b      	lsls	r3, r3, #8
  402cb4:	f403 6370 	and.w	r3, r3, #3840	; 0xf00
  402cb8:	4319      	orrs	r1, r3
  402cba:	4b0a      	ldr	r3, [pc, #40]	; (402ce4 <point_output+0xbc>)
  402cbc:	4798      	blx	r3
  402cbe:	79a0      	ldrb	r0, [r4, #6]
  402cc0:	4b0b      	ldr	r3, [pc, #44]	; (402cf0 <point_output+0xc8>)
  402cc2:	3000      	adds	r0, #0
  402cc4:	bf18      	it	ne
  402cc6:	2001      	movne	r0, #1
  402cc8:	e8bd 41f0 	ldmia.w	sp!, {r4, r5, r6, r7, r8, lr}
  402ccc:	4718      	bx	r3
  402cce:	bf00      	nop
  402cd0:	2000035a 	.word	0x2000035a
  402cd4:	4003c000 	.word	0x4003c000
  402cd8:	20000390 	.word	0x20000390
  402cdc:	0040201b 	.word	0x0040201b
  402ce0:	00402023 	.word	0x00402023
  402ce4:	0040201f 	.word	0x0040201f
  402ce8:	00400861 	.word	0x00400861
  402cec:	40008000 	.word	0x40008000
  402cf0:	00402c15 	.word	0x00402c15

00402cf4 <SysTick_Handler>:
  402cf4:	e92d 41f0 	stmdb	sp!, {r4, r5, r6, r7, r8, lr}
  402cf8:	4b1b      	ldr	r3, [pc, #108]	; (402d68 <SysTick_Handler+0x74>)
  402cfa:	781b      	ldrb	r3, [r3, #0]
  402cfc:	2b00      	cmp	r3, #0
  402cfe:	d030      	beq.n	402d62 <SysTick_Handler+0x6e>
  402d00:	4c1a      	ldr	r4, [pc, #104]	; (402d6c <SysTick_Handler+0x78>)
  402d02:	4a1b      	ldr	r2, [pc, #108]	; (402d70 <SysTick_Handler+0x7c>)
  402d04:	8821      	ldrh	r1, [r4, #0]
  402d06:	8813      	ldrh	r3, [r2, #0]
  402d08:	4299      	cmp	r1, r3
  402d0a:	d325      	bcc.n	402d58 <SysTick_Handler+0x64>
  402d0c:	4819      	ldr	r0, [pc, #100]	; (402d74 <SysTick_Handler+0x80>)
  402d0e:	4b1a      	ldr	r3, [pc, #104]	; (402d78 <SysTick_Handler+0x84>)
  402d10:	7801      	ldrb	r1, [r0, #0]
  402d12:	b1c9      	cbz	r1, 402d48 <SysTick_Handler+0x54>
  402d14:	4d19      	ldr	r5, [pc, #100]	; (402d7c <SysTick_Handler+0x88>)
  402d16:	491a      	ldr	r1, [pc, #104]	; (402d80 <SysTick_Handler+0x8c>)
  402d18:	682e      	ldr	r6, [r5, #0]
  402d1a:	680f      	ldr	r7, [r1, #0]
  402d1c:	600e      	str	r6, [r1, #0]
  402d1e:	2100      	movs	r1, #0
  402d20:	7001      	strb	r1, [r0, #0]
  402d22:	8021      	strh	r1, [r4, #0]
  402d24:	4917      	ldr	r1, [pc, #92]	; (402d84 <SysTick_Handler+0x90>)
  402d26:	602f      	str	r7, [r5, #0]
  402d28:	8809      	ldrh	r1, [r1, #0]
  402d2a:	8011      	strh	r1, [r2, #0]
  402d2c:	4a16      	ldr	r2, [pc, #88]	; (402d88 <SysTick_Handler+0x94>)
  402d2e:	7812      	ldrb	r2, [r2, #0]
  402d30:	701a      	strb	r2, [r3, #0]
  402d32:	4b16      	ldr	r3, [pc, #88]	; (402d8c <SysTick_Handler+0x98>)
  402d34:	4798      	blx	r3
  402d36:	8823      	ldrh	r3, [r4, #0]
  402d38:	3307      	adds	r3, #7
  402d3a:	8023      	strh	r3, [r4, #0]
  402d3c:	4b14      	ldr	r3, [pc, #80]	; (402d90 <SysTick_Handler+0x9c>)
  402d3e:	e8bd 41f0 	ldmia.w	sp!, {r4, r5, r6, r7, r8, lr}
  402d42:	6818      	ldr	r0, [r3, #0]
  402d44:	4b13      	ldr	r3, [pc, #76]	; (402d94 <SysTick_Handler+0xa0>)
  402d46:	4718      	bx	r3
  402d48:	781b      	ldrb	r3, [r3, #0]
  402d4a:	b90b      	cbnz	r3, 402d50 <SysTick_Handler+0x5c>
  402d4c:	8023      	strh	r3, [r4, #0]
  402d4e:	e003      	b.n	402d58 <SysTick_Handler+0x64>
  402d50:	4b11      	ldr	r3, [pc, #68]	; (402d98 <SysTick_Handler+0xa4>)
  402d52:	e8bd 41f0 	ldmia.w	sp!, {r4, r5, r6, r7, r8, lr}
  402d56:	4718      	bx	r3
  402d58:	4b0c      	ldr	r3, [pc, #48]	; (402d8c <SysTick_Handler+0x98>)
  402d5a:	4798      	blx	r3
  402d5c:	8823      	ldrh	r3, [r4, #0]
  402d5e:	3307      	adds	r3, #7
  402d60:	8023      	strh	r3, [r4, #0]
  402d62:	e8bd 81f0 	ldmia.w	sp!, {r4, r5, r6, r7, r8, pc}
  402d66:	bf00      	nop
  402d68:	20000355 	.word	0x20000355
  402d6c:	2000035a 	.word	0x2000035a
  402d70:	20000358 	.word	0x20000358
  402d74:	20000354 	.word	0x20000354
  402d78:	200001a4 	.word	0x200001a4
  402d7c:	20000390 	.word	0x20000390
  402d80:	20000388 	.word	0x20000388
  402d84:	20000356 	.word	0x20000356
  402d88:	200001ac 	.word	0x200001ac
  402d8c:	00402c29 	.word	0x00402c29
  402d90:	200001a8 	.word	0x200001a8
  402d94:	004029d9 	.word	0x004029d9
  402d98:	00402941 	.word	0x00402941

00402d9c <iopins_init>:
  402d9c:	4b08      	ldr	r3, [pc, #32]	; (402dc0 <iopins_init+0x24>)
  402d9e:	f44f 1280 	mov.w	r2, #1048576	; 0x100000
  402da2:	611a      	str	r2, [r3, #16]
  402da4:	f8c3 20a0 	str.w	r2, [r3, #160]	; 0xa0
  402da8:	f44f 0280 	mov.w	r2, #4194304	; 0x400000
  402dac:	611a      	str	r2, [r3, #16]
  402dae:	f8c3 20a0 	str.w	r2, [r3, #160]	; 0xa0
  402db2:	f44f 0200 	mov.w	r2, #8388608	; 0x800000
  402db6:	611a      	str	r2, [r3, #16]
  402db8:	f8c3 20a0 	str.w	r2, [r3, #160]	; 0xa0
  402dbc:	4770      	bx	lr
  402dbe:	bf00      	nop
  402dc0:	400e0e00 	.word	0x400e0e00

00402dc4 <spi_init>:
  402dc4:	b538      	push	{r3, r4, r5, lr}
  402dc6:	f04f 6100 	mov.w	r1, #134217728	; 0x8000000
  402dca:	4c26      	ldr	r4, [pc, #152]	; (402e64 <spi_init+0xa0>)
  402dcc:	200c      	movs	r0, #12
  402dce:	47a0      	blx	r4
  402dd0:	f04f 6100 	mov.w	r1, #134217728	; 0x8000000
  402dd4:	200d      	movs	r0, #13
  402dd6:	47a0      	blx	r4
  402dd8:	f04f 6100 	mov.w	r1, #134217728	; 0x8000000
  402ddc:	200e      	movs	r0, #14
  402dde:	47a0      	blx	r4
  402de0:	f04f 6100 	mov.w	r1, #134217728	; 0x8000000
  402de4:	200b      	movs	r0, #11
  402de6:	47a0      	blx	r4
  402de8:	4c1f      	ldr	r4, [pc, #124]	; (402e68 <spi_init+0xa4>)
  402dea:	4b20      	ldr	r3, [pc, #128]	; (402e6c <spi_init+0xa8>)
  402dec:	4620      	mov	r0, r4
  402dee:	4798      	blx	r3
  402df0:	2580      	movs	r5, #128	; 0x80
  402df2:	2302      	movs	r3, #2
  402df4:	6023      	str	r3, [r4, #0]
  402df6:	6025      	str	r5, [r4, #0]
  402df8:	6863      	ldr	r3, [r4, #4]
  402dfa:	f043 0301 	orr.w	r3, r3, #1
  402dfe:	6063      	str	r3, [r4, #4]
  402e00:	6863      	ldr	r3, [r4, #4]
  402e02:	f023 0302 	bic.w	r3, r3, #2
  402e06:	6063      	str	r3, [r4, #4]
  402e08:	6863      	ldr	r3, [r4, #4]
  402e0a:	f043 0310 	orr.w	r3, r3, #16
  402e0e:	2204      	movs	r2, #4
  402e10:	6063      	str	r3, [r4, #4]
  402e12:	2100      	movs	r1, #0
  402e14:	4620      	mov	r0, r4
  402e16:	4b16      	ldr	r3, [pc, #88]	; (402e70 <spi_init+0xac>)
  402e18:	4798      	blx	r3
  402e1a:	2106      	movs	r1, #6
  402e1c:	4620      	mov	r0, r4
  402e1e:	4b15      	ldr	r3, [pc, #84]	; (402e74 <spi_init+0xb0>)
  402e20:	4798      	blx	r3
  402e22:	210e      	movs	r1, #14
  402e24:	4620      	mov	r0, r4
  402e26:	4b14      	ldr	r3, [pc, #80]	; (402e78 <spi_init+0xb4>)
  402e28:	4798      	blx	r3
  402e2a:	2200      	movs	r2, #0
  402e2c:	4611      	mov	r1, r2
  402e2e:	4620      	mov	r0, r4
  402e30:	4b12      	ldr	r3, [pc, #72]	; (402e7c <spi_init+0xb8>)
  402e32:	4798      	blx	r3
  402e34:	2200      	movs	r2, #0
  402e36:	4611      	mov	r1, r2
  402e38:	4620      	mov	r0, r4
  402e3a:	4b11      	ldr	r3, [pc, #68]	; (402e80 <spi_init+0xbc>)
  402e3c:	4798      	blx	r3
  402e3e:	462a      	mov	r2, r5
  402e40:	2100      	movs	r1, #0
  402e42:	4620      	mov	r0, r4
  402e44:	4b0f      	ldr	r3, [pc, #60]	; (402e84 <spi_init+0xc0>)
  402e46:	4d10      	ldr	r5, [pc, #64]	; (402e88 <spi_init+0xc4>)
  402e48:	4798      	blx	r3
  402e4a:	2207      	movs	r2, #7
  402e4c:	2100      	movs	r1, #0
  402e4e:	4620      	mov	r0, r4
  402e50:	4b0e      	ldr	r3, [pc, #56]	; (402e8c <spi_init+0xc8>)
  402e52:	4798      	blx	r3
  402e54:	2300      	movs	r3, #0
  402e56:	461a      	mov	r2, r3
  402e58:	4619      	mov	r1, r3
  402e5a:	4620      	mov	r0, r4
  402e5c:	47a8      	blx	r5
  402e5e:	2301      	movs	r3, #1
  402e60:	6023      	str	r3, [r4, #0]
  402e62:	bd38      	pop	{r3, r4, r5, pc}
  402e64:	00402121 	.word	0x00402121
  402e68:	40008000 	.word	0x40008000
  402e6c:	0040082d 	.word	0x0040082d
  402e70:	004008bb 	.word	0x004008bb
  402e74:	0040084f 	.word	0x0040084f
  402e78:	00400839 	.word	0x00400839
  402e7c:	0040088f 	.word	0x0040088f
  402e80:	004008a5 	.word	0x004008a5
  402e84:	004008fb 	.word	0x004008fb
  402e88:	00400925 	.word	0x00400925
  402e8c:	0040090f 	.word	0x0040090f

00402e90 <dac_init>:
  402e90:	b570      	push	{r4, r5, r6, lr}
  402e92:	4c0a      	ldr	r4, [pc, #40]	; (402ebc <dac_init+0x2c>)
  402e94:	4b0a      	ldr	r3, [pc, #40]	; (402ec0 <dac_init+0x30>)
  402e96:	4d0b      	ldr	r5, [pc, #44]	; (402ec4 <dac_init+0x34>)
  402e98:	201e      	movs	r0, #30
  402e9a:	4798      	blx	r3
  402e9c:	4b0a      	ldr	r3, [pc, #40]	; (402ec8 <dac_init+0x38>)
  402e9e:	4620      	mov	r0, r4
  402ea0:	4798      	blx	r3
  402ea2:	2100      	movs	r1, #0
  402ea4:	4620      	mov	r0, r4
  402ea6:	47a8      	blx	r5
  402ea8:	2101      	movs	r1, #1
  402eaa:	4620      	mov	r0, r4
  402eac:	47a8      	blx	r5
  402eae:	4620      	mov	r0, r4
  402eb0:	2100      	movs	r1, #0
  402eb2:	4b06      	ldr	r3, [pc, #24]	; (402ecc <dac_init+0x3c>)
  402eb4:	e8bd 4070 	ldmia.w	sp!, {r4, r5, r6, lr}
  402eb8:	4718      	bx	r3
  402eba:	bf00      	nop
  402ebc:	4003c000 	.word	0x4003c000
  402ec0:	0040231d 	.word	0x0040231d
  402ec4:	0040203b 	.word	0x0040203b
  402ec8:	00401ff9 	.word	0x00401ff9
  402ecc:	00401fff 	.word	0x00401fff

00402ed0 <main>:
  402ed0:	b580      	push	{r7, lr}
  402ed2:	4c2f      	ldr	r4, [pc, #188]	; (402f90 <main+0xc0>)
  402ed4:	4e2f      	ldr	r6, [pc, #188]	; (402f94 <main+0xc4>)
  402ed6:	f247 0005 	movw	r0, #28677	; 0x7005
  402eda:	47a0      	blx	r4
  402edc:	4b2e      	ldr	r3, [pc, #184]	; (402f98 <main+0xc8>)
  402ede:	6018      	str	r0, [r3, #0]
  402ee0:	f247 0005 	movw	r0, #28677	; 0x7005
  402ee4:	47a0      	blx	r4
  402ee6:	4b2d      	ldr	r3, [pc, #180]	; (402f9c <main+0xcc>)
  402ee8:	6018      	str	r0, [r3, #0]
  402eea:	2002      	movs	r0, #2
  402eec:	47a0      	blx	r4
  402eee:	4b2c      	ldr	r3, [pc, #176]	; (402fa0 <main+0xd0>)
  402ef0:	6018      	str	r0, [r3, #0]
  402ef2:	4b2c      	ldr	r3, [pc, #176]	; (402fa4 <main+0xd4>)
  402ef4:	4798      	blx	r3
  402ef6:	4b2c      	ldr	r3, [pc, #176]	; (402fa8 <main+0xd8>)
  402ef8:	4798      	blx	r3
  402efa:	4b2c      	ldr	r3, [pc, #176]	; (402fac <main+0xdc>)
  402efc:	4798      	blx	r3
  402efe:	4b2c      	ldr	r3, [pc, #176]	; (402fb0 <main+0xe0>)
  402f00:	4798      	blx	r3
  402f02:	4b2c      	ldr	r3, [pc, #176]	; (402fb4 <main+0xe4>)
  402f04:	4798      	blx	r3
  402f06:	4b2c      	ldr	r3, [pc, #176]	; (402fb8 <main+0xe8>)
  402f08:	4798      	blx	r3
  402f0a:	2301      	movs	r3, #1
  402f0c:	7033      	strb	r3, [r6, #0]
  402f0e:	f3bf 8f5f 	dmb	sy
  402f12:	b662      	cpsie	i
  402f14:	4d29      	ldr	r5, [pc, #164]	; (402fbc <main+0xec>)
  402f16:	4f2a      	ldr	r7, [pc, #168]	; (402fc0 <main+0xf0>)
  402f18:	716b      	strb	r3, [r5, #5]
  402f1a:	2400      	movs	r4, #0
  402f1c:	4b29      	ldr	r3, [pc, #164]	; (402fc4 <main+0xf4>)
  402f1e:	702c      	strb	r4, [r5, #0]
  402f20:	706c      	strb	r4, [r5, #1]
  402f22:	70ac      	strb	r4, [r5, #2]
  402f24:	70ec      	strb	r4, [r5, #3]
  402f26:	712c      	strb	r4, [r5, #4]
  402f28:	4798      	blx	r3
  402f2a:	4827      	ldr	r0, [pc, #156]	; (402fc8 <main+0xf8>)
  402f2c:	4b27      	ldr	r3, [pc, #156]	; (402fcc <main+0xfc>)
  402f2e:	4798      	blx	r3
  402f30:	4b27      	ldr	r3, [pc, #156]	; (402fd0 <main+0x100>)
  402f32:	f883 4023 	strb.w	r4, [r3, #35]	; 0x23
  402f36:	f5a3 6340 	sub.w	r3, r3, #3072	; 0xc00
  402f3a:	2210      	movs	r2, #16
  402f3c:	f883 2322 	strb.w	r2, [r3, #802]	; 0x322
  402f40:	4b24      	ldr	r3, [pc, #144]	; (402fd4 <main+0x104>)
  402f42:	f44f 1280 	mov.w	r2, #1048576	; 0x100000
  402f46:	635a      	str	r2, [r3, #52]	; 0x34
  402f48:	f44f 0280 	mov.w	r2, #4194304	; 0x400000
  402f4c:	635a      	str	r2, [r3, #52]	; 0x34
  402f4e:	f44f 0200 	mov.w	r2, #8388608	; 0x800000
  402f52:	631a      	str	r2, [r3, #48]	; 0x30
  402f54:	4b20      	ldr	r3, [pc, #128]	; (402fd8 <main+0x108>)
  402f56:	4798      	blx	r3
  402f58:	2003      	movs	r0, #3
  402f5a:	4b20      	ldr	r3, [pc, #128]	; (402fdc <main+0x10c>)
  402f5c:	4798      	blx	r3
  402f5e:	b672      	cpsid	i
  402f60:	f3bf 8f5f 	dmb	sy
  402f64:	2300      	movs	r3, #0
  402f66:	7034      	strb	r4, [r6, #0]
  402f68:	b2d8      	uxtb	r0, r3
  402f6a:	1c5a      	adds	r2, r3, #1
  402f6c:	5ceb      	ldrb	r3, [r5, r3]
  402f6e:	b90b      	cbnz	r3, 402f74 <main+0xa4>
  402f70:	4613      	mov	r3, r2
  402f72:	e7f9      	b.n	402f68 <main+0x98>
  402f74:	b928      	cbnz	r0, 402f82 <main+0xb2>
  402f76:	2301      	movs	r3, #1
  402f78:	7033      	strb	r3, [r6, #0]
  402f7a:	f3bf 8f5f 	dmb	sy
  402f7e:	b662      	cpsie	i
  402f80:	e7ed      	b.n	402f5e <main+0x8e>
  402f82:	b672      	cpsid	i
  402f84:	f3bf 8f5f 	dmb	sy
  402f88:	7034      	strb	r4, [r6, #0]
  402f8a:	47b8      	blx	r7
  402f8c:	e7e7      	b.n	402f5e <main+0x8e>
  402f8e:	bf00      	nop
  402f90:	004030f1 	.word	0x004030f1
  402f94:	20000160 	.word	0x20000160
  402f98:	20000390 	.word	0x20000390
  402f9c:	20000388 	.word	0x20000388
  402fa0:	2000038c 	.word	0x2000038c
  402fa4:	00401f95 	.word	0x00401f95
  402fa8:	0040239d 	.word	0x0040239d
  402fac:	00402301 	.word	0x00402301
  402fb0:	00402e91 	.word	0x00402e91
  402fb4:	00402dc5 	.word	0x00402dc5
  402fb8:	00402d9d 	.word	0x00402d9d
  402fbc:	20000364 	.word	0x20000364
  402fc0:	00402451 	.word	0x00402451
  402fc4:	00400325 	.word	0x00400325
  402fc8:	400e1450 	.word	0x400e1450
  402fcc:	00401e79 	.word	0x00401e79
  402fd0:	e000ed00 	.word	0xe000ed00
  402fd4:	400e0e00 	.word	0x400e0e00
  402fd8:	00402941 	.word	0x00402941
  402fdc:	00402909 	.word	0x00402909

00402fe0 <msft_string_handle>:
  402fe0:	b51f      	push	{r0, r1, r2, r3, r4, lr}
  402fe2:	4a12      	ldr	r2, [pc, #72]	; (40302c <msft_string_handle+0x4c>)
  402fe4:	6810      	ldr	r0, [r2, #0]
  402fe6:	6851      	ldr	r1, [r2, #4]
  402fe8:	7a12      	ldrb	r2, [r2, #8]
  402fea:	ab01      	add	r3, sp, #4
  402fec:	c303      	stmia	r3!, {r0, r1}
  402fee:	701a      	strb	r2, [r3, #0]
  402ff0:	4b0f      	ldr	r3, [pc, #60]	; (403030 <msft_string_handle+0x50>)
  402ff2:	789a      	ldrb	r2, [r3, #2]
  402ff4:	2aee      	cmp	r2, #238	; 0xee
  402ff6:	ac01      	add	r4, sp, #4
  402ff8:	d112      	bne.n	403020 <msft_string_handle+0x40>
  402ffa:	490e      	ldr	r1, [pc, #56]	; (403034 <msft_string_handle+0x54>)
  402ffc:	2200      	movs	r2, #0
  402ffe:	5ca0      	ldrb	r0, [r4, r2]
  403000:	f821 0b02 	strh.w	r0, [r1], #2
  403004:	3201      	adds	r2, #1
  403006:	2a08      	cmp	r2, #8
  403008:	d1f9      	bne.n	402ffe <msft_string_handle+0x1e>
  40300a:	4a0b      	ldr	r2, [pc, #44]	; (403038 <msft_string_handle+0x58>)
  40300c:	609a      	str	r2, [r3, #8]
  40300e:	2112      	movs	r1, #18
  403010:	8199      	strh	r1, [r3, #12]
  403012:	88db      	ldrh	r3, [r3, #6]
  403014:	7011      	strb	r1, [r2, #0]
  403016:	2b11      	cmp	r3, #17
  403018:	d804      	bhi.n	403024 <msft_string_handle+0x44>
  40301a:	4a05      	ldr	r2, [pc, #20]	; (403030 <msft_string_handle+0x50>)
  40301c:	8193      	strh	r3, [r2, #12]
  40301e:	e001      	b.n	403024 <msft_string_handle+0x44>
  403020:	2000      	movs	r0, #0
  403022:	e000      	b.n	403026 <msft_string_handle+0x46>
  403024:	2001      	movs	r0, #1
  403026:	b004      	add	sp, #16
  403028:	bd10      	pop	{r4, pc}
  40302a:	bf00      	nop
  40302c:	004031d3 	.word	0x004031d3
  403030:	2000036c 	.word	0x2000036c
  403034:	20000192 	.word	0x20000192
  403038:	20000190 	.word	0x20000190

0040303c <usb_device_specific_request>:
  40303c:	4915      	ldr	r1, [pc, #84]	; (403094 <usb_device_specific_request+0x58>)
  40303e:	780b      	ldrb	r3, [r1, #0]
  403040:	f003 0360 	and.w	r3, r3, #96	; 0x60
  403044:	2b40      	cmp	r3, #64	; 0x40
  403046:	d118      	bne.n	40307a <usb_device_specific_request+0x3e>
  403048:	784b      	ldrb	r3, [r1, #1]
  40304a:	b113      	cbz	r3, 403052 <usb_device_specific_request+0x16>
  40304c:	2b30      	cmp	r3, #48	; 0x30
  40304e:	d00a      	beq.n	403066 <usb_device_specific_request+0x2a>
  403050:	e013      	b.n	40307a <usb_device_specific_request+0x3e>
  403052:	888a      	ldrh	r2, [r1, #4]
  403054:	b122      	cbz	r2, 403060 <usb_device_specific_request+0x24>
  403056:	2a01      	cmp	r2, #1
  403058:	d110      	bne.n	40307c <usb_device_specific_request+0x40>
  40305a:	230b      	movs	r3, #11
  40305c:	4a0e      	ldr	r2, [pc, #56]	; (403098 <usb_device_specific_request+0x5c>)
  40305e:	e00e      	b.n	40307e <usb_device_specific_request+0x42>
  403060:	230b      	movs	r3, #11
  403062:	4a0e      	ldr	r2, [pc, #56]	; (40309c <usb_device_specific_request+0x60>)
  403064:	e00b      	b.n	40307e <usb_device_specific_request+0x42>
  403066:	888b      	ldrh	r3, [r1, #4]
  403068:	2b04      	cmp	r3, #4
  40306a:	d111      	bne.n	403090 <usb_device_specific_request+0x54>
  40306c:	4a0c      	ldr	r2, [pc, #48]	; (4030a0 <usb_device_specific_request+0x64>)
  40306e:	88cb      	ldrh	r3, [r1, #6]
  403070:	6810      	ldr	r0, [r2, #0]
  403072:	4283      	cmp	r3, r0
  403074:	d903      	bls.n	40307e <usb_device_specific_request+0x42>
  403076:	b283      	uxth	r3, r0
  403078:	e001      	b.n	40307e <usb_device_specific_request+0x42>
  40307a:	2300      	movs	r3, #0
  40307c:	461a      	mov	r2, r3
  40307e:	4805      	ldr	r0, [pc, #20]	; (403094 <usb_device_specific_request+0x58>)
  403080:	818b      	strh	r3, [r1, #12]
  403082:	b913      	cbnz	r3, 40308a <usb_device_specific_request+0x4e>
  403084:	6103      	str	r3, [r0, #16]
  403086:	6143      	str	r3, [r0, #20]
  403088:	e000      	b.n	40308c <usb_device_specific_request+0x50>
  40308a:	6082      	str	r2, [r0, #8]
  40308c:	2001      	movs	r0, #1
  40308e:	4770      	bx	lr
  403090:	2000      	movs	r0, #0
  403092:	4770      	bx	lr
  403094:	2000036c 	.word	0x2000036c
  403098:	004031dc 	.word	0x004031dc
  40309c:	004031c8 	.word	0x004031c8
  4030a0:	20000168 	.word	0x20000168

004030a4 <__libc_init_array>:
  4030a4:	b570      	push	{r4, r5, r6, lr}
  4030a6:	4b0e      	ldr	r3, [pc, #56]	; (4030e0 <__libc_init_array+0x3c>)
  4030a8:	4c0e      	ldr	r4, [pc, #56]	; (4030e4 <__libc_init_array+0x40>)
  4030aa:	1ae4      	subs	r4, r4, r3
  4030ac:	10a4      	asrs	r4, r4, #2
  4030ae:	2500      	movs	r5, #0
  4030b0:	461e      	mov	r6, r3
  4030b2:	42a5      	cmp	r5, r4
  4030b4:	d004      	beq.n	4030c0 <__libc_init_array+0x1c>
  4030b6:	f856 3025 	ldr.w	r3, [r6, r5, lsl #2]
  4030ba:	4798      	blx	r3
  4030bc:	3501      	adds	r5, #1
  4030be:	e7f8      	b.n	4030b2 <__libc_init_array+0xe>
  4030c0:	f000 f8c4 	bl	40324c <_init>
  4030c4:	4c08      	ldr	r4, [pc, #32]	; (4030e8 <__libc_init_array+0x44>)
  4030c6:	4b09      	ldr	r3, [pc, #36]	; (4030ec <__libc_init_array+0x48>)
  4030c8:	1ae4      	subs	r4, r4, r3
  4030ca:	10a4      	asrs	r4, r4, #2
  4030cc:	2500      	movs	r5, #0
  4030ce:	461e      	mov	r6, r3
  4030d0:	42a5      	cmp	r5, r4
  4030d2:	d004      	beq.n	4030de <__libc_init_array+0x3a>
  4030d4:	f856 3025 	ldr.w	r3, [r6, r5, lsl #2]
  4030d8:	4798      	blx	r3
  4030da:	3501      	adds	r5, #1
  4030dc:	e7f8      	b.n	4030d0 <__libc_init_array+0x2c>
  4030de:	bd70      	pop	{r4, r5, r6, pc}
  4030e0:	00403258 	.word	0x00403258
  4030e4:	00403258 	.word	0x00403258
  4030e8:	0040325c 	.word	0x0040325c
  4030ec:	00403258 	.word	0x00403258

004030f0 <malloc>:
  4030f0:	4b02      	ldr	r3, [pc, #8]	; (4030fc <malloc+0xc>)
  4030f2:	4601      	mov	r1, r0
  4030f4:	6818      	ldr	r0, [r3, #0]
  4030f6:	f000 b803 	b.w	403100 <_malloc_r>
  4030fa:	bf00      	nop
  4030fc:	20000210 	.word	0x20000210

00403100 <_malloc_r>:
  403100:	b570      	push	{r4, r5, r6, lr}
  403102:	1ccd      	adds	r5, r1, #3
  403104:	f025 0503 	bic.w	r5, r5, #3
  403108:	3508      	adds	r5, #8
  40310a:	2d0c      	cmp	r5, #12
  40310c:	bf38      	it	cc
  40310e:	250c      	movcc	r5, #12
  403110:	2d00      	cmp	r5, #0
  403112:	4606      	mov	r6, r0
  403114:	da03      	bge.n	40311e <_malloc_r+0x1e>
  403116:	230c      	movs	r3, #12
  403118:	6033      	str	r3, [r6, #0]
  40311a:	2000      	movs	r0, #0
  40311c:	bd70      	pop	{r4, r5, r6, pc}
  40311e:	42a9      	cmp	r1, r5
  403120:	d8f9      	bhi.n	403116 <_malloc_r+0x16>
  403122:	4b1f      	ldr	r3, [pc, #124]	; (4031a0 <_malloc_r+0xa0>)
  403124:	681c      	ldr	r4, [r3, #0]
  403126:	461a      	mov	r2, r3
  403128:	4621      	mov	r1, r4
  40312a:	b1a1      	cbz	r1, 403156 <_malloc_r+0x56>
  40312c:	680b      	ldr	r3, [r1, #0]
  40312e:	1b5b      	subs	r3, r3, r5
  403130:	d40e      	bmi.n	403150 <_malloc_r+0x50>
  403132:	2b0b      	cmp	r3, #11
  403134:	d903      	bls.n	40313e <_malloc_r+0x3e>
  403136:	600b      	str	r3, [r1, #0]
  403138:	18cc      	adds	r4, r1, r3
  40313a:	50cd      	str	r5, [r1, r3]
  40313c:	e01e      	b.n	40317c <_malloc_r+0x7c>
  40313e:	428c      	cmp	r4, r1
  403140:	bf0d      	iteet	eq
  403142:	6863      	ldreq	r3, [r4, #4]
  403144:	684b      	ldrne	r3, [r1, #4]
  403146:	6063      	strne	r3, [r4, #4]
  403148:	6013      	streq	r3, [r2, #0]
  40314a:	bf18      	it	ne
  40314c:	460c      	movne	r4, r1
  40314e:	e015      	b.n	40317c <_malloc_r+0x7c>
  403150:	460c      	mov	r4, r1
  403152:	6849      	ldr	r1, [r1, #4]
  403154:	e7e9      	b.n	40312a <_malloc_r+0x2a>
  403156:	4c13      	ldr	r4, [pc, #76]	; (4031a4 <_malloc_r+0xa4>)
  403158:	6823      	ldr	r3, [r4, #0]
  40315a:	b91b      	cbnz	r3, 403164 <_malloc_r+0x64>
  40315c:	4630      	mov	r0, r6
  40315e:	f000 f823 	bl	4031a8 <_sbrk_r>
  403162:	6020      	str	r0, [r4, #0]
  403164:	4629      	mov	r1, r5
  403166:	4630      	mov	r0, r6
  403168:	f000 f81e 	bl	4031a8 <_sbrk_r>
  40316c:	1c43      	adds	r3, r0, #1
  40316e:	d0d2      	beq.n	403116 <_malloc_r+0x16>
  403170:	1cc4      	adds	r4, r0, #3
  403172:	f024 0403 	bic.w	r4, r4, #3
  403176:	42a0      	cmp	r0, r4
  403178:	d10a      	bne.n	403190 <_malloc_r+0x90>
  40317a:	6025      	str	r5, [r4, #0]
  40317c:	f104 000b 	add.w	r0, r4, #11
  403180:	1d23      	adds	r3, r4, #4
  403182:	f020 0007 	bic.w	r0, r0, #7
  403186:	1ac3      	subs	r3, r0, r3
  403188:	d009      	beq.n	40319e <_malloc_r+0x9e>
  40318a:	425a      	negs	r2, r3
  40318c:	50e2      	str	r2, [r4, r3]
  40318e:	bd70      	pop	{r4, r5, r6, pc}
  403190:	1a21      	subs	r1, r4, r0
  403192:	4630      	mov	r0, r6
  403194:	f000 f808 	bl	4031a8 <_sbrk_r>
  403198:	3001      	adds	r0, #1
  40319a:	d1ee      	bne.n	40317a <_malloc_r+0x7a>
  40319c:	e7bb      	b.n	403116 <_malloc_r+0x16>
  40319e:	bd70      	pop	{r4, r5, r6, pc}
  4031a0:	20000360 	.word	0x20000360
  4031a4:	2000035c 	.word	0x2000035c

004031a8 <_sbrk_r>:
  4031a8:	b538      	push	{r3, r4, r5, lr}
  4031aa:	4c06      	ldr	r4, [pc, #24]	; (4031c4 <_sbrk_r+0x1c>)
  4031ac:	2300      	movs	r3, #0
  4031ae:	4605      	mov	r5, r0
  4031b0:	4608      	mov	r0, r1
  4031b2:	6023      	str	r3, [r4, #0]
  4031b4:	f7ff fb76 	bl	4028a4 <_sbrk>
  4031b8:	1c43      	adds	r3, r0, #1
  4031ba:	d102      	bne.n	4031c2 <_sbrk_r+0x1a>
  4031bc:	6823      	ldr	r3, [r4, #0]
  4031be:	b103      	cbz	r3, 4031c2 <_sbrk_r+0x1a>
  4031c0:	602b      	str	r3, [r5, #0]
  4031c2:	bd38      	pop	{r3, r4, r5, pc}
  4031c4:	20000394 	.word	0x20000394

004031c8 <hwversion>:
  4031c8:	565f5748 49535245 4d004e4f 31544653     HW_VERSION.MSFT1
  4031d8:	00303030                                000.

004031dc <fwversion>:
  4031dc:	565f5746 49535245 43004e4f 00000000     FW_VERSION.C....

004031ec <__sf_fake_stdin>:
	...

0040320c <__sf_fake_stdout>:
	...

0040322c <__sf_fake_stderr>:
	...

0040324c <_init>:
  40324c:	b5f8      	push	{r3, r4, r5, r6, r7, lr}
  40324e:	bf00      	nop
  403250:	bcf8      	pop	{r3, r4, r5, r6, r7}
  403252:	bc08      	pop	{r3}
  403254:	469e      	mov	lr, r3
  403256:	4770      	bx	lr

00403258 <__init_array_start>:
  403258:	004000f1 	.word	0x004000f1

0040325c <_fini>:
  40325c:	b5f8      	push	{r3, r4, r5, r6, r7, lr}
  40325e:	bf00      	nop
  403260:	bcf8      	pop	{r3, r4, r5, r6, r7}
  403262:	bc08      	pop	{r3}
  403264:	469e      	mov	lr, r3
  403266:	4770      	bx	lr

00403268 <__fini_array_start>:
  403268:	004000cd 	.word	0x004000cd

Disassembly of section .relocate:

20000000 <efc_perform_read_sequence>:
20000000:	b573      	push	{r0, r1, r4, r5, r6, lr}
20000002:	4604      	mov	r4, r0
20000004:	b333      	cbz	r3, 20000054 <efc_perform_read_sequence+0x54>
20000006:	6800      	ldr	r0, [r0, #0]
20000008:	b2c9      	uxtb	r1, r1
2000000a:	f440 3080 	orr.w	r0, r0, #65536	; 0x10000
2000000e:	f041 41b4 	orr.w	r1, r1, #1509949440	; 0x5a000000
20000012:	6020      	str	r0, [r4, #0]
20000014:	6061      	str	r1, [r4, #4]
20000016:	68a1      	ldr	r1, [r4, #8]
20000018:	9101      	str	r1, [sp, #4]
2000001a:	9801      	ldr	r0, [sp, #4]
2000001c:	f010 0001 	ands.w	r0, r0, #1
20000020:	d1f9      	bne.n	20000016 <efc_perform_read_sequence+0x16>
20000022:	9906      	ldr	r1, [sp, #24]
20000024:	4d0d      	ldr	r5, [pc, #52]	; (2000005c <efc_perform_read_sequence+0x5c>)
20000026:	eb03 0181 	add.w	r1, r3, r1, lsl #2
2000002a:	428b      	cmp	r3, r1
2000002c:	d004      	beq.n	20000038 <efc_perform_read_sequence+0x38>
2000002e:	f855 6f04 	ldr.w	r6, [r5, #4]!
20000032:	f843 6b04 	str.w	r6, [r3], #4
20000036:	e7f8      	b.n	2000002a <efc_perform_read_sequence+0x2a>
20000038:	b2d2      	uxtb	r2, r2
2000003a:	f042 42b4 	orr.w	r2, r2, #1509949440	; 0x5a000000
2000003e:	6062      	str	r2, [r4, #4]
20000040:	68a3      	ldr	r3, [r4, #8]
20000042:	9301      	str	r3, [sp, #4]
20000044:	9b01      	ldr	r3, [sp, #4]
20000046:	07db      	lsls	r3, r3, #31
20000048:	d5fa      	bpl.n	20000040 <efc_perform_read_sequence+0x40>
2000004a:	6823      	ldr	r3, [r4, #0]
2000004c:	f423 3380 	bic.w	r3, r3, #65536	; 0x10000
20000050:	6023      	str	r3, [r4, #0]
20000052:	e000      	b.n	20000056 <efc_perform_read_sequence+0x56>
20000054:	2002      	movs	r0, #2
20000056:	b002      	add	sp, #8
20000058:	bd70      	pop	{r4, r5, r6, pc}
2000005a:	bf00      	nop
2000005c:	003ffffc 	.word	0x003ffffc

20000060 <efc_write_fmr>:
20000060:	6001      	str	r1, [r0, #0]
20000062:	4770      	bx	lr

20000064 <efc_perform_fcr>:
20000064:	b082      	sub	sp, #8
20000066:	6041      	str	r1, [r0, #4]
20000068:	6883      	ldr	r3, [r0, #8]
2000006a:	9301      	str	r3, [sp, #4]
2000006c:	9b01      	ldr	r3, [sp, #4]
2000006e:	07db      	lsls	r3, r3, #31
20000070:	d5fa      	bpl.n	20000068 <efc_perform_fcr+0x4>
20000072:	9801      	ldr	r0, [sp, #4]
20000074:	f000 000e 	and.w	r0, r0, #14
20000078:	b002      	add	sp, #8
2000007a:	4770      	bx	lr

2000007c <udi_api_vendor>:
2000007c:	0151 0040 0139 0040 0129 0040 012d 0040     Q.@.9.@.).@.-.@.
2000008c:	0000 0000                                   ....

20000090 <udc_string_product_name>:
20000090:	6548 696c 736f 4c20 7361 7265 4420 4341     Helios Laser DAC
	...

200000a1 <udc_string_manufacturer_name>:
200000a1:	694d 6b6b 6c65 6573 206e 6c45 6365 7274     Mikkelsen Electr
200000b1:	6e6f 6369 0073 0000                              onics..

200000b8 <udc_string_desc>:
200000b8:	0300 0000 0000 0000 0000 0000 0000 0000     ................
	...

200000e4 <udc_string_desc_languageid>:
200000e4:	0304 0409                                   ....

200000e8 <udc_config_lsfs>:
200000e8:	0114 2000 00fc 2000                         ... ... 

200000f0 <udc_config>:
200000f0:	0100 2000 00e8 2000 0000 0000               ... ... ....

200000fc <udi_apis>:
200000fc:	007c 2000                                   |.. 

20000100 <udc_device_desc>:
20000100:	0112 0200 0000 4000 1209 e500 0200 0201     .......@........
20000110:	0100 0000                                   ....

20000114 <udc_desc_fs>:
20000114:	0209 0045 0101 8000 094b 0004 0000 ffff     ..E.....K.......
20000124:	00ff 0409 0100 ff06 ffff 0700 8305 0203     ................
20000134:	0100 0507 0306 0002 0701 8105 4002 0000     .............@..
20000144:	0507 0202 0040 0700 8405 0101 0100 0507     ....@...........
20000154:	0105 0001 0001 0000                         ........

2000015c <ul_flash_in_wait_mode>:
2000015c:	0000 0020                                   .. .

20000160 <g_interrupt_enabled>:
20000160:	0001 0000                                   ....

20000164 <SystemCoreClock>:
20000164:	0900 003d                                   ..=.

20000168 <msft_compatible>:
20000168:	0028 0000 0100 0004 0001 0000 0000 0000     (...............
20000178:	0000 4957 554e 4253 0000 0000 0000 0000     ..WINUSB........
	...

20000190 <extra_strings_desc.8917>:
20000190:	0300 0000 0000 0000 0000 0000 0000 0000     ................
200001a0:	0000 0000                                   ....

200001a4 <notRepeat>:
200001a4:	0001 0000                                   ....

200001a8 <outputSpeed>:
200001a8:	4e20 0000                                    N..

200001ac <newNotRepeat>:
200001ac:	0001 0000                                   ....

200001b0 <impure_data>:
200001b0:	0000 0000 31ec 0040 320c 0040 322c 0040     .....1@..2@.,2@.
	...
200001d0:	31e7 0040 0000 0000 0000 0000 0000 0000     .1@.............
	...

20000210 <_impure_ptr>:
20000210:	01b0 2000                                   ... 
