
lasdac_mainfirmware.elf:     file format elf32-littlearm

Sections:
Idx Name          Size      VMA       LMA       File off  Algn
  0 .text         00003b3c  00400000  00400000  00010000  2**4
                  CONTENTS, ALLOC, LOAD, READONLY, CODE
  1 .relocate     00000204  20000000  00403b3c  00020000  2**2
                  CONTENTS, ALLOC, LOAD, CODE
  2 .bss          0000038c  20000204  00403d40  00020204  2**2
                  ALLOC
  3 .stack        00001200  20000590  004040cc  00020204  2**0
                  ALLOC
  4 .ARM.attributes 0000002a  00000000  00000000  00020204  2**0
                  CONTENTS, READONLY
  5 .comment      00000059  00000000  00000000  0002022e  2**0
                  CONTENTS, READONLY
  6 .debug_frame  000004a0  00000000  00000000  00020288  2**2
                  CONTENTS, READONLY, DEBUGGING

Disassembly of section .text:

00400000 <exception_table>:
  400000:	90 17 00 20 7d 26 40 00 79 26 40 00 79 26 40 00     ... }&@.y&@.y&@.
  400010:	79 26 40 00 79 26 40 00 79 26 40 00 00 00 00 00     y&@.y&@.y&@.....
	...
  40002c:	79 26 40 00 79 26 40 00 00 00 00 00 79 26 40 00     y&@.y&@.....y&@.
  40003c:	e1 2c 40 00 79 26 40 00 79 26 40 00 79 26 40 00     .,@.y&@.y&@.y&@.
  40004c:	79 26 40 00 79 26 40 00 79 26 40 00 79 26 40 00     y&@.y&@.y&@.y&@.
  40005c:	00 00 00 00 79 26 40 00 79 26 40 00 00 00 00 00     ....y&@.y&@.....
  40006c:	d1 07 40 00 dd 07 40 00 00 00 00 00 79 26 40 00     ..@...@.....y&@.
  40007c:	79 26 40 00 00 00 00 00 00 00 00 00 79 26 40 00     y&@.........y&@.
  40008c:	79 26 40 00 79 26 40 00 79 26 40 00 79 26 40 00     y&@.y&@.y&@.y&@.
  40009c:	0d 29 40 00 79 26 40 00 79 26 40 00 00 00 00 00     .)@.y&@.y&@.....
	...
  4000b4:	79 26 40 00 79 26 40 00 79 26 40 00 79 26 40 00     y&@.y&@.y&@.y&@.
  4000c4:	79 26 40 00 f5 0e 40 00                             y&@...@.

004000cc <__do_global_dtors_aux>:
  4000cc:	b510      	push	{r4, lr}
  4000ce:	4c05      	ldr	r4, [pc, #20]	; (4000e4 <__do_global_dtors_aux+0x18>)
  4000d0:	7823      	ldrb	r3, [r4, #0]
  4000d2:	b933      	cbnz	r3, 4000e2 <__do_global_dtors_aux+0x16>
  4000d4:	4b04      	ldr	r3, [pc, #16]	; (4000e8 <__do_global_dtors_aux+0x1c>)
  4000d6:	b113      	cbz	r3, 4000de <__do_global_dtors_aux+0x12>
  4000d8:	4804      	ldr	r0, [pc, #16]	; (4000ec <__do_global_dtors_aux+0x20>)
  4000da:	f3af 8000 	nop.w
  4000de:	2301      	movs	r3, #1
  4000e0:	7023      	strb	r3, [r4, #0]
  4000e2:	bd10      	pop	{r4, pc}
  4000e4:	20000204 	.word	0x20000204
  4000e8:	00000000 	.word	0x00000000
  4000ec:	00403b3c 	.word	0x00403b3c

004000f0 <frame_dummy>:
  4000f0:	4b0c      	ldr	r3, [pc, #48]	; (400124 <frame_dummy+0x34>)
  4000f2:	b143      	cbz	r3, 400106 <frame_dummy+0x16>
  4000f4:	480c      	ldr	r0, [pc, #48]	; (400128 <frame_dummy+0x38>)
  4000f6:	490d      	ldr	r1, [pc, #52]	; (40012c <frame_dummy+0x3c>)
  4000f8:	b510      	push	{r4, lr}
  4000fa:	f3af 8000 	nop.w
  4000fe:	480c      	ldr	r0, [pc, #48]	; (400130 <frame_dummy+0x40>)
  400100:	6803      	ldr	r3, [r0, #0]
  400102:	b923      	cbnz	r3, 40010e <frame_dummy+0x1e>
  400104:	bd10      	pop	{r4, pc}
  400106:	480a      	ldr	r0, [pc, #40]	; (400130 <frame_dummy+0x40>)
  400108:	6803      	ldr	r3, [r0, #0]
  40010a:	b933      	cbnz	r3, 40011a <frame_dummy+0x2a>
  40010c:	4770      	bx	lr
  40010e:	4b09      	ldr	r3, [pc, #36]	; (400134 <frame_dummy+0x44>)
  400110:	2b00      	cmp	r3, #0
  400112:	d0f7      	beq.n	400104 <frame_dummy+0x14>
  400114:	e8bd 4010 	ldmia.w	sp!, {r4, lr}
  400118:	4718      	bx	r3
  40011a:	4b06      	ldr	r3, [pc, #24]	; (400134 <frame_dummy+0x44>)
  40011c:	2b00      	cmp	r3, #0
  40011e:	d0f5      	beq.n	40010c <frame_dummy+0x1c>
  400120:	4718      	bx	r3
  400122:	bf00      	nop
  400124:	00000000 	.word	0x00000000
  400128:	00403b3c 	.word	0x00403b3c
  40012c:	20000208 	.word	0x20000208
  400130:	00403b3c 	.word	0x00403b3c
  400134:	00000000 	.word	0x00000000

00400138 <udi_vendor_setup>:
  400138:	2000      	movs	r0, #0
  40013a:	4770      	bx	lr

0040013c <udi_vendor_getsetting>:
  40013c:	4b01      	ldr	r3, [pc, #4]	; (400144 <udi_vendor_getsetting+0x8>)
  40013e:	7818      	ldrb	r0, [r3, #0]
  400140:	4770      	bx	lr
  400142:	bf00      	nop
  400144:	20000220 	.word	0x20000220

00400148 <udi_vendor_disable>:
  400148:	4b03      	ldr	r3, [pc, #12]	; (400158 <udi_vendor_disable+0x10>)
  40014a:	781b      	ldrb	r3, [r3, #0]
  40014c:	2b01      	cmp	r3, #1
  40014e:	d101      	bne.n	400154 <udi_vendor_disable+0xc>
  400150:	f002 bcc0 	b.w	402ad4 <callback_vendor_disable>
  400154:	4770      	bx	lr
  400156:	bf00      	nop
  400158:	20000220 	.word	0x20000220

0040015c <udi_vendor_enable>:
  40015c:	b508      	push	{r3, lr}
  40015e:	f000 f8c7 	bl	4002f0 <udc_get_interface_desc>
  400162:	78c3      	ldrb	r3, [r0, #3]
  400164:	4a05      	ldr	r2, [pc, #20]	; (40017c <udi_vendor_enable+0x20>)
  400166:	2b01      	cmp	r3, #1
  400168:	7013      	strb	r3, [r2, #0]
  40016a:	d105      	bne.n	400178 <udi_vendor_enable+0x1c>
  40016c:	f002 fc8c 	bl	402a88 <callback_vendor_enable>
  400170:	3000      	adds	r0, #0
  400172:	bf18      	it	ne
  400174:	2001      	movne	r0, #1
  400176:	bd08      	pop	{r3, pc}
  400178:	2001      	movs	r0, #1
  40017a:	bd08      	pop	{r3, pc}
  40017c:	20000220 	.word	0x20000220

00400180 <udi_vendor_interrupt_in_run>:
  400180:	b507      	push	{r0, r1, r2, lr}
  400182:	460b      	mov	r3, r1
  400184:	9200      	str	r2, [sp, #0]
  400186:	2100      	movs	r1, #0
  400188:	4602      	mov	r2, r0
  40018a:	2083      	movs	r0, #131	; 0x83
  40018c:	f001 fcce 	bl	401b2c <udd_ep_run>
  400190:	b003      	add	sp, #12
  400192:	f85d fb04 	ldr.w	pc, [sp], #4

00400196 <udi_vendor_interrupt_out_run>:
  400196:	b507      	push	{r0, r1, r2, lr}
  400198:	460b      	mov	r3, r1
  40019a:	9200      	str	r2, [sp, #0]
  40019c:	2100      	movs	r1, #0
  40019e:	4602      	mov	r2, r0
  4001a0:	2006      	movs	r0, #6
  4001a2:	f001 fcc3 	bl	401b2c <udd_ep_run>
  4001a6:	b003      	add	sp, #12
  4001a8:	f85d fb04 	ldr.w	pc, [sp], #4

004001ac <udi_vendor_bulk_out_run>:
  4001ac:	b507      	push	{r0, r1, r2, lr}
  4001ae:	460b      	mov	r3, r1
  4001b0:	9200      	str	r2, [sp, #0]
  4001b2:	2100      	movs	r1, #0
  4001b4:	4602      	mov	r2, r0
  4001b6:	2002      	movs	r0, #2
  4001b8:	f001 fcb8 	bl	401b2c <udd_ep_run>
  4001bc:	b003      	add	sp, #12
  4001be:	f85d fb04 	ldr.w	pc, [sp], #4
	...

004001c4 <udc_valid_address>:
  4001c4:	4b02      	ldr	r3, [pc, #8]	; (4001d0 <udc_valid_address+0xc>)
  4001c6:	7898      	ldrb	r0, [r3, #2]
  4001c8:	f000 007f 	and.w	r0, r0, #127	; 0x7f
  4001cc:	f001 bb1c 	b.w	401808 <udd_set_address>
  4001d0:	2000055c 	.word	0x2000055c

004001d4 <udc_update_iface_desc>:
  4001d4:	b570      	push	{r4, r5, r6, lr}
  4001d6:	4b13      	ldr	r3, [pc, #76]	; (400224 <udc_update_iface_desc+0x50>)
  4001d8:	781b      	ldrb	r3, [r3, #0]
  4001da:	b90b      	cbnz	r3, 4001e0 <udc_update_iface_desc+0xc>
  4001dc:	2000      	movs	r0, #0
  4001de:	bd70      	pop	{r4, r5, r6, pc}
  4001e0:	4b11      	ldr	r3, [pc, #68]	; (400228 <udc_update_iface_desc+0x54>)
  4001e2:	681b      	ldr	r3, [r3, #0]
  4001e4:	681b      	ldr	r3, [r3, #0]
  4001e6:	791a      	ldrb	r2, [r3, #4]
  4001e8:	4282      	cmp	r2, r0
  4001ea:	d9f7      	bls.n	4001dc <udc_update_iface_desc+0x8>
  4001ec:	4a0f      	ldr	r2, [pc, #60]	; (40022c <udc_update_iface_desc+0x58>)
  4001ee:	6013      	str	r3, [r2, #0]
  4001f0:	885d      	ldrh	r5, [r3, #2]
  4001f2:	2400      	movs	r4, #0
  4001f4:	441d      	add	r5, r3
  4001f6:	429d      	cmp	r5, r3
  4001f8:	d803      	bhi.n	400202 <udc_update_iface_desc+0x2e>
  4001fa:	2c00      	cmp	r4, #0
  4001fc:	d0ee      	beq.n	4001dc <udc_update_iface_desc+0x8>
  4001fe:	6013      	str	r3, [r2, #0]
  400200:	e7ec      	b.n	4001dc <udc_update_iface_desc+0x8>
  400202:	785e      	ldrb	r6, [r3, #1]
  400204:	2e04      	cmp	r6, #4
  400206:	d109      	bne.n	40021c <udc_update_iface_desc+0x48>
  400208:	789e      	ldrb	r6, [r3, #2]
  40020a:	4286      	cmp	r6, r0
  40020c:	d106      	bne.n	40021c <udc_update_iface_desc+0x48>
  40020e:	78de      	ldrb	r6, [r3, #3]
  400210:	428e      	cmp	r6, r1
  400212:	d103      	bne.n	40021c <udc_update_iface_desc+0x48>
  400214:	b104      	cbz	r4, 400218 <udc_update_iface_desc+0x44>
  400216:	6013      	str	r3, [r2, #0]
  400218:	2001      	movs	r0, #1
  40021a:	bd70      	pop	{r4, r5, r6, pc}
  40021c:	781c      	ldrb	r4, [r3, #0]
  40021e:	4423      	add	r3, r4
  400220:	2401      	movs	r4, #1
  400222:	e7e8      	b.n	4001f6 <udc_update_iface_desc+0x22>
  400224:	2000022c 	.word	0x2000022c
  400228:	20000230 	.word	0x20000230
  40022c:	20000234 	.word	0x20000234

00400230 <udc_next_desc_in_iface.constprop.3>:
  400230:	4b08      	ldr	r3, [pc, #32]	; (400254 <udc_next_desc_in_iface.constprop.3+0x24>)
  400232:	681b      	ldr	r3, [r3, #0]
  400234:	681b      	ldr	r3, [r3, #0]
  400236:	885a      	ldrh	r2, [r3, #2]
  400238:	441a      	add	r2, r3
  40023a:	7803      	ldrb	r3, [r0, #0]
  40023c:	4418      	add	r0, r3
  40023e:	4290      	cmp	r0, r2
  400240:	d301      	bcc.n	400246 <udc_next_desc_in_iface.constprop.3+0x16>
  400242:	2000      	movs	r0, #0
  400244:	e004      	b.n	400250 <udc_next_desc_in_iface.constprop.3+0x20>
  400246:	7843      	ldrb	r3, [r0, #1]
  400248:	2b04      	cmp	r3, #4
  40024a:	d0fa      	beq.n	400242 <udc_next_desc_in_iface.constprop.3+0x12>
  40024c:	2b05      	cmp	r3, #5
  40024e:	d1f4      	bne.n	40023a <udc_next_desc_in_iface.constprop.3+0xa>
  400250:	4770      	bx	lr
  400252:	bf00      	nop
  400254:	20000230 	.word	0x20000230

00400258 <udc_iface_enable>:
  400258:	b570      	push	{r4, r5, r6, lr}
  40025a:	4605      	mov	r5, r0
  40025c:	f7ff ffba 	bl	4001d4 <udc_update_iface_desc>
  400260:	b168      	cbz	r0, 40027e <udc_iface_enable+0x26>
  400262:	4b0c      	ldr	r3, [pc, #48]	; (400294 <udc_iface_enable+0x3c>)
  400264:	681c      	ldr	r4, [r3, #0]
  400266:	4620      	mov	r0, r4
  400268:	f7ff ffe2 	bl	400230 <udc_next_desc_in_iface.constprop.3>
  40026c:	4604      	mov	r4, r0
  40026e:	b140      	cbz	r0, 400282 <udc_iface_enable+0x2a>
  400270:	8882      	ldrh	r2, [r0, #4]
  400272:	78c1      	ldrb	r1, [r0, #3]
  400274:	7880      	ldrb	r0, [r0, #2]
  400276:	f001 faf5 	bl	401864 <udd_ep_alloc>
  40027a:	2800      	cmp	r0, #0
  40027c:	d1f3      	bne.n	400266 <udc_iface_enable+0xe>
  40027e:	2000      	movs	r0, #0
  400280:	bd70      	pop	{r4, r5, r6, pc}
  400282:	4b05      	ldr	r3, [pc, #20]	; (400298 <udc_iface_enable+0x40>)
  400284:	681b      	ldr	r3, [r3, #0]
  400286:	685b      	ldr	r3, [r3, #4]
  400288:	f853 3025 	ldr.w	r3, [r3, r5, lsl #2]
  40028c:	e8bd 4070 	ldmia.w	sp!, {r4, r5, r6, lr}
  400290:	681b      	ldr	r3, [r3, #0]
  400292:	4718      	bx	r3
  400294:	20000234 	.word	0x20000234
  400298:	20000230 	.word	0x20000230

0040029c <udc_iface_disable>:
  40029c:	b570      	push	{r4, r5, r6, lr}
  40029e:	2100      	movs	r1, #0
  4002a0:	4604      	mov	r4, r0
  4002a2:	f7ff ff97 	bl	4001d4 <udc_update_iface_desc>
  4002a6:	b910      	cbnz	r0, 4002ae <udc_iface_disable+0x12>
  4002a8:	2500      	movs	r5, #0
  4002aa:	4628      	mov	r0, r5
  4002ac:	bd70      	pop	{r4, r5, r6, pc}
  4002ae:	4b0e      	ldr	r3, [pc, #56]	; (4002e8 <udc_iface_disable+0x4c>)
  4002b0:	681b      	ldr	r3, [r3, #0]
  4002b2:	685b      	ldr	r3, [r3, #4]
  4002b4:	f853 6024 	ldr.w	r6, [r3, r4, lsl #2]
  4002b8:	68f3      	ldr	r3, [r6, #12]
  4002ba:	4798      	blx	r3
  4002bc:	4601      	mov	r1, r0
  4002be:	4620      	mov	r0, r4
  4002c0:	f7ff ff88 	bl	4001d4 <udc_update_iface_desc>
  4002c4:	4605      	mov	r5, r0
  4002c6:	2800      	cmp	r0, #0
  4002c8:	d0ee      	beq.n	4002a8 <udc_iface_disable+0xc>
  4002ca:	4b08      	ldr	r3, [pc, #32]	; (4002ec <udc_iface_disable+0x50>)
  4002cc:	681c      	ldr	r4, [r3, #0]
  4002ce:	4620      	mov	r0, r4
  4002d0:	f7ff ffae 	bl	400230 <udc_next_desc_in_iface.constprop.3>
  4002d4:	4604      	mov	r4, r0
  4002d6:	b118      	cbz	r0, 4002e0 <udc_iface_disable+0x44>
  4002d8:	7880      	ldrb	r0, [r0, #2]
  4002da:	f001 fb2f 	bl	40193c <udd_ep_free>
  4002de:	e7f6      	b.n	4002ce <udc_iface_disable+0x32>
  4002e0:	6873      	ldr	r3, [r6, #4]
  4002e2:	4798      	blx	r3
  4002e4:	e7e1      	b.n	4002aa <udc_iface_disable+0xe>
  4002e6:	bf00      	nop
  4002e8:	20000230 	.word	0x20000230
  4002ec:	20000234 	.word	0x20000234

004002f0 <udc_get_interface_desc>:
  4002f0:	4b01      	ldr	r3, [pc, #4]	; (4002f8 <udc_get_interface_desc+0x8>)
  4002f2:	6818      	ldr	r0, [r3, #0]
  4002f4:	4770      	bx	lr
  4002f6:	bf00      	nop
  4002f8:	20000234 	.word	0x20000234

004002fc <udc_start>:
  4002fc:	f001 ba50 	b.w	4017a0 <udd_enable>

00400300 <udc_reset>:
  400300:	b570      	push	{r4, r5, r6, lr}
  400302:	4c0a      	ldr	r4, [pc, #40]	; (40032c <udc_reset+0x2c>)
  400304:	7822      	ldrb	r2, [r4, #0]
  400306:	b14a      	cbz	r2, 40031c <udc_reset+0x1c>
  400308:	4e09      	ldr	r6, [pc, #36]	; (400330 <udc_reset+0x30>)
  40030a:	2500      	movs	r5, #0
  40030c:	6833      	ldr	r3, [r6, #0]
  40030e:	681b      	ldr	r3, [r3, #0]
  400310:	791b      	ldrb	r3, [r3, #4]
  400312:	b2e8      	uxtb	r0, r5
  400314:	4283      	cmp	r3, r0
  400316:	f105 0501 	add.w	r5, r5, #1
  40031a:	d804      	bhi.n	400326 <udc_reset+0x26>
  40031c:	4a05      	ldr	r2, [pc, #20]	; (400334 <udc_reset+0x34>)
  40031e:	2300      	movs	r3, #0
  400320:	7023      	strb	r3, [r4, #0]
  400322:	8013      	strh	r3, [r2, #0]
  400324:	bd70      	pop	{r4, r5, r6, pc}
  400326:	f7ff ffb9 	bl	40029c <udc_iface_disable>
  40032a:	e7ef      	b.n	40030c <udc_reset+0xc>
  40032c:	2000022c 	.word	0x2000022c
  400330:	20000230 	.word	0x20000230
  400334:	20000222 	.word	0x20000222

00400338 <udc_sof_notify>:
  400338:	b538      	push	{r3, r4, r5, lr}
  40033a:	4b0a      	ldr	r3, [pc, #40]	; (400364 <udc_sof_notify+0x2c>)
  40033c:	781b      	ldrb	r3, [r3, #0]
  40033e:	b13b      	cbz	r3, 400350 <udc_sof_notify+0x18>
  400340:	4d09      	ldr	r5, [pc, #36]	; (400368 <udc_sof_notify+0x30>)
  400342:	2400      	movs	r4, #0
  400344:	682a      	ldr	r2, [r5, #0]
  400346:	6813      	ldr	r3, [r2, #0]
  400348:	7919      	ldrb	r1, [r3, #4]
  40034a:	b2e3      	uxtb	r3, r4
  40034c:	4299      	cmp	r1, r3
  40034e:	d800      	bhi.n	400352 <udc_sof_notify+0x1a>
  400350:	bd38      	pop	{r3, r4, r5, pc}
  400352:	6852      	ldr	r2, [r2, #4]
  400354:	f852 3023 	ldr.w	r3, [r2, r3, lsl #2]
  400358:	691b      	ldr	r3, [r3, #16]
  40035a:	b103      	cbz	r3, 40035e <udc_sof_notify+0x26>
  40035c:	4798      	blx	r3
  40035e:	3401      	adds	r4, #1
  400360:	e7f0      	b.n	400344 <udc_sof_notify+0xc>
  400362:	bf00      	nop
  400364:	2000022c 	.word	0x2000022c
  400368:	20000230 	.word	0x20000230

0040036c <udc_process_setup>:
  40036c:	b5f8      	push	{r3, r4, r5, r6, r7, lr}
  40036e:	4aa6      	ldr	r2, [pc, #664]	; (400608 <udc_process_setup+0x29c>)
  400370:	2300      	movs	r3, #0
  400372:	8193      	strh	r3, [r2, #12]
  400374:	6113      	str	r3, [r2, #16]
  400376:	6153      	str	r3, [r2, #20]
  400378:	7813      	ldrb	r3, [r2, #0]
  40037a:	b258      	sxtb	r0, r3
  40037c:	2800      	cmp	r0, #0
  40037e:	4614      	mov	r4, r2
  400380:	da03      	bge.n	40038a <udc_process_setup+0x1e>
  400382:	88d5      	ldrh	r5, [r2, #6]
  400384:	2d00      	cmp	r5, #0
  400386:	f000 8086 	beq.w	400496 <udc_process_setup+0x12a>
  40038a:	f013 0160 	ands.w	r1, r3, #96	; 0x60
  40038e:	d11b      	bne.n	4003c8 <udc_process_setup+0x5c>
  400390:	2800      	cmp	r0, #0
  400392:	f280 80ba 	bge.w	40050a <udc_process_setup+0x19e>
  400396:	88e5      	ldrh	r5, [r4, #6]
  400398:	b1b5      	cbz	r5, 4003c8 <udc_process_setup+0x5c>
  40039a:	f013 031f 	ands.w	r3, r3, #31
  40039e:	d17c      	bne.n	40049a <udc_process_setup+0x12e>
  4003a0:	7863      	ldrb	r3, [r4, #1]
  4003a2:	2b06      	cmp	r3, #6
  4003a4:	d009      	beq.n	4003ba <udc_process_setup+0x4e>
  4003a6:	2b08      	cmp	r3, #8
  4003a8:	d06f      	beq.n	40048a <udc_process_setup+0x11e>
  4003aa:	b96b      	cbnz	r3, 4003c8 <udc_process_setup+0x5c>
  4003ac:	2d02      	cmp	r5, #2
  4003ae:	d111      	bne.n	4003d4 <udc_process_setup+0x68>
  4003b0:	4896      	ldr	r0, [pc, #600]	; (40060c <udc_process_setup+0x2a0>)
  4003b2:	4629      	mov	r1, r5
  4003b4:	f001 fa50 	bl	401858 <udd_set_setup_payload>
  4003b8:	e044      	b.n	400444 <udc_process_setup+0xd8>
  4003ba:	8863      	ldrh	r3, [r4, #2]
  4003bc:	0a1d      	lsrs	r5, r3, #8
  4003be:	2d02      	cmp	r5, #2
  4003c0:	d02d      	beq.n	40041e <udc_process_setup+0xb2>
  4003c2:	d81c      	bhi.n	4003fe <udc_process_setup+0x92>
  4003c4:	2d01      	cmp	r5, #1
  4003c6:	d024      	beq.n	400412 <udc_process_setup+0xa6>
  4003c8:	7823      	ldrb	r3, [r4, #0]
  4003ca:	f003 031f 	and.w	r3, r3, #31
  4003ce:	2b01      	cmp	r3, #1
  4003d0:	f000 8154 	beq.w	40067c <udc_process_setup+0x310>
  4003d4:	7823      	ldrb	r3, [r4, #0]
  4003d6:	f003 031f 	and.w	r3, r3, #31
  4003da:	2b02      	cmp	r3, #2
  4003dc:	d10b      	bne.n	4003f6 <udc_process_setup+0x8a>
  4003de:	4b8c      	ldr	r3, [pc, #560]	; (400610 <udc_process_setup+0x2a4>)
  4003e0:	781b      	ldrb	r3, [r3, #0]
  4003e2:	b143      	cbz	r3, 4003f6 <udc_process_setup+0x8a>
  4003e4:	4f8b      	ldr	r7, [pc, #556]	; (400614 <udc_process_setup+0x2a8>)
  4003e6:	2500      	movs	r5, #0
  4003e8:	683b      	ldr	r3, [r7, #0]
  4003ea:	681a      	ldr	r2, [r3, #0]
  4003ec:	7912      	ldrb	r2, [r2, #4]
  4003ee:	b2ec      	uxtb	r4, r5
  4003f0:	42a2      	cmp	r2, r4
  4003f2:	f200 8169 	bhi.w	4006c8 <udc_process_setup+0x35c>
  4003f6:	e8bd 40f8 	ldmia.w	sp!, {r3, r4, r5, r6, r7, lr}
  4003fa:	f002 be6d 	b.w	4030d8 <usb_device_specific_request>
  4003fe:	2d03      	cmp	r5, #3
  400400:	d022      	beq.n	400448 <udc_process_setup+0xdc>
  400402:	2d0f      	cmp	r5, #15
  400404:	d1e0      	bne.n	4003c8 <udc_process_setup+0x5c>
  400406:	4b84      	ldr	r3, [pc, #528]	; (400618 <udc_process_setup+0x2ac>)
  400408:	6898      	ldr	r0, [r3, #8]
  40040a:	2800      	cmp	r0, #0
  40040c:	d0e2      	beq.n	4003d4 <udc_process_setup+0x68>
  40040e:	8841      	ldrh	r1, [r0, #2]
  400410:	e002      	b.n	400418 <udc_process_setup+0xac>
  400412:	4b81      	ldr	r3, [pc, #516]	; (400618 <udc_process_setup+0x2ac>)
  400414:	6818      	ldr	r0, [r3, #0]
  400416:	7801      	ldrb	r1, [r0, #0]
  400418:	f001 fa1e 	bl	401858 <udd_set_setup_payload>
  40041c:	e00d      	b.n	40043a <udc_process_setup+0xce>
  40041e:	4a7e      	ldr	r2, [pc, #504]	; (400618 <udc_process_setup+0x2ac>)
  400420:	6811      	ldr	r1, [r2, #0]
  400422:	7c49      	ldrb	r1, [r1, #17]
  400424:	b2db      	uxtb	r3, r3
  400426:	4299      	cmp	r1, r3
  400428:	d9d4      	bls.n	4003d4 <udc_process_setup+0x68>
  40042a:	6852      	ldr	r2, [r2, #4]
  40042c:	f852 0033 	ldr.w	r0, [r2, r3, lsl #3]
  400430:	8841      	ldrh	r1, [r0, #2]
  400432:	f001 fa11 	bl	401858 <udd_set_setup_payload>
  400436:	68a3      	ldr	r3, [r4, #8]
  400438:	705d      	strb	r5, [r3, #1]
  40043a:	88e3      	ldrh	r3, [r4, #6]
  40043c:	89a2      	ldrh	r2, [r4, #12]
  40043e:	429a      	cmp	r2, r3
  400440:	bf88      	it	hi
  400442:	81a3      	strhhi	r3, [r4, #12]
  400444:	2501      	movs	r5, #1
  400446:	e026      	b.n	400496 <udc_process_setup+0x12a>
  400448:	b2db      	uxtb	r3, r3
  40044a:	2b01      	cmp	r3, #1
  40044c:	f000 814f 	beq.w	4006ee <udc_process_setup+0x382>
  400450:	d313      	bcc.n	40047a <udc_process_setup+0x10e>
  400452:	2b02      	cmp	r3, #2
  400454:	d114      	bne.n	400480 <udc_process_setup+0x114>
  400456:	4871      	ldr	r0, [pc, #452]	; (40061c <udc_process_setup+0x2b0>)
  400458:	2110      	movs	r1, #16
  40045a:	4b71      	ldr	r3, [pc, #452]	; (400620 <udc_process_setup+0x2b4>)
  40045c:	4602      	mov	r2, r0
  40045e:	461e      	mov	r6, r3
  400460:	f812 5b01 	ldrb.w	r5, [r2], #1
  400464:	f823 5f02 	strh.w	r5, [r3, #2]!
  400468:	1a15      	subs	r5, r2, r0
  40046a:	b2ed      	uxtb	r5, r5
  40046c:	428d      	cmp	r5, r1
  40046e:	d3f7      	bcc.n	400460 <udc_process_setup+0xf4>
  400470:	0049      	lsls	r1, r1, #1
  400472:	3102      	adds	r1, #2
  400474:	7031      	strb	r1, [r6, #0]
  400476:	486a      	ldr	r0, [pc, #424]	; (400620 <udc_process_setup+0x2b4>)
  400478:	e7ce      	b.n	400418 <udc_process_setup+0xac>
  40047a:	2104      	movs	r1, #4
  40047c:	4869      	ldr	r0, [pc, #420]	; (400624 <udc_process_setup+0x2b8>)
  40047e:	e7cb      	b.n	400418 <udc_process_setup+0xac>
  400480:	f002 fe00 	bl	403084 <msft_string_handle>
  400484:	2800      	cmp	r0, #0
  400486:	d1d8      	bne.n	40043a <udc_process_setup+0xce>
  400488:	e79e      	b.n	4003c8 <udc_process_setup+0x5c>
  40048a:	2d01      	cmp	r5, #1
  40048c:	d1a2      	bne.n	4003d4 <udc_process_setup+0x68>
  40048e:	4860      	ldr	r0, [pc, #384]	; (400610 <udc_process_setup+0x2a4>)
  400490:	4629      	mov	r1, r5
  400492:	f001 f9e1 	bl	401858 <udd_set_setup_payload>
  400496:	4628      	mov	r0, r5
  400498:	bdf8      	pop	{r3, r4, r5, r6, r7, pc}
  40049a:	2b01      	cmp	r3, #1
  40049c:	d123      	bne.n	4004e6 <udc_process_setup+0x17a>
  40049e:	7863      	ldrb	r3, [r4, #1]
  4004a0:	2b0a      	cmp	r3, #10
  4004a2:	d191      	bne.n	4003c8 <udc_process_setup+0x5c>
  4004a4:	2d01      	cmp	r5, #1
  4004a6:	f040 80e9 	bne.w	40067c <udc_process_setup+0x310>
  4004aa:	4b59      	ldr	r3, [pc, #356]	; (400610 <udc_process_setup+0x2a4>)
  4004ac:	781b      	ldrb	r3, [r3, #0]
  4004ae:	2b00      	cmp	r3, #0
  4004b0:	f000 80e4 	beq.w	40067c <udc_process_setup+0x310>
  4004b4:	4b57      	ldr	r3, [pc, #348]	; (400614 <udc_process_setup+0x2a8>)
  4004b6:	7926      	ldrb	r6, [r4, #4]
  4004b8:	681f      	ldr	r7, [r3, #0]
  4004ba:	683b      	ldr	r3, [r7, #0]
  4004bc:	791b      	ldrb	r3, [r3, #4]
  4004be:	42b3      	cmp	r3, r6
  4004c0:	f240 80dc 	bls.w	40067c <udc_process_setup+0x310>
  4004c4:	4630      	mov	r0, r6
  4004c6:	f7ff fe85 	bl	4001d4 <udc_update_iface_desc>
  4004ca:	4605      	mov	r5, r0
  4004cc:	2800      	cmp	r0, #0
  4004ce:	f43f af7b 	beq.w	4003c8 <udc_process_setup+0x5c>
  4004d2:	687b      	ldr	r3, [r7, #4]
  4004d4:	f853 3026 	ldr.w	r3, [r3, r6, lsl #2]
  4004d8:	68db      	ldr	r3, [r3, #12]
  4004da:	4798      	blx	r3
  4004dc:	4b52      	ldr	r3, [pc, #328]	; (400628 <udc_process_setup+0x2bc>)
  4004de:	2101      	movs	r1, #1
  4004e0:	7018      	strb	r0, [r3, #0]
  4004e2:	4618      	mov	r0, r3
  4004e4:	e7d5      	b.n	400492 <udc_process_setup+0x126>
  4004e6:	2b02      	cmp	r3, #2
  4004e8:	f47f af6e 	bne.w	4003c8 <udc_process_setup+0x5c>
  4004ec:	7863      	ldrb	r3, [r4, #1]
  4004ee:	2b00      	cmp	r3, #0
  4004f0:	f47f af6a 	bne.w	4003c8 <udc_process_setup+0x5c>
  4004f4:	2d02      	cmp	r5, #2
  4004f6:	f47f af6d 	bne.w	4003d4 <udc_process_setup+0x68>
  4004fa:	7920      	ldrb	r0, [r4, #4]
  4004fc:	f001 fa4a 	bl	401994 <udd_ep_is_halted>
  400500:	4b4a      	ldr	r3, [pc, #296]	; (40062c <udc_process_setup+0x2c0>)
  400502:	4629      	mov	r1, r5
  400504:	8018      	strh	r0, [r3, #0]
  400506:	4618      	mov	r0, r3
  400508:	e754      	b.n	4003b4 <udc_process_setup+0x48>
  40050a:	f013 031f 	ands.w	r3, r3, #31
  40050e:	d15d      	bne.n	4005cc <udc_process_setup+0x260>
  400510:	7863      	ldrb	r3, [r4, #1]
  400512:	3b01      	subs	r3, #1
  400514:	2b08      	cmp	r3, #8
  400516:	f63f af57 	bhi.w	4003c8 <udc_process_setup+0x5c>
  40051a:	a201      	add	r2, pc, #4	; (adr r2, 400520 <udc_process_setup+0x1b4>)
  40051c:	f852 f023 	ldr.w	pc, [r2, r3, lsl #2]
  400520:	00400553 	.word	0x00400553
  400524:	004003c9 	.word	0x004003c9
  400528:	004003c9 	.word	0x004003c9
  40052c:	004003c9 	.word	0x004003c9
  400530:	00400545 	.word	0x00400545
  400534:	004003c9 	.word	0x004003c9
  400538:	004003c9 	.word	0x004003c9
  40053c:	004003c9 	.word	0x004003c9
  400540:	0040056f 	.word	0x0040056f
  400544:	88e3      	ldrh	r3, [r4, #6]
  400546:	2b00      	cmp	r3, #0
  400548:	f47f af44 	bne.w	4003d4 <udc_process_setup+0x68>
  40054c:	4b38      	ldr	r3, [pc, #224]	; (400630 <udc_process_setup+0x2c4>)
  40054e:	6123      	str	r3, [r4, #16]
  400550:	e778      	b.n	400444 <udc_process_setup+0xd8>
  400552:	88e3      	ldrh	r3, [r4, #6]
  400554:	2b00      	cmp	r3, #0
  400556:	f47f af3d 	bne.w	4003d4 <udc_process_setup+0x68>
  40055a:	8865      	ldrh	r5, [r4, #2]
  40055c:	2d01      	cmp	r5, #1
  40055e:	f47f af39 	bne.w	4003d4 <udc_process_setup+0x68>
  400562:	4a2a      	ldr	r2, [pc, #168]	; (40060c <udc_process_setup+0x2a0>)
  400564:	8813      	ldrh	r3, [r2, #0]
  400566:	f023 0302 	bic.w	r3, r3, #2
  40056a:	8013      	strh	r3, [r2, #0]
  40056c:	e793      	b.n	400496 <udc_process_setup+0x12a>
  40056e:	88e5      	ldrh	r5, [r4, #6]
  400570:	2d00      	cmp	r5, #0
  400572:	f47f af2f 	bne.w	4003d4 <udc_process_setup+0x68>
  400576:	f001 f963 	bl	401840 <udd_getaddress>
  40057a:	2800      	cmp	r0, #0
  40057c:	f43f af24 	beq.w	4003c8 <udc_process_setup+0x5c>
  400580:	4e25      	ldr	r6, [pc, #148]	; (400618 <udc_process_setup+0x2ac>)
  400582:	78a2      	ldrb	r2, [r4, #2]
  400584:	6833      	ldr	r3, [r6, #0]
  400586:	7c5b      	ldrb	r3, [r3, #17]
  400588:	429a      	cmp	r2, r3
  40058a:	f73f af1d 	bgt.w	4003c8 <udc_process_setup+0x5c>
  40058e:	f7ff feb7 	bl	400300 <udc_reset>
  400592:	78a3      	ldrb	r3, [r4, #2]
  400594:	4a1e      	ldr	r2, [pc, #120]	; (400610 <udc_process_setup+0x2a4>)
  400596:	7013      	strb	r3, [r2, #0]
  400598:	2b00      	cmp	r3, #0
  40059a:	f43f af53 	beq.w	400444 <udc_process_setup+0xd8>
  40059e:	6871      	ldr	r1, [r6, #4]
  4005a0:	4a1c      	ldr	r2, [pc, #112]	; (400614 <udc_process_setup+0x2a8>)
  4005a2:	f103 5300 	add.w	r3, r3, #536870912	; 0x20000000
  4005a6:	3b01      	subs	r3, #1
  4005a8:	eb01 03c3 	add.w	r3, r1, r3, lsl #3
  4005ac:	6013      	str	r3, [r2, #0]
  4005ae:	4616      	mov	r6, r2
  4005b0:	6833      	ldr	r3, [r6, #0]
  4005b2:	681b      	ldr	r3, [r3, #0]
  4005b4:	791b      	ldrb	r3, [r3, #4]
  4005b6:	b2e8      	uxtb	r0, r5
  4005b8:	4283      	cmp	r3, r0
  4005ba:	f67f af43 	bls.w	400444 <udc_process_setup+0xd8>
  4005be:	2100      	movs	r1, #0
  4005c0:	f7ff fe4a 	bl	400258 <udc_iface_enable>
  4005c4:	3501      	adds	r5, #1
  4005c6:	2800      	cmp	r0, #0
  4005c8:	d1f2      	bne.n	4005b0 <udc_process_setup+0x244>
  4005ca:	e6fd      	b.n	4003c8 <udc_process_setup+0x5c>
  4005cc:	2b01      	cmp	r3, #1
  4005ce:	d131      	bne.n	400634 <udc_process_setup+0x2c8>
  4005d0:	7863      	ldrb	r3, [r4, #1]
  4005d2:	2b0b      	cmp	r3, #11
  4005d4:	f47f aef8 	bne.w	4003c8 <udc_process_setup+0x5c>
  4005d8:	88e3      	ldrh	r3, [r4, #6]
  4005da:	2b00      	cmp	r3, #0
  4005dc:	d14e      	bne.n	40067c <udc_process_setup+0x310>
  4005de:	4b0c      	ldr	r3, [pc, #48]	; (400610 <udc_process_setup+0x2a4>)
  4005e0:	781b      	ldrb	r3, [r3, #0]
  4005e2:	2b00      	cmp	r3, #0
  4005e4:	d04a      	beq.n	40067c <udc_process_setup+0x310>
  4005e6:	7925      	ldrb	r5, [r4, #4]
  4005e8:	8866      	ldrh	r6, [r4, #2]
  4005ea:	4628      	mov	r0, r5
  4005ec:	f7ff fe56 	bl	40029c <udc_iface_disable>
  4005f0:	2800      	cmp	r0, #0
  4005f2:	f43f aee9 	beq.w	4003c8 <udc_process_setup+0x5c>
  4005f6:	b2f1      	uxtb	r1, r6
  4005f8:	4628      	mov	r0, r5
  4005fa:	f7ff fe2d 	bl	400258 <udc_iface_enable>
  4005fe:	2800      	cmp	r0, #0
  400600:	f47f af20 	bne.w	400444 <udc_process_setup+0xd8>
  400604:	e6e0      	b.n	4003c8 <udc_process_setup+0x5c>
  400606:	bf00      	nop
  400608:	2000055c 	.word	0x2000055c
  40060c:	20000222 	.word	0x20000222
  400610:	2000022c 	.word	0x2000022c
  400614:	20000230 	.word	0x20000230
  400618:	200000d8 	.word	0x200000d8
  40061c:	200000c4 	.word	0x200000c4
  400620:	2000008c 	.word	0x2000008c
  400624:	200000b0 	.word	0x200000b0
  400628:	20000228 	.word	0x20000228
  40062c:	20000224 	.word	0x20000224
  400630:	004001c5 	.word	0x004001c5
  400634:	2b02      	cmp	r3, #2
  400636:	f47f aec7 	bne.w	4003c8 <udc_process_setup+0x5c>
  40063a:	7863      	ldrb	r3, [r4, #1]
  40063c:	2b01      	cmp	r3, #1
  40063e:	d011      	beq.n	400664 <udc_process_setup+0x2f8>
  400640:	2b03      	cmp	r3, #3
  400642:	f47f aec1 	bne.w	4003c8 <udc_process_setup+0x5c>
  400646:	88e3      	ldrh	r3, [r4, #6]
  400648:	2b00      	cmp	r3, #0
  40064a:	f47f aec3 	bne.w	4003d4 <udc_process_setup+0x68>
  40064e:	8863      	ldrh	r3, [r4, #2]
  400650:	2b00      	cmp	r3, #0
  400652:	f47f aebf 	bne.w	4003d4 <udc_process_setup+0x68>
  400656:	7920      	ldrb	r0, [r4, #4]
  400658:	f001 fadc 	bl	401c14 <udd_ep_abort>
  40065c:	7920      	ldrb	r0, [r4, #4]
  40065e:	f001 f9b7 	bl	4019d0 <udd_ep_set_halt>
  400662:	e7cc      	b.n	4005fe <udc_process_setup+0x292>
  400664:	88e3      	ldrh	r3, [r4, #6]
  400666:	2b00      	cmp	r3, #0
  400668:	f47f aeb4 	bne.w	4003d4 <udc_process_setup+0x68>
  40066c:	8863      	ldrh	r3, [r4, #2]
  40066e:	2b00      	cmp	r3, #0
  400670:	f47f aeb0 	bne.w	4003d4 <udc_process_setup+0x68>
  400674:	7920      	ldrb	r0, [r4, #4]
  400676:	f001 f9f9 	bl	401a6c <udd_ep_clear_halt>
  40067a:	e7c0      	b.n	4005fe <udc_process_setup+0x292>
  40067c:	4b1d      	ldr	r3, [pc, #116]	; (4006f4 <udc_process_setup+0x388>)
  40067e:	781b      	ldrb	r3, [r3, #0]
  400680:	2b00      	cmp	r3, #0
  400682:	f43f aea7 	beq.w	4003d4 <udc_process_setup+0x68>
  400686:	4b1c      	ldr	r3, [pc, #112]	; (4006f8 <udc_process_setup+0x38c>)
  400688:	7925      	ldrb	r5, [r4, #4]
  40068a:	681e      	ldr	r6, [r3, #0]
  40068c:	6833      	ldr	r3, [r6, #0]
  40068e:	791b      	ldrb	r3, [r3, #4]
  400690:	42ab      	cmp	r3, r5
  400692:	f67f ae9f 	bls.w	4003d4 <udc_process_setup+0x68>
  400696:	2100      	movs	r1, #0
  400698:	4628      	mov	r0, r5
  40069a:	f7ff fd9b 	bl	4001d4 <udc_update_iface_desc>
  40069e:	2800      	cmp	r0, #0
  4006a0:	f43f ae98 	beq.w	4003d4 <udc_process_setup+0x68>
  4006a4:	6873      	ldr	r3, [r6, #4]
  4006a6:	f853 6025 	ldr.w	r6, [r3, r5, lsl #2]
  4006aa:	68f3      	ldr	r3, [r6, #12]
  4006ac:	4798      	blx	r3
  4006ae:	4601      	mov	r1, r0
  4006b0:	4628      	mov	r0, r5
  4006b2:	f7ff fd8f 	bl	4001d4 <udc_update_iface_desc>
  4006b6:	2800      	cmp	r0, #0
  4006b8:	f43f ae8c 	beq.w	4003d4 <udc_process_setup+0x68>
  4006bc:	68b3      	ldr	r3, [r6, #8]
  4006be:	4798      	blx	r3
  4006c0:	2800      	cmp	r0, #0
  4006c2:	f47f aebf 	bne.w	400444 <udc_process_setup+0xd8>
  4006c6:	e685      	b.n	4003d4 <udc_process_setup+0x68>
  4006c8:	685b      	ldr	r3, [r3, #4]
  4006ca:	f853 6024 	ldr.w	r6, [r3, r4, lsl #2]
  4006ce:	68f3      	ldr	r3, [r6, #12]
  4006d0:	4798      	blx	r3
  4006d2:	4601      	mov	r1, r0
  4006d4:	4620      	mov	r0, r4
  4006d6:	f7ff fd7d 	bl	4001d4 <udc_update_iface_desc>
  4006da:	2800      	cmp	r0, #0
  4006dc:	f43f ae8b 	beq.w	4003f6 <udc_process_setup+0x8a>
  4006e0:	68b3      	ldr	r3, [r6, #8]
  4006e2:	4798      	blx	r3
  4006e4:	3501      	adds	r5, #1
  4006e6:	2800      	cmp	r0, #0
  4006e8:	f43f ae7e 	beq.w	4003e8 <udc_process_setup+0x7c>
  4006ec:	e6aa      	b.n	400444 <udc_process_setup+0xd8>
  4006ee:	210f      	movs	r1, #15
  4006f0:	4802      	ldr	r0, [pc, #8]	; (4006fc <udc_process_setup+0x390>)
  4006f2:	e6b2      	b.n	40045a <udc_process_setup+0xee>
  4006f4:	2000022c 	.word	0x2000022c
  4006f8:	20000230 	.word	0x20000230
  4006fc:	200000b4 	.word	0x200000b4

00400700 <efc_get_result>:
  400700:	68c0      	ldr	r0, [r0, #12]
  400702:	4770      	bx	lr

00400704 <efc_init>:
  400704:	b508      	push	{r3, lr}
  400706:	0212      	lsls	r2, r2, #8
  400708:	f402 6270 	and.w	r2, r2, #3840	; 0xf00
  40070c:	f041 6180 	orr.w	r1, r1, #67108864	; 0x4000000
  400710:	4311      	orrs	r1, r2
  400712:	f003 fa05 	bl	403b20 <__efc_write_fmr_veneer>
  400716:	2000      	movs	r0, #0
  400718:	bd08      	pop	{r3, pc}
	...

0040071c <efc_perform_command>:
  40071c:	b538      	push	{r3, r4, r5, lr}
  40071e:	f1a1 030e 	sub.w	r3, r1, #14
  400722:	2b01      	cmp	r3, #1
  400724:	d917      	bls.n	400756 <efc_perform_command+0x3a>
  400726:	f3ef 8410 	mrs	r4, PRIMASK
  40072a:	b672      	cpsid	i
  40072c:	f3bf 8f5f 	dmb	sy
  400730:	4d0a      	ldr	r5, [pc, #40]	; (40075c <efc_perform_command+0x40>)
  400732:	2300      	movs	r3, #0
  400734:	702b      	strb	r3, [r5, #0]
  400736:	4b0a      	ldr	r3, [pc, #40]	; (400760 <efc_perform_command+0x44>)
  400738:	ea03 2202 	and.w	r2, r3, r2, lsl #8
  40073c:	f042 42b4 	orr.w	r2, r2, #1509949440	; 0x5a000000
  400740:	b2c9      	uxtb	r1, r1
  400742:	4311      	orrs	r1, r2
  400744:	f003 f9f0 	bl	403b28 <__efc_perform_fcr_veneer>
  400748:	b93c      	cbnz	r4, 40075a <efc_perform_command+0x3e>
  40074a:	2301      	movs	r3, #1
  40074c:	702b      	strb	r3, [r5, #0]
  40074e:	f3bf 8f5f 	dmb	sy
  400752:	b662      	cpsie	i
  400754:	bd38      	pop	{r3, r4, r5, pc}
  400756:	f04f 30ff 	mov.w	r0, #4294967295
  40075a:	bd38      	pop	{r3, r4, r5, pc}
  40075c:	20000150 	.word	0x20000150
  400760:	00ffff00 	.word	0x00ffff00

00400764 <pio_handler_process>:
  400764:	e92d 41f0 	stmdb	sp!, {r4, r5, r6, r7, r8, lr}
  400768:	4606      	mov	r6, r0
  40076a:	460f      	mov	r7, r1
  40076c:	f001 fcad 	bl	4020ca <pio_get_interrupt_status>
  400770:	4605      	mov	r5, r0
  400772:	4630      	mov	r0, r6
  400774:	f001 fcab 	bl	4020ce <pio_get_interrupt_mask>
  400778:	4005      	ands	r5, r0
  40077a:	d104      	bne.n	400786 <pio_handler_process+0x22>
  40077c:	4b11      	ldr	r3, [pc, #68]	; (4007c4 <pio_handler_process+0x60>)
  40077e:	681b      	ldr	r3, [r3, #0]
  400780:	b9b3      	cbnz	r3, 4007b0 <pio_handler_process+0x4c>
  400782:	e8bd 81f0 	ldmia.w	sp!, {r4, r5, r6, r7, r8, pc}
  400786:	4c10      	ldr	r4, [pc, #64]	; (4007c8 <pio_handler_process+0x64>)
  400788:	f104 0860 	add.w	r8, r4, #96	; 0x60
  40078c:	6823      	ldr	r3, [r4, #0]
  40078e:	42bb      	cmp	r3, r7
  400790:	d108      	bne.n	4007a4 <pio_handler_process+0x40>
  400792:	6861      	ldr	r1, [r4, #4]
  400794:	4229      	tst	r1, r5
  400796:	d005      	beq.n	4007a4 <pio_handler_process+0x40>
  400798:	68e3      	ldr	r3, [r4, #12]
  40079a:	4638      	mov	r0, r7
  40079c:	4798      	blx	r3
  40079e:	6863      	ldr	r3, [r4, #4]
  4007a0:	ea25 0503 	bic.w	r5, r5, r3
  4007a4:	4544      	cmp	r4, r8
  4007a6:	d0e9      	beq.n	40077c <pio_handler_process+0x18>
  4007a8:	3410      	adds	r4, #16
  4007aa:	2d00      	cmp	r5, #0
  4007ac:	d1ee      	bne.n	40078c <pio_handler_process+0x28>
  4007ae:	e7e5      	b.n	40077c <pio_handler_process+0x18>
  4007b0:	4b06      	ldr	r3, [pc, #24]	; (4007cc <pio_handler_process+0x68>)
  4007b2:	681b      	ldr	r3, [r3, #0]
  4007b4:	b11b      	cbz	r3, 4007be <pio_handler_process+0x5a>
  4007b6:	4630      	mov	r0, r6
  4007b8:	e8bd 41f0 	ldmia.w	sp!, {r4, r5, r6, r7, r8, lr}
  4007bc:	4718      	bx	r3
  4007be:	e8bd 81f0 	ldmia.w	sp!, {r4, r5, r6, r7, r8, pc}
  4007c2:	bf00      	nop
  4007c4:	20000574 	.word	0x20000574
  4007c8:	20000238 	.word	0x20000238
  4007cc:	200002a8 	.word	0x200002a8

004007d0 <PIOA_Handler>:
  4007d0:	210b      	movs	r1, #11
  4007d2:	4801      	ldr	r0, [pc, #4]	; (4007d8 <PIOA_Handler+0x8>)
  4007d4:	f7ff bfc6 	b.w	400764 <pio_handler_process>
  4007d8:	400e0e00 	.word	0x400e0e00

004007dc <PIOB_Handler>:
  4007dc:	210c      	movs	r1, #12
  4007de:	4801      	ldr	r0, [pc, #4]	; (4007e4 <PIOB_Handler+0x8>)
  4007e0:	f7ff bfc0 	b.w	400764 <pio_handler_process>
  4007e4:	400e1000 	.word	0x400e1000

004007e8 <spi_enable_clock>:
  4007e8:	2015      	movs	r0, #21
  4007ea:	f001 bd61 	b.w	4022b0 <pmc_enable_periph_clk>

004007ee <spi_set_peripheral_chip_select_value>:
  4007ee:	6843      	ldr	r3, [r0, #4]
  4007f0:	f423 2370 	bic.w	r3, r3, #983040	; 0xf0000
  4007f4:	6043      	str	r3, [r0, #4]
  4007f6:	6843      	ldr	r3, [r0, #4]
  4007f8:	0409      	lsls	r1, r1, #16
  4007fa:	f401 2170 	and.w	r1, r1, #983040	; 0xf0000
  4007fe:	4319      	orrs	r1, r3
  400800:	6041      	str	r1, [r0, #4]
  400802:	4770      	bx	lr

00400804 <spi_set_delay_between_chip_select>:
  400804:	6843      	ldr	r3, [r0, #4]
  400806:	f023 437f 	bic.w	r3, r3, #4278190080	; 0xff000000
  40080a:	6043      	str	r3, [r0, #4]
  40080c:	6843      	ldr	r3, [r0, #4]
  40080e:	ea43 6101 	orr.w	r1, r3, r1, lsl #24
  400812:	6041      	str	r1, [r0, #4]
  400814:	4770      	bx	lr

00400816 <spi_write>:
  400816:	b530      	push	{r4, r5, lr}
  400818:	f643 2499 	movw	r4, #15001	; 0x3a99
  40081c:	6905      	ldr	r5, [r0, #16]
  40081e:	07ad      	lsls	r5, r5, #30
  400820:	d50c      	bpl.n	40083c <spi_write+0x26>
  400822:	6844      	ldr	r4, [r0, #4]
  400824:	07a4      	lsls	r4, r4, #30
  400826:	d506      	bpl.n	400836 <spi_write+0x20>
  400828:	0412      	lsls	r2, r2, #16
  40082a:	f402 2270 	and.w	r2, r2, #983040	; 0xf0000
  40082e:	4311      	orrs	r1, r2
  400830:	b10b      	cbz	r3, 400836 <spi_write+0x20>
  400832:	f041 7180 	orr.w	r1, r1, #16777216	; 0x1000000
  400836:	60c1      	str	r1, [r0, #12]
  400838:	2000      	movs	r0, #0
  40083a:	bd30      	pop	{r4, r5, pc}
  40083c:	3c01      	subs	r4, #1
  40083e:	d1ed      	bne.n	40081c <spi_write+0x6>
  400840:	2001      	movs	r0, #1
  400842:	bd30      	pop	{r4, r5, pc}

00400844 <spi_set_clock_polarity>:
  400844:	0089      	lsls	r1, r1, #2
  400846:	4408      	add	r0, r1
  400848:	6b03      	ldr	r3, [r0, #48]	; 0x30
  40084a:	b11a      	cbz	r2, 400854 <spi_set_clock_polarity+0x10>
  40084c:	f043 0301 	orr.w	r3, r3, #1
  400850:	6303      	str	r3, [r0, #48]	; 0x30
  400852:	4770      	bx	lr
  400854:	f023 0301 	bic.w	r3, r3, #1
  400858:	e7fa      	b.n	400850 <spi_set_clock_polarity+0xc>

0040085a <spi_set_clock_phase>:
  40085a:	0089      	lsls	r1, r1, #2
  40085c:	4408      	add	r0, r1
  40085e:	6b03      	ldr	r3, [r0, #48]	; 0x30
  400860:	b11a      	cbz	r2, 40086a <spi_set_clock_phase+0x10>
  400862:	f043 0302 	orr.w	r3, r3, #2
  400866:	6303      	str	r3, [r0, #48]	; 0x30
  400868:	4770      	bx	lr
  40086a:	f023 0302 	bic.w	r3, r3, #2
  40086e:	e7fa      	b.n	400866 <spi_set_clock_phase+0xc>

00400870 <spi_configure_cs_behavior>:
  400870:	2a04      	cmp	r2, #4
  400872:	d10a      	bne.n	40088a <spi_configure_cs_behavior+0x1a>
  400874:	eb00 0181 	add.w	r1, r0, r1, lsl #2
  400878:	6b0b      	ldr	r3, [r1, #48]	; 0x30
  40087a:	f023 0308 	bic.w	r3, r3, #8
  40087e:	630b      	str	r3, [r1, #48]	; 0x30
  400880:	6b0b      	ldr	r3, [r1, #48]	; 0x30
  400882:	f043 0304 	orr.w	r3, r3, #4
  400886:	630b      	str	r3, [r1, #48]	; 0x30
  400888:	4770      	bx	lr
  40088a:	b94a      	cbnz	r2, 4008a0 <spi_configure_cs_behavior+0x30>
  40088c:	eb00 0181 	add.w	r1, r0, r1, lsl #2
  400890:	6b0b      	ldr	r3, [r1, #48]	; 0x30
  400892:	f023 0308 	bic.w	r3, r3, #8
  400896:	630b      	str	r3, [r1, #48]	; 0x30
  400898:	6b0b      	ldr	r3, [r1, #48]	; 0x30
  40089a:	f023 0304 	bic.w	r3, r3, #4
  40089e:	e7f2      	b.n	400886 <spi_configure_cs_behavior+0x16>
  4008a0:	2a08      	cmp	r2, #8
  4008a2:	d1f1      	bne.n	400888 <spi_configure_cs_behavior+0x18>
  4008a4:	eb00 0181 	add.w	r1, r0, r1, lsl #2
  4008a8:	6b0b      	ldr	r3, [r1, #48]	; 0x30
  4008aa:	f043 0308 	orr.w	r3, r3, #8
  4008ae:	e7ea      	b.n	400886 <spi_configure_cs_behavior+0x16>

004008b0 <spi_set_bits_per_transfer>:
  4008b0:	eb00 0181 	add.w	r1, r0, r1, lsl #2
  4008b4:	6b0b      	ldr	r3, [r1, #48]	; 0x30
  4008b6:	f023 03f0 	bic.w	r3, r3, #240	; 0xf0
  4008ba:	630b      	str	r3, [r1, #48]	; 0x30
  4008bc:	6b0b      	ldr	r3, [r1, #48]	; 0x30
  4008be:	431a      	orrs	r2, r3
  4008c0:	630a      	str	r2, [r1, #48]	; 0x30
  4008c2:	4770      	bx	lr

004008c4 <spi_set_baudrate_div>:
  4008c4:	eb00 0181 	add.w	r1, r0, r1, lsl #2
  4008c8:	6b0b      	ldr	r3, [r1, #48]	; 0x30
  4008ca:	f423 437f 	bic.w	r3, r3, #65280	; 0xff00
  4008ce:	630b      	str	r3, [r1, #48]	; 0x30
  4008d0:	6b0b      	ldr	r3, [r1, #48]	; 0x30
  4008d2:	ea43 2202 	orr.w	r2, r3, r2, lsl #8
  4008d6:	630a      	str	r2, [r1, #48]	; 0x30
  4008d8:	4770      	bx	lr

004008da <spi_set_transfer_delay>:
  4008da:	b510      	push	{r4, lr}
  4008dc:	eb00 0181 	add.w	r1, r0, r1, lsl #2
  4008e0:	6b08      	ldr	r0, [r1, #48]	; 0x30
  4008e2:	b280      	uxth	r0, r0
  4008e4:	6308      	str	r0, [r1, #48]	; 0x30
  4008e6:	6b0c      	ldr	r4, [r1, #48]	; 0x30
  4008e8:	ea44 6303 	orr.w	r3, r4, r3, lsl #24
  4008ec:	ea43 4302 	orr.w	r3, r3, r2, lsl #16
  4008f0:	630b      	str	r3, [r1, #48]	; 0x30
  4008f2:	bd10      	pop	{r4, pc}

004008f4 <tc_init>:
  4008f4:	b510      	push	{r4, lr}
  4008f6:	0189      	lsls	r1, r1, #6
  4008f8:	1843      	adds	r3, r0, r1
  4008fa:	2402      	movs	r4, #2
  4008fc:	5044      	str	r4, [r0, r1]
  4008fe:	f04f 31ff 	mov.w	r1, #4294967295
  400902:	6299      	str	r1, [r3, #40]	; 0x28
  400904:	6a19      	ldr	r1, [r3, #32]
  400906:	605a      	str	r2, [r3, #4]
  400908:	bd10      	pop	{r4, pc}

0040090a <tc_start>:
  40090a:	0189      	lsls	r1, r1, #6
  40090c:	2305      	movs	r3, #5
  40090e:	5043      	str	r3, [r0, r1]
  400910:	4770      	bx	lr

00400912 <tc_stop>:
  400912:	0189      	lsls	r1, r1, #6
  400914:	2302      	movs	r3, #2
  400916:	5043      	str	r3, [r0, r1]
  400918:	4770      	bx	lr

0040091a <tc_write_rc>:
  40091a:	eb00 1181 	add.w	r1, r0, r1, lsl #6
  40091e:	61ca      	str	r2, [r1, #28]
  400920:	4770      	bx	lr

00400922 <tc_enable_interrupt>:
  400922:	eb00 1181 	add.w	r1, r0, r1, lsl #6
  400926:	624a      	str	r2, [r1, #36]	; 0x24
  400928:	4770      	bx	lr

0040092a <tc_get_status>:
  40092a:	eb00 1181 	add.w	r1, r0, r1, lsl #6
  40092e:	6a08      	ldr	r0, [r1, #32]
  400930:	4770      	bx	lr

00400932 <tc_find_mck_divisor>:
  400932:	b5f0      	push	{r4, r5, r6, r7, lr}
  400934:	b087      	sub	sp, #28
  400936:	2402      	movs	r4, #2
  400938:	9401      	str	r4, [sp, #4]
  40093a:	2408      	movs	r4, #8
  40093c:	9402      	str	r4, [sp, #8]
  40093e:	2420      	movs	r4, #32
  400940:	9403      	str	r4, [sp, #12]
  400942:	2480      	movs	r4, #128	; 0x80
  400944:	9404      	str	r4, [sp, #16]
  400946:	9c0c      	ldr	r4, [sp, #48]	; 0x30
  400948:	0be4      	lsrs	r4, r4, #15
  40094a:	9405      	str	r4, [sp, #20]
  40094c:	af01      	add	r7, sp, #4
  40094e:	2400      	movs	r4, #0
  400950:	f857 5024 	ldr.w	r5, [r7, r4, lsl #2]
  400954:	fbb1 f6f5 	udiv	r6, r1, r5
  400958:	4286      	cmp	r6, r0
  40095a:	ea4f 4e16 	mov.w	lr, r6, lsr #16
  40095e:	d304      	bcc.n	40096a <tc_find_mck_divisor+0x38>
  400960:	4586      	cmp	lr, r0
  400962:	d905      	bls.n	400970 <tc_find_mck_divisor+0x3e>
  400964:	3401      	adds	r4, #1
  400966:	2c05      	cmp	r4, #5
  400968:	d1f2      	bne.n	400950 <tc_find_mck_divisor+0x1e>
  40096a:	2000      	movs	r0, #0
  40096c:	b007      	add	sp, #28
  40096e:	bdf0      	pop	{r4, r5, r6, r7, pc}
  400970:	b102      	cbz	r2, 400974 <tc_find_mck_divisor+0x42>
  400972:	6015      	str	r5, [r2, #0]
  400974:	b103      	cbz	r3, 400978 <tc_find_mck_divisor+0x46>
  400976:	601c      	str	r4, [r3, #0]
  400978:	2001      	movs	r0, #1
  40097a:	e7f7      	b.n	40096c <tc_find_mck_divisor+0x3a>

0040097c <cpu_irq_save>:
  40097c:	f3ef 8010 	mrs	r0, PRIMASK
  400980:	b672      	cpsid	i
  400982:	f3bf 8f5f 	dmb	sy
  400986:	4b03      	ldr	r3, [pc, #12]	; (400994 <cpu_irq_save+0x18>)
  400988:	2200      	movs	r2, #0
  40098a:	fab0 f080 	clz	r0, r0
  40098e:	701a      	strb	r2, [r3, #0]
  400990:	0940      	lsrs	r0, r0, #5
  400992:	4770      	bx	lr
  400994:	20000150 	.word	0x20000150

00400998 <udd_ctrl_init>:
  400998:	4a03      	ldr	r2, [pc, #12]	; (4009a8 <udd_ctrl_init+0x10>)
  40099a:	2300      	movs	r3, #0
  40099c:	6113      	str	r3, [r2, #16]
  40099e:	6153      	str	r3, [r2, #20]
  4009a0:	8193      	strh	r3, [r2, #12]
  4009a2:	4a02      	ldr	r2, [pc, #8]	; (4009ac <udd_ctrl_init+0x14>)
  4009a4:	7013      	strb	r3, [r2, #0]
  4009a6:	4770      	bx	lr
  4009a8:	2000055c 	.word	0x2000055c
  4009ac:	200002b2 	.word	0x200002b2

004009b0 <udd_ctrl_stall_data>:
  4009b0:	4b0d      	ldr	r3, [pc, #52]	; (4009e8 <udd_ctrl_stall_data+0x38>)
  4009b2:	2205      	movs	r2, #5
  4009b4:	701a      	strb	r2, [r3, #0]
  4009b6:	4a0d      	ldr	r2, [pc, #52]	; (4009ec <udd_ctrl_stall_data+0x3c>)
  4009b8:	b082      	sub	sp, #8
  4009ba:	6b13      	ldr	r3, [r2, #48]	; 0x30
  4009bc:	9300      	str	r3, [sp, #0]
  4009be:	9b00      	ldr	r3, [sp, #0]
  4009c0:	f043 034f 	orr.w	r3, r3, #79	; 0x4f
  4009c4:	9300      	str	r3, [sp, #0]
  4009c6:	9b00      	ldr	r3, [sp, #0]
  4009c8:	f043 0320 	orr.w	r3, r3, #32
  4009cc:	9300      	str	r3, [sp, #0]
  4009ce:	9b00      	ldr	r3, [sp, #0]
  4009d0:	6313      	str	r3, [r2, #48]	; 0x30
  4009d2:	2300      	movs	r3, #0
  4009d4:	9301      	str	r3, [sp, #4]
  4009d6:	9b01      	ldr	r3, [sp, #4]
  4009d8:	2b13      	cmp	r3, #19
  4009da:	d901      	bls.n	4009e0 <udd_ctrl_stall_data+0x30>
  4009dc:	b002      	add	sp, #8
  4009de:	4770      	bx	lr
  4009e0:	bf00      	nop
  4009e2:	9b01      	ldr	r3, [sp, #4]
  4009e4:	3301      	adds	r3, #1
  4009e6:	e7f5      	b.n	4009d4 <udd_ctrl_stall_data+0x24>
  4009e8:	200002b2 	.word	0x200002b2
  4009ec:	40034000 	.word	0x40034000

004009f0 <udd_ctrl_send_zlp_in>:
  4009f0:	4b0d      	ldr	r3, [pc, #52]	; (400a28 <udd_ctrl_send_zlp_in+0x38>)
  4009f2:	2203      	movs	r2, #3
  4009f4:	701a      	strb	r2, [r3, #0]
  4009f6:	4a0d      	ldr	r2, [pc, #52]	; (400a2c <udd_ctrl_send_zlp_in+0x3c>)
  4009f8:	b082      	sub	sp, #8
  4009fa:	6b13      	ldr	r3, [r2, #48]	; 0x30
  4009fc:	9300      	str	r3, [sp, #0]
  4009fe:	9b00      	ldr	r3, [sp, #0]
  400a00:	f043 034f 	orr.w	r3, r3, #79	; 0x4f
  400a04:	9300      	str	r3, [sp, #0]
  400a06:	9b00      	ldr	r3, [sp, #0]
  400a08:	f043 0310 	orr.w	r3, r3, #16
  400a0c:	9300      	str	r3, [sp, #0]
  400a0e:	9b00      	ldr	r3, [sp, #0]
  400a10:	6313      	str	r3, [r2, #48]	; 0x30
  400a12:	2300      	movs	r3, #0
  400a14:	9301      	str	r3, [sp, #4]
  400a16:	9b01      	ldr	r3, [sp, #4]
  400a18:	2b13      	cmp	r3, #19
  400a1a:	d901      	bls.n	400a20 <udd_ctrl_send_zlp_in+0x30>
  400a1c:	b002      	add	sp, #8
  400a1e:	4770      	bx	lr
  400a20:	bf00      	nop
  400a22:	9b01      	ldr	r3, [sp, #4]
  400a24:	3301      	adds	r3, #1
  400a26:	e7f5      	b.n	400a14 <udd_ctrl_send_zlp_in+0x24>
  400a28:	200002b2 	.word	0x200002b2
  400a2c:	40034000 	.word	0x40034000

00400a30 <udd_ctrl_endofrequest>:
  400a30:	4b02      	ldr	r3, [pc, #8]	; (400a3c <udd_ctrl_endofrequest+0xc>)
  400a32:	691b      	ldr	r3, [r3, #16]
  400a34:	b103      	cbz	r3, 400a38 <udd_ctrl_endofrequest+0x8>
  400a36:	4718      	bx	r3
  400a38:	4770      	bx	lr
  400a3a:	bf00      	nop
  400a3c:	2000055c 	.word	0x2000055c

00400a40 <udd_ep_ack_out_received>:
  400a40:	b57f      	push	{r0, r1, r2, r3, r4, r5, r6, lr}
  400a42:	0082      	lsls	r2, r0, #2
  400a44:	f102 2240 	add.w	r2, r2, #1073758208	; 0x40004000
  400a48:	f502 3240 	add.w	r2, r2, #196608	; 0x30000
  400a4c:	1e43      	subs	r3, r0, #1
  400a4e:	6b14      	ldr	r4, [r2, #48]	; 0x30
  400a50:	6b15      	ldr	r5, [r2, #48]	; 0x30
  400a52:	f014 0f02 	tst.w	r4, #2
  400a56:	4c2d      	ldr	r4, [pc, #180]	; (400b0c <udd_ep_ack_out_received+0xcc>)
  400a58:	d02d      	beq.n	400ab6 <udd_ep_ack_out_received+0x76>
  400a5a:	f015 0540 	ands.w	r5, r5, #64	; 0x40
  400a5e:	d106      	bne.n	400a6e <udd_ep_ack_out_received+0x2e>
  400a60:	2114      	movs	r1, #20
  400a62:	fb01 4103 	mla	r1, r1, r3, r4
  400a66:	7c4e      	ldrb	r6, [r1, #17]
  400a68:	f365 0683 	bfi	r6, r5, #2, #2
  400a6c:	744e      	strb	r6, [r1, #17]
  400a6e:	2114      	movs	r1, #20
  400a70:	fb01 4103 	mla	r1, r1, r3, r4
  400a74:	7c49      	ldrb	r1, [r1, #17]
  400a76:	f011 010c 	ands.w	r1, r1, #12
  400a7a:	d12a      	bne.n	400ad2 <udd_ep_ack_out_received+0x92>
  400a7c:	6b15      	ldr	r5, [r2, #48]	; 0x30
  400a7e:	9500      	str	r5, [sp, #0]
  400a80:	9d00      	ldr	r5, [sp, #0]
  400a82:	f045 054f 	orr.w	r5, r5, #79	; 0x4f
  400a86:	9500      	str	r5, [sp, #0]
  400a88:	9d00      	ldr	r5, [sp, #0]
  400a8a:	f025 0502 	bic.w	r5, r5, #2
  400a8e:	9500      	str	r5, [sp, #0]
  400a90:	9d00      	ldr	r5, [sp, #0]
  400a92:	6315      	str	r5, [r2, #48]	; 0x30
  400a94:	9101      	str	r1, [sp, #4]
  400a96:	9a01      	ldr	r2, [sp, #4]
  400a98:	2a13      	cmp	r2, #19
  400a9a:	d915      	bls.n	400ac8 <udd_ep_ack_out_received+0x88>
  400a9c:	b148      	cbz	r0, 400ab2 <udd_ep_ack_out_received+0x72>
  400a9e:	2803      	cmp	r0, #3
  400aa0:	d007      	beq.n	400ab2 <udd_ep_ack_out_received+0x72>
  400aa2:	2214      	movs	r2, #20
  400aa4:	fb02 4303 	mla	r3, r2, r3, r4
  400aa8:	2101      	movs	r1, #1
  400aaa:	7c5a      	ldrb	r2, [r3, #17]
  400aac:	f361 0283 	bfi	r2, r1, #2, #2
  400ab0:	745a      	strb	r2, [r3, #17]
  400ab2:	b004      	add	sp, #16
  400ab4:	bd70      	pop	{r4, r5, r6, pc}
  400ab6:	2114      	movs	r1, #20
  400ab8:	fb01 4103 	mla	r1, r1, r3, r4
  400abc:	2601      	movs	r6, #1
  400abe:	7c4d      	ldrb	r5, [r1, #17]
  400ac0:	f366 0583 	bfi	r5, r6, #2, #2
  400ac4:	744d      	strb	r5, [r1, #17]
  400ac6:	e7d2      	b.n	400a6e <udd_ep_ack_out_received+0x2e>
  400ac8:	bf00      	nop
  400aca:	9a01      	ldr	r2, [sp, #4]
  400acc:	3201      	adds	r2, #1
  400ace:	9201      	str	r2, [sp, #4]
  400ad0:	e7e1      	b.n	400a96 <udd_ep_ack_out_received+0x56>
  400ad2:	6b11      	ldr	r1, [r2, #48]	; 0x30
  400ad4:	9102      	str	r1, [sp, #8]
  400ad6:	9902      	ldr	r1, [sp, #8]
  400ad8:	f041 014f 	orr.w	r1, r1, #79	; 0x4f
  400adc:	9102      	str	r1, [sp, #8]
  400ade:	9902      	ldr	r1, [sp, #8]
  400ae0:	f021 0140 	bic.w	r1, r1, #64	; 0x40
  400ae4:	9102      	str	r1, [sp, #8]
  400ae6:	9902      	ldr	r1, [sp, #8]
  400ae8:	6311      	str	r1, [r2, #48]	; 0x30
  400aea:	2200      	movs	r2, #0
  400aec:	9203      	str	r2, [sp, #12]
  400aee:	9a03      	ldr	r2, [sp, #12]
  400af0:	2a13      	cmp	r2, #19
  400af2:	d906      	bls.n	400b02 <udd_ep_ack_out_received+0xc2>
  400af4:	2214      	movs	r2, #20
  400af6:	fb02 4303 	mla	r3, r2, r3, r4
  400afa:	7c5a      	ldrb	r2, [r3, #17]
  400afc:	f36f 0283 	bfc	r2, #2, #2
  400b00:	e7d6      	b.n	400ab0 <udd_ep_ack_out_received+0x70>
  400b02:	bf00      	nop
  400b04:	9a03      	ldr	r2, [sp, #12]
  400b06:	3201      	adds	r2, #1
  400b08:	e7f0      	b.n	400aec <udd_ep_ack_out_received+0xac>
  400b0a:	bf00      	nop
  400b0c:	200002b4 	.word	0x200002b4

00400b10 <udd_ep_in_sent>:
  400b10:	e92d 41f3 	stmdb	sp!, {r0, r1, r4, r5, r6, r7, r8, lr}
  400b14:	4f5d      	ldr	r7, [pc, #372]	; (400c8c <udd_ep_in_sent+0x17c>)
  400b16:	1e43      	subs	r3, r0, #1
  400b18:	2214      	movs	r2, #20
  400b1a:	fb02 7203 	mla	r2, r2, r3, r7
  400b1e:	7c52      	ldrb	r2, [r2, #17]
  400b20:	f3c2 0281 	ubfx	r2, r2, #2, #2
  400b24:	b148      	cbz	r0, 400b3a <udd_ep_in_sent+0x2a>
  400b26:	2803      	cmp	r0, #3
  400b28:	bf14      	ite	ne
  400b2a:	2402      	movne	r4, #2
  400b2c:	2401      	moveq	r4, #1
  400b2e:	4294      	cmp	r4, r2
  400b30:	dc05      	bgt.n	400b3e <udd_ep_in_sent+0x2e>
  400b32:	2001      	movs	r0, #1
  400b34:	b002      	add	sp, #8
  400b36:	e8bd 81f0 	ldmia.w	sp!, {r4, r5, r6, r7, r8, pc}
  400b3a:	2401      	movs	r4, #1
  400b3c:	e7f7      	b.n	400b2e <udd_ep_in_sent+0x1e>
  400b3e:	2214      	movs	r2, #20
  400b40:	fb02 7203 	mla	r2, r2, r3, r7
  400b44:	68d4      	ldr	r4, [r2, #12]
  400b46:	f8d2 e008 	ldr.w	lr, [r2, #8]
  400b4a:	4574      	cmp	r4, lr
  400b4c:	d304      	bcc.n	400b58 <udd_ep_in_sent+0x48>
  400b4e:	7c52      	ldrb	r2, [r2, #17]
  400b50:	f012 0240 	ands.w	r2, r2, #64	; 0x40
  400b54:	f000 8098 	beq.w	400c88 <udd_ep_in_sent+0x178>
  400b58:	2514      	movs	r5, #20
  400b5a:	fb05 7203 	mla	r2, r5, r3, r7
  400b5e:	ebae 0e04 	sub.w	lr, lr, r4
  400b62:	6856      	ldr	r6, [r2, #4]
  400b64:	8a12      	ldrh	r2, [r2, #16]
  400b66:	f3c2 0209 	ubfx	r2, r2, #0, #10
  400b6a:	4596      	cmp	lr, r2
  400b6c:	bf38      	it	cc
  400b6e:	4672      	movcc	r2, lr
  400b70:	fb05 7503 	mla	r5, r5, r3, r7
  400b74:	4426      	add	r6, r4
  400b76:	4414      	add	r4, r2
  400b78:	60ec      	str	r4, [r5, #12]
  400b7a:	ea4f 0480 	mov.w	r4, r0, lsl #2
  400b7e:	f104 2440 	add.w	r4, r4, #1073758208	; 0x40004000
  400b82:	bf34      	ite	cc
  400b84:	f04f 0e01 	movcc.w	lr, #1
  400b88:	f04f 0e00 	movcs.w	lr, #0
  400b8c:	f106 0508 	add.w	r5, r6, #8
  400b90:	f102 0808 	add.w	r8, r2, #8
  400b94:	f504 3440 	add.w	r4, r4, #196608	; 0x30000
  400b98:	eba8 0c05 	sub.w	ip, r8, r5
  400b9c:	44b4      	add	ip, r6
  400b9e:	f1bc 0f07 	cmp.w	ip, #7
  400ba2:	d828      	bhi.n	400bf6 <udd_ep_in_sent+0xe6>
  400ba4:	f022 0407 	bic.w	r4, r2, #7
  400ba8:	4434      	add	r4, r6
  400baa:	f002 0207 	and.w	r2, r2, #7
  400bae:	4d38      	ldr	r5, [pc, #224]	; (400c90 <udd_ep_in_sent+0x180>)
  400bb0:	4422      	add	r2, r4
  400bb2:	f100 0614 	add.w	r6, r0, #20
  400bb6:	4294      	cmp	r4, r2
  400bb8:	d13f      	bne.n	400c3a <udd_ep_in_sent+0x12a>
  400bba:	2214      	movs	r2, #20
  400bbc:	fb02 7203 	mla	r2, r2, r3, r7
  400bc0:	7c54      	ldrb	r4, [r2, #17]
  400bc2:	f3c4 0581 	ubfx	r5, r4, #2, #2
  400bc6:	3501      	adds	r5, #1
  400bc8:	f365 0483 	bfi	r4, r5, #2, #2
  400bcc:	7454      	strb	r4, [r2, #17]
  400bce:	bbc9      	cbnz	r1, 400c44 <udd_ep_in_sent+0x134>
  400bd0:	f1be 0f00 	cmp.w	lr, #0
  400bd4:	d150      	bne.n	400c78 <udd_ep_in_sent+0x168>
  400bd6:	2214      	movs	r2, #20
  400bd8:	fb02 7303 	mla	r3, r2, r3, r7
  400bdc:	68d9      	ldr	r1, [r3, #12]
  400bde:	689a      	ldr	r2, [r3, #8]
  400be0:	4291      	cmp	r1, r2
  400be2:	d3a6      	bcc.n	400b32 <udd_ep_in_sent+0x22>
  400be4:	7c58      	ldrb	r0, [r3, #17]
  400be6:	f010 0040 	ands.w	r0, r0, #64	; 0x40
  400bea:	d1a2      	bne.n	400b32 <udd_ep_in_sent+0x22>
  400bec:	7c5a      	ldrb	r2, [r3, #17]
  400bee:	f042 0280 	orr.w	r2, r2, #128	; 0x80
  400bf2:	745a      	strb	r2, [r3, #17]
  400bf4:	e79e      	b.n	400b34 <udd_ep_in_sent+0x24>
  400bf6:	f815 cc08 	ldrb.w	ip, [r5, #-8]
  400bfa:	f8c4 c050 	str.w	ip, [r4, #80]	; 0x50
  400bfe:	f815 cc07 	ldrb.w	ip, [r5, #-7]
  400c02:	f8c4 c050 	str.w	ip, [r4, #80]	; 0x50
  400c06:	f815 cc06 	ldrb.w	ip, [r5, #-6]
  400c0a:	f8c4 c050 	str.w	ip, [r4, #80]	; 0x50
  400c0e:	f815 cc05 	ldrb.w	ip, [r5, #-5]
  400c12:	f8c4 c050 	str.w	ip, [r4, #80]	; 0x50
  400c16:	f815 cc04 	ldrb.w	ip, [r5, #-4]
  400c1a:	f8c4 c050 	str.w	ip, [r4, #80]	; 0x50
  400c1e:	f815 cc03 	ldrb.w	ip, [r5, #-3]
  400c22:	f8c4 c050 	str.w	ip, [r4, #80]	; 0x50
  400c26:	f815 cc02 	ldrb.w	ip, [r5, #-2]
  400c2a:	f8c4 c050 	str.w	ip, [r4, #80]	; 0x50
  400c2e:	f815 cc01 	ldrb.w	ip, [r5, #-1]
  400c32:	f8c4 c050 	str.w	ip, [r4, #80]	; 0x50
  400c36:	3508      	adds	r5, #8
  400c38:	e7ae      	b.n	400b98 <udd_ep_in_sent+0x88>
  400c3a:	f814 cb01 	ldrb.w	ip, [r4], #1
  400c3e:	f845 c026 	str.w	ip, [r5, r6, lsl #2]
  400c42:	e7b8      	b.n	400bb6 <udd_ep_in_sent+0xa6>
  400c44:	0080      	lsls	r0, r0, #2
  400c46:	f100 2040 	add.w	r0, r0, #1073758208	; 0x40004000
  400c4a:	f500 3040 	add.w	r0, r0, #196608	; 0x30000
  400c4e:	6b02      	ldr	r2, [r0, #48]	; 0x30
  400c50:	9200      	str	r2, [sp, #0]
  400c52:	9a00      	ldr	r2, [sp, #0]
  400c54:	f042 024f 	orr.w	r2, r2, #79	; 0x4f
  400c58:	9200      	str	r2, [sp, #0]
  400c5a:	9a00      	ldr	r2, [sp, #0]
  400c5c:	f042 0210 	orr.w	r2, r2, #16
  400c60:	9200      	str	r2, [sp, #0]
  400c62:	9a00      	ldr	r2, [sp, #0]
  400c64:	6302      	str	r2, [r0, #48]	; 0x30
  400c66:	2200      	movs	r2, #0
  400c68:	9201      	str	r2, [sp, #4]
  400c6a:	9a01      	ldr	r2, [sp, #4]
  400c6c:	2a13      	cmp	r2, #19
  400c6e:	d8af      	bhi.n	400bd0 <udd_ep_in_sent+0xc0>
  400c70:	bf00      	nop
  400c72:	9a01      	ldr	r2, [sp, #4]
  400c74:	3201      	adds	r2, #1
  400c76:	e7f7      	b.n	400c68 <udd_ep_in_sent+0x158>
  400c78:	2214      	movs	r2, #20
  400c7a:	fb02 7203 	mla	r2, r2, r3, r7
  400c7e:	7c51      	ldrb	r1, [r2, #17]
  400c80:	f36f 1186 	bfc	r1, #6, #1
  400c84:	7451      	strb	r1, [r2, #17]
  400c86:	e7a6      	b.n	400bd6 <udd_ep_in_sent+0xc6>
  400c88:	4610      	mov	r0, r2
  400c8a:	e753      	b.n	400b34 <udd_ep_in_sent+0x24>
  400c8c:	200002b4 	.word	0x200002b4
  400c90:	40034000 	.word	0x40034000

00400c94 <cpu_irq_restore>:
  400c94:	b128      	cbz	r0, 400ca2 <cpu_irq_restore+0xe>
  400c96:	4b03      	ldr	r3, [pc, #12]	; (400ca4 <cpu_irq_restore+0x10>)
  400c98:	2201      	movs	r2, #1
  400c9a:	701a      	strb	r2, [r3, #0]
  400c9c:	f3bf 8f5f 	dmb	sy
  400ca0:	b662      	cpsie	i
  400ca2:	4770      	bx	lr
  400ca4:	20000150 	.word	0x20000150

00400ca8 <sleepmgr_lock_mode>:
  400ca8:	b510      	push	{r4, lr}
  400caa:	4c07      	ldr	r4, [pc, #28]	; (400cc8 <sleepmgr_lock_mode+0x20>)
  400cac:	5c23      	ldrb	r3, [r4, r0]
  400cae:	2bff      	cmp	r3, #255	; 0xff
  400cb0:	4601      	mov	r1, r0
  400cb2:	d100      	bne.n	400cb6 <sleepmgr_lock_mode+0xe>
  400cb4:	e7fe      	b.n	400cb4 <sleepmgr_lock_mode+0xc>
  400cb6:	f7ff fe61 	bl	40097c <cpu_irq_save>
  400cba:	5c63      	ldrb	r3, [r4, r1]
  400cbc:	3301      	adds	r3, #1
  400cbe:	5463      	strb	r3, [r4, r1]
  400cc0:	e8bd 4010 	ldmia.w	sp!, {r4, lr}
  400cc4:	f7ff bfe6 	b.w	400c94 <cpu_irq_restore>
  400cc8:	20000554 	.word	0x20000554

00400ccc <sleepmgr_unlock_mode>:
  400ccc:	b510      	push	{r4, lr}
  400cce:	4c07      	ldr	r4, [pc, #28]	; (400cec <sleepmgr_unlock_mode+0x20>)
  400cd0:	5c23      	ldrb	r3, [r4, r0]
  400cd2:	4601      	mov	r1, r0
  400cd4:	b903      	cbnz	r3, 400cd8 <sleepmgr_unlock_mode+0xc>
  400cd6:	e7fe      	b.n	400cd6 <sleepmgr_unlock_mode+0xa>
  400cd8:	f7ff fe50 	bl	40097c <cpu_irq_save>
  400cdc:	5c63      	ldrb	r3, [r4, r1]
  400cde:	3b01      	subs	r3, #1
  400ce0:	5463      	strb	r3, [r4, r1]
  400ce2:	e8bd 4010 	ldmia.w	sp!, {r4, lr}
  400ce6:	f7ff bfd5 	b.w	400c94 <cpu_irq_restore>
  400cea:	bf00      	nop
  400cec:	20000554 	.word	0x20000554

00400cf0 <udd_sleep_mode>:
  400cf0:	b538      	push	{r3, r4, r5, lr}
  400cf2:	4c08      	ldr	r4, [pc, #32]	; (400d14 <udd_sleep_mode+0x24>)
  400cf4:	4605      	mov	r5, r0
  400cf6:	7823      	ldrb	r3, [r4, #0]
  400cf8:	b928      	cbnz	r0, 400d06 <udd_sleep_mode+0x16>
  400cfa:	b113      	cbz	r3, 400d02 <udd_sleep_mode+0x12>
  400cfc:	2002      	movs	r0, #2
  400cfe:	f7ff ffe5 	bl	400ccc <sleepmgr_unlock_mode>
  400d02:	7025      	strb	r5, [r4, #0]
  400d04:	bd38      	pop	{r3, r4, r5, pc}
  400d06:	2b00      	cmp	r3, #0
  400d08:	d1fb      	bne.n	400d02 <udd_sleep_mode+0x12>
  400d0a:	2002      	movs	r0, #2
  400d0c:	f7ff ffcc 	bl	400ca8 <sleepmgr_lock_mode>
  400d10:	e7f7      	b.n	400d02 <udd_sleep_mode+0x12>
  400d12:	bf00      	nop
  400d14:	200002ad 	.word	0x200002ad

00400d18 <udd_ctrl_in_sent>:
  400d18:	e92d 41f0 	stmdb	sp!, {r4, r5, r6, r7, r8, lr}
  400d1c:	4f5f      	ldr	r7, [pc, #380]	; (400e9c <udd_ctrl_in_sent+0x184>)
  400d1e:	783b      	ldrb	r3, [r7, #0]
  400d20:	2b03      	cmp	r3, #3
  400d22:	b08a      	sub	sp, #40	; 0x28
  400d24:	d11c      	bne.n	400d60 <udd_ctrl_in_sent+0x48>
  400d26:	4a5e      	ldr	r2, [pc, #376]	; (400ea0 <udd_ctrl_in_sent+0x188>)
  400d28:	6b13      	ldr	r3, [r2, #48]	; 0x30
  400d2a:	9300      	str	r3, [sp, #0]
  400d2c:	9b00      	ldr	r3, [sp, #0]
  400d2e:	f043 034f 	orr.w	r3, r3, #79	; 0x4f
  400d32:	9300      	str	r3, [sp, #0]
  400d34:	9b00      	ldr	r3, [sp, #0]
  400d36:	f023 0301 	bic.w	r3, r3, #1
  400d3a:	9300      	str	r3, [sp, #0]
  400d3c:	9b00      	ldr	r3, [sp, #0]
  400d3e:	6313      	str	r3, [r2, #48]	; 0x30
  400d40:	2300      	movs	r3, #0
  400d42:	9301      	str	r3, [sp, #4]
  400d44:	9b01      	ldr	r3, [sp, #4]
  400d46:	2b13      	cmp	r3, #19
  400d48:	d906      	bls.n	400d58 <udd_ctrl_in_sent+0x40>
  400d4a:	f7ff fe71 	bl	400a30 <udd_ctrl_endofrequest>
  400d4e:	f7ff fe23 	bl	400998 <udd_ctrl_init>
  400d52:	b00a      	add	sp, #40	; 0x28
  400d54:	e8bd 81f0 	ldmia.w	sp!, {r4, r5, r6, r7, r8, pc}
  400d58:	bf00      	nop
  400d5a:	9b01      	ldr	r3, [sp, #4]
  400d5c:	3301      	adds	r3, #1
  400d5e:	e7f0      	b.n	400d42 <udd_ctrl_in_sent+0x2a>
  400d60:	4e50      	ldr	r6, [pc, #320]	; (400ea4 <udd_ctrl_in_sent+0x18c>)
  400d62:	4d51      	ldr	r5, [pc, #324]	; (400ea8 <udd_ctrl_in_sent+0x190>)
  400d64:	8833      	ldrh	r3, [r6, #0]
  400d66:	89ac      	ldrh	r4, [r5, #12]
  400d68:	1ae4      	subs	r4, r4, r3
  400d6a:	b2a4      	uxth	r4, r4
  400d6c:	2c00      	cmp	r4, #0
  400d6e:	d12a      	bne.n	400dc6 <udd_ctrl_in_sent+0xae>
  400d70:	4a4e      	ldr	r2, [pc, #312]	; (400eac <udd_ctrl_in_sent+0x194>)
  400d72:	8811      	ldrh	r1, [r2, #0]
  400d74:	440b      	add	r3, r1
  400d76:	b29b      	uxth	r3, r3
  400d78:	8013      	strh	r3, [r2, #0]
  400d7a:	88ea      	ldrh	r2, [r5, #6]
  400d7c:	429a      	cmp	r2, r3
  400d7e:	d002      	beq.n	400d86 <udd_ctrl_in_sent+0x6e>
  400d80:	4b4b      	ldr	r3, [pc, #300]	; (400eb0 <udd_ctrl_in_sent+0x198>)
  400d82:	781b      	ldrb	r3, [r3, #0]
  400d84:	b1bb      	cbz	r3, 400db6 <udd_ctrl_in_sent+0x9e>
  400d86:	2304      	movs	r3, #4
  400d88:	4a45      	ldr	r2, [pc, #276]	; (400ea0 <udd_ctrl_in_sent+0x188>)
  400d8a:	703b      	strb	r3, [r7, #0]
  400d8c:	6b13      	ldr	r3, [r2, #48]	; 0x30
  400d8e:	9302      	str	r3, [sp, #8]
  400d90:	9b02      	ldr	r3, [sp, #8]
  400d92:	f043 034f 	orr.w	r3, r3, #79	; 0x4f
  400d96:	9302      	str	r3, [sp, #8]
  400d98:	9b02      	ldr	r3, [sp, #8]
  400d9a:	f023 0301 	bic.w	r3, r3, #1
  400d9e:	9302      	str	r3, [sp, #8]
  400da0:	9b02      	ldr	r3, [sp, #8]
  400da2:	6313      	str	r3, [r2, #48]	; 0x30
  400da4:	2300      	movs	r3, #0
  400da6:	9303      	str	r3, [sp, #12]
  400da8:	9b03      	ldr	r3, [sp, #12]
  400daa:	2b13      	cmp	r3, #19
  400dac:	d8d1      	bhi.n	400d52 <udd_ctrl_in_sent+0x3a>
  400dae:	bf00      	nop
  400db0:	9b03      	ldr	r3, [sp, #12]
  400db2:	3301      	adds	r3, #1
  400db4:	e7f7      	b.n	400da6 <udd_ctrl_in_sent+0x8e>
  400db6:	696b      	ldr	r3, [r5, #20]
  400db8:	2b00      	cmp	r3, #0
  400dba:	d044      	beq.n	400e46 <udd_ctrl_in_sent+0x12e>
  400dbc:	4798      	blx	r3
  400dbe:	2800      	cmp	r0, #0
  400dc0:	d041      	beq.n	400e46 <udd_ctrl_in_sent+0x12e>
  400dc2:	8034      	strh	r4, [r6, #0]
  400dc4:	89ac      	ldrh	r4, [r5, #12]
  400dc6:	2c07      	cmp	r4, #7
  400dc8:	d93d      	bls.n	400e46 <udd_ctrl_in_sent+0x12e>
  400dca:	4b39      	ldr	r3, [pc, #228]	; (400eb0 <udd_ctrl_in_sent+0x198>)
  400dcc:	2200      	movs	r2, #0
  400dce:	701a      	strb	r2, [r3, #0]
  400dd0:	2408      	movs	r4, #8
  400dd2:	68ad      	ldr	r5, [r5, #8]
  400dd4:	f8b6 8000 	ldrh.w	r8, [r6]
  400dd8:	f7ff fdd0 	bl	40097c <cpu_irq_save>
  400ddc:	4930      	ldr	r1, [pc, #192]	; (400ea0 <udd_ctrl_in_sent+0x188>)
  400dde:	6b0b      	ldr	r3, [r1, #48]	; 0x30
  400de0:	079b      	lsls	r3, r3, #30
  400de2:	4602      	mov	r2, r0
  400de4:	d433      	bmi.n	400e4e <udd_ctrl_in_sent+0x136>
  400de6:	eb05 0308 	add.w	r3, r5, r8
  400dea:	461d      	mov	r5, r3
  400dec:	1ae8      	subs	r0, r5, r3
  400dee:	b2c0      	uxtb	r0, r0
  400df0:	42a0      	cmp	r0, r4
  400df2:	d346      	bcc.n	400e82 <udd_ctrl_in_sent+0x16a>
  400df4:	4444      	add	r4, r8
  400df6:	8034      	strh	r4, [r6, #0]
  400df8:	6b0b      	ldr	r3, [r1, #48]	; 0x30
  400dfa:	9306      	str	r3, [sp, #24]
  400dfc:	9b06      	ldr	r3, [sp, #24]
  400dfe:	f043 034f 	orr.w	r3, r3, #79	; 0x4f
  400e02:	9306      	str	r3, [sp, #24]
  400e04:	9b06      	ldr	r3, [sp, #24]
  400e06:	f043 0310 	orr.w	r3, r3, #16
  400e0a:	9306      	str	r3, [sp, #24]
  400e0c:	9b06      	ldr	r3, [sp, #24]
  400e0e:	630b      	str	r3, [r1, #48]	; 0x30
  400e10:	2300      	movs	r3, #0
  400e12:	9307      	str	r3, [sp, #28]
  400e14:	9b07      	ldr	r3, [sp, #28]
  400e16:	2b13      	cmp	r3, #19
  400e18:	d937      	bls.n	400e8a <udd_ctrl_in_sent+0x172>
  400e1a:	4921      	ldr	r1, [pc, #132]	; (400ea0 <udd_ctrl_in_sent+0x188>)
  400e1c:	6b0b      	ldr	r3, [r1, #48]	; 0x30
  400e1e:	9308      	str	r3, [sp, #32]
  400e20:	9b08      	ldr	r3, [sp, #32]
  400e22:	f043 034f 	orr.w	r3, r3, #79	; 0x4f
  400e26:	9308      	str	r3, [sp, #32]
  400e28:	9b08      	ldr	r3, [sp, #32]
  400e2a:	f023 0301 	bic.w	r3, r3, #1
  400e2e:	9308      	str	r3, [sp, #32]
  400e30:	9b08      	ldr	r3, [sp, #32]
  400e32:	630b      	str	r3, [r1, #48]	; 0x30
  400e34:	2300      	movs	r3, #0
  400e36:	9309      	str	r3, [sp, #36]	; 0x24
  400e38:	9b09      	ldr	r3, [sp, #36]	; 0x24
  400e3a:	2b13      	cmp	r3, #19
  400e3c:	d929      	bls.n	400e92 <udd_ctrl_in_sent+0x17a>
  400e3e:	4610      	mov	r0, r2
  400e40:	f7ff ff28 	bl	400c94 <cpu_irq_restore>
  400e44:	e785      	b.n	400d52 <udd_ctrl_in_sent+0x3a>
  400e46:	4b1a      	ldr	r3, [pc, #104]	; (400eb0 <udd_ctrl_in_sent+0x198>)
  400e48:	2201      	movs	r2, #1
  400e4a:	701a      	strb	r2, [r3, #0]
  400e4c:	e7c1      	b.n	400dd2 <udd_ctrl_in_sent+0xba>
  400e4e:	f7ff ff21 	bl	400c94 <cpu_irq_restore>
  400e52:	2304      	movs	r3, #4
  400e54:	703b      	strb	r3, [r7, #0]
  400e56:	6b0b      	ldr	r3, [r1, #48]	; 0x30
  400e58:	9304      	str	r3, [sp, #16]
  400e5a:	9b04      	ldr	r3, [sp, #16]
  400e5c:	f043 034f 	orr.w	r3, r3, #79	; 0x4f
  400e60:	9304      	str	r3, [sp, #16]
  400e62:	9b04      	ldr	r3, [sp, #16]
  400e64:	f023 0301 	bic.w	r3, r3, #1
  400e68:	9304      	str	r3, [sp, #16]
  400e6a:	9b04      	ldr	r3, [sp, #16]
  400e6c:	630b      	str	r3, [r1, #48]	; 0x30
  400e6e:	2300      	movs	r3, #0
  400e70:	9305      	str	r3, [sp, #20]
  400e72:	9b05      	ldr	r3, [sp, #20]
  400e74:	2b13      	cmp	r3, #19
  400e76:	f63f af6c 	bhi.w	400d52 <udd_ctrl_in_sent+0x3a>
  400e7a:	bf00      	nop
  400e7c:	9b05      	ldr	r3, [sp, #20]
  400e7e:	3301      	adds	r3, #1
  400e80:	e7f6      	b.n	400e70 <udd_ctrl_in_sent+0x158>
  400e82:	f815 0b01 	ldrb.w	r0, [r5], #1
  400e86:	6508      	str	r0, [r1, #80]	; 0x50
  400e88:	e7b0      	b.n	400dec <udd_ctrl_in_sent+0xd4>
  400e8a:	bf00      	nop
  400e8c:	9b07      	ldr	r3, [sp, #28]
  400e8e:	3301      	adds	r3, #1
  400e90:	e7bf      	b.n	400e12 <udd_ctrl_in_sent+0xfa>
  400e92:	bf00      	nop
  400e94:	9b09      	ldr	r3, [sp, #36]	; 0x24
  400e96:	3301      	adds	r3, #1
  400e98:	e7cd      	b.n	400e36 <udd_ctrl_in_sent+0x11e>
  400e9a:	bf00      	nop
  400e9c:	200002b2 	.word	0x200002b2
  400ea0:	40034000 	.word	0x40034000
  400ea4:	200002ae 	.word	0x200002ae
  400ea8:	2000055c 	.word	0x2000055c
  400eac:	200002b0 	.word	0x200002b0
  400eb0:	200002ac 	.word	0x200002ac

00400eb4 <udd_ep_finish_job>:
  400eb4:	b430      	push	{r4, r5}
  400eb6:	7c43      	ldrb	r3, [r0, #17]
  400eb8:	06dc      	lsls	r4, r3, #27
  400eba:	460d      	mov	r5, r1
  400ebc:	d515      	bpl.n	400eea <udd_ep_finish_job+0x36>
  400ebe:	6804      	ldr	r4, [r0, #0]
  400ec0:	f36f 1304 	bfc	r3, #4, #1
  400ec4:	7443      	strb	r3, [r0, #17]
  400ec6:	b184      	cbz	r4, 400eea <udd_ep_finish_job+0x36>
  400ec8:	4909      	ldr	r1, [pc, #36]	; (400ef0 <udd_ep_finish_job+0x3c>)
  400eca:	f102 030c 	add.w	r3, r2, #12
  400ece:	f851 3023 	ldr.w	r3, [r1, r3, lsl #2]
  400ed2:	0559      	lsls	r1, r3, #21
  400ed4:	f105 33ff 	add.w	r3, r5, #4294967295
  400ed8:	bf48      	it	mi
  400eda:	f042 0280 	orrmi.w	r2, r2, #128	; 0x80
  400ede:	6881      	ldr	r1, [r0, #8]
  400ee0:	4258      	negs	r0, r3
  400ee2:	4158      	adcs	r0, r3
  400ee4:	4623      	mov	r3, r4
  400ee6:	bc30      	pop	{r4, r5}
  400ee8:	4718      	bx	r3
  400eea:	bc30      	pop	{r4, r5}
  400eec:	4770      	bx	lr
  400eee:	bf00      	nop
  400ef0:	40034000 	.word	0x40034000

00400ef4 <UDP_Handler>:
  400ef4:	e92d 4ff0 	stmdb	sp!, {r4, r5, r6, r7, r8, r9, sl, fp, lr}
  400ef8:	b0b3      	sub	sp, #204	; 0xcc
  400efa:	f001 fb87 	bl	40260c <pmc_is_wakeup_clocks_restored>
  400efe:	4c9a      	ldr	r4, [pc, #616]	; (401168 <UDP_Handler+0x274>)
  400f00:	b958      	cbnz	r0, 400f1a <UDP_Handler+0x26>
  400f02:	69e3      	ldr	r3, [r4, #28]
  400f04:	f413 7380 	ands.w	r3, r3, #256	; 0x100
  400f08:	d107      	bne.n	400f1a <UDP_Handler+0x26>
  400f0a:	b672      	cpsid	i
  400f0c:	f3bf 8f5f 	dmb	sy
  400f10:	4a96      	ldr	r2, [pc, #600]	; (40116c <UDP_Handler+0x278>)
  400f12:	7013      	strb	r3, [r2, #0]
  400f14:	b033      	add	sp, #204	; 0xcc
  400f16:	e8bd 8ff0 	ldmia.w	sp!, {r4, r5, r6, r7, r8, r9, sl, fp, pc}
  400f1a:	2022      	movs	r0, #34	; 0x22
  400f1c:	f001 f9c8 	bl	4022b0 <pmc_enable_periph_clk>
  400f20:	69a3      	ldr	r3, [r4, #24]
  400f22:	051f      	lsls	r7, r3, #20
  400f24:	d508      	bpl.n	400f38 <UDP_Handler+0x44>
  400f26:	69e3      	ldr	r3, [r4, #28]
  400f28:	051e      	lsls	r6, r3, #20
  400f2a:	d505      	bpl.n	400f38 <UDP_Handler+0x44>
  400f2c:	f44f 6300 	mov.w	r3, #2048	; 0x800
  400f30:	6223      	str	r3, [r4, #32]
  400f32:	f7ff fa01 	bl	400338 <udc_sof_notify>
  400f36:	e7ed      	b.n	400f14 <UDP_Handler+0x20>
  400f38:	4b8b      	ldr	r3, [pc, #556]	; (401168 <UDP_Handler+0x274>)
  400f3a:	69da      	ldr	r2, [r3, #28]
  400f3c:	07d5      	lsls	r5, r2, #31
  400f3e:	f140 81a3 	bpl.w	401288 <UDP_Handler+0x394>
  400f42:	6b1a      	ldr	r2, [r3, #48]	; 0x30
  400f44:	0754      	lsls	r4, r2, #29
  400f46:	f140 809f 	bpl.w	401088 <UDP_Handler+0x194>
  400f4a:	4d89      	ldr	r5, [pc, #548]	; (401170 <UDP_Handler+0x27c>)
  400f4c:	782b      	ldrb	r3, [r5, #0]
  400f4e:	b11b      	cbz	r3, 400f58 <UDP_Handler+0x64>
  400f50:	f7ff fd6e 	bl	400a30 <udd_ctrl_endofrequest>
  400f54:	f7ff fd20 	bl	400998 <udd_ctrl_init>
  400f58:	4c83      	ldr	r4, [pc, #524]	; (401168 <UDP_Handler+0x274>)
  400f5a:	6b23      	ldr	r3, [r4, #48]	; 0x30
  400f5c:	f3c3 430a 	ubfx	r3, r3, #16, #11
  400f60:	2b08      	cmp	r3, #8
  400f62:	d017      	beq.n	400f94 <UDP_Handler+0xa0>
  400f64:	6b23      	ldr	r3, [r4, #48]	; 0x30
  400f66:	9304      	str	r3, [sp, #16]
  400f68:	9b04      	ldr	r3, [sp, #16]
  400f6a:	f043 034f 	orr.w	r3, r3, #79	; 0x4f
  400f6e:	9304      	str	r3, [sp, #16]
  400f70:	9b04      	ldr	r3, [sp, #16]
  400f72:	f023 0304 	bic.w	r3, r3, #4
  400f76:	9304      	str	r3, [sp, #16]
  400f78:	9b04      	ldr	r3, [sp, #16]
  400f7a:	6323      	str	r3, [r4, #48]	; 0x30
  400f7c:	2300      	movs	r3, #0
  400f7e:	9305      	str	r3, [sp, #20]
  400f80:	9b05      	ldr	r3, [sp, #20]
  400f82:	2b13      	cmp	r3, #19
  400f84:	d902      	bls.n	400f8c <UDP_Handler+0x98>
  400f86:	f7ff fd13 	bl	4009b0 <udd_ctrl_stall_data>
  400f8a:	e7c3      	b.n	400f14 <UDP_Handler+0x20>
  400f8c:	bf00      	nop
  400f8e:	9b05      	ldr	r3, [sp, #20]
  400f90:	3301      	adds	r3, #1
  400f92:	e7f4      	b.n	400f7e <UDP_Handler+0x8a>
  400f94:	4e77      	ldr	r6, [pc, #476]	; (401174 <UDP_Handler+0x280>)
  400f96:	2300      	movs	r3, #0
  400f98:	4637      	mov	r7, r6
  400f9a:	6d22      	ldr	r2, [r4, #80]	; 0x50
  400f9c:	559a      	strb	r2, [r3, r6]
  400f9e:	3301      	adds	r3, #1
  400fa0:	2b08      	cmp	r3, #8
  400fa2:	d1fa      	bne.n	400f9a <UDP_Handler+0xa6>
  400fa4:	f7ff f9e2 	bl	40036c <udc_process_setup>
  400fa8:	b9a0      	cbnz	r0, 400fd4 <UDP_Handler+0xe0>
  400faa:	6b23      	ldr	r3, [r4, #48]	; 0x30
  400fac:	9306      	str	r3, [sp, #24]
  400fae:	9b06      	ldr	r3, [sp, #24]
  400fb0:	f043 034f 	orr.w	r3, r3, #79	; 0x4f
  400fb4:	9306      	str	r3, [sp, #24]
  400fb6:	9b06      	ldr	r3, [sp, #24]
  400fb8:	f023 0304 	bic.w	r3, r3, #4
  400fbc:	9306      	str	r3, [sp, #24]
  400fbe:	9b06      	ldr	r3, [sp, #24]
  400fc0:	6323      	str	r3, [r4, #48]	; 0x30
  400fc2:	9007      	str	r0, [sp, #28]
  400fc4:	9b07      	ldr	r3, [sp, #28]
  400fc6:	2b13      	cmp	r3, #19
  400fc8:	d8dd      	bhi.n	400f86 <UDP_Handler+0x92>
  400fca:	bf00      	nop
  400fcc:	9b07      	ldr	r3, [sp, #28]
  400fce:	3301      	adds	r3, #1
  400fd0:	9307      	str	r3, [sp, #28]
  400fd2:	e7f7      	b.n	400fc4 <UDP_Handler+0xd0>
  400fd4:	f996 3000 	ldrsb.w	r3, [r6]
  400fd8:	2b00      	cmp	r3, #0
  400fda:	6b23      	ldr	r3, [r4, #48]	; 0x30
  400fdc:	da33      	bge.n	401046 <UDP_Handler+0x152>
  400fde:	9308      	str	r3, [sp, #32]
  400fe0:	9b08      	ldr	r3, [sp, #32]
  400fe2:	f043 034f 	orr.w	r3, r3, #79	; 0x4f
  400fe6:	9308      	str	r3, [sp, #32]
  400fe8:	9b08      	ldr	r3, [sp, #32]
  400fea:	f043 0380 	orr.w	r3, r3, #128	; 0x80
  400fee:	9308      	str	r3, [sp, #32]
  400ff0:	9b08      	ldr	r3, [sp, #32]
  400ff2:	6323      	str	r3, [r4, #48]	; 0x30
  400ff4:	2300      	movs	r3, #0
  400ff6:	9309      	str	r3, [sp, #36]	; 0x24
  400ff8:	9b09      	ldr	r3, [sp, #36]	; 0x24
  400ffa:	2b13      	cmp	r3, #19
  400ffc:	d91b      	bls.n	401036 <UDP_Handler+0x142>
  400ffe:	4a5a      	ldr	r2, [pc, #360]	; (401168 <UDP_Handler+0x274>)
  401000:	6b13      	ldr	r3, [r2, #48]	; 0x30
  401002:	930a      	str	r3, [sp, #40]	; 0x28
  401004:	9b0a      	ldr	r3, [sp, #40]	; 0x28
  401006:	f043 034f 	orr.w	r3, r3, #79	; 0x4f
  40100a:	930a      	str	r3, [sp, #40]	; 0x28
  40100c:	9b0a      	ldr	r3, [sp, #40]	; 0x28
  40100e:	f023 0304 	bic.w	r3, r3, #4
  401012:	930a      	str	r3, [sp, #40]	; 0x28
  401014:	9b0a      	ldr	r3, [sp, #40]	; 0x28
  401016:	6313      	str	r3, [r2, #48]	; 0x30
  401018:	2300      	movs	r3, #0
  40101a:	930b      	str	r3, [sp, #44]	; 0x2c
  40101c:	9b0b      	ldr	r3, [sp, #44]	; 0x2c
  40101e:	2b13      	cmp	r3, #19
  401020:	d90d      	bls.n	40103e <UDP_Handler+0x14a>
  401022:	4a55      	ldr	r2, [pc, #340]	; (401178 <UDP_Handler+0x284>)
  401024:	2300      	movs	r3, #0
  401026:	8013      	strh	r3, [r2, #0]
  401028:	4a54      	ldr	r2, [pc, #336]	; (40117c <UDP_Handler+0x288>)
  40102a:	8013      	strh	r3, [r2, #0]
  40102c:	2302      	movs	r3, #2
  40102e:	702b      	strb	r3, [r5, #0]
  401030:	f7ff fe72 	bl	400d18 <udd_ctrl_in_sent>
  401034:	e76e      	b.n	400f14 <UDP_Handler+0x20>
  401036:	bf00      	nop
  401038:	9b09      	ldr	r3, [sp, #36]	; 0x24
  40103a:	3301      	adds	r3, #1
  40103c:	e7db      	b.n	400ff6 <UDP_Handler+0x102>
  40103e:	bf00      	nop
  401040:	9b0b      	ldr	r3, [sp, #44]	; 0x2c
  401042:	3301      	adds	r3, #1
  401044:	e7e9      	b.n	40101a <UDP_Handler+0x126>
  401046:	930c      	str	r3, [sp, #48]	; 0x30
  401048:	9b0c      	ldr	r3, [sp, #48]	; 0x30
  40104a:	f043 034f 	orr.w	r3, r3, #79	; 0x4f
  40104e:	930c      	str	r3, [sp, #48]	; 0x30
  401050:	9b0c      	ldr	r3, [sp, #48]	; 0x30
  401052:	f023 0304 	bic.w	r3, r3, #4
  401056:	930c      	str	r3, [sp, #48]	; 0x30
  401058:	9b0c      	ldr	r3, [sp, #48]	; 0x30
  40105a:	6323      	str	r3, [r4, #48]	; 0x30
  40105c:	2300      	movs	r3, #0
  40105e:	930d      	str	r3, [sp, #52]	; 0x34
  401060:	9b0d      	ldr	r3, [sp, #52]	; 0x34
  401062:	2b13      	cmp	r3, #19
  401064:	d904      	bls.n	401070 <UDP_Handler+0x17c>
  401066:	88fb      	ldrh	r3, [r7, #6]
  401068:	b933      	cbnz	r3, 401078 <UDP_Handler+0x184>
  40106a:	f7ff fcc1 	bl	4009f0 <udd_ctrl_send_zlp_in>
  40106e:	e751      	b.n	400f14 <UDP_Handler+0x20>
  401070:	bf00      	nop
  401072:	9b0d      	ldr	r3, [sp, #52]	; 0x34
  401074:	3301      	adds	r3, #1
  401076:	e7f2      	b.n	40105e <UDP_Handler+0x16a>
  401078:	4a3f      	ldr	r2, [pc, #252]	; (401178 <UDP_Handler+0x284>)
  40107a:	2300      	movs	r3, #0
  40107c:	8013      	strh	r3, [r2, #0]
  40107e:	4a3f      	ldr	r2, [pc, #252]	; (40117c <UDP_Handler+0x288>)
  401080:	8013      	strh	r3, [r2, #0]
  401082:	2301      	movs	r3, #1
  401084:	702b      	strb	r3, [r5, #0]
  401086:	e745      	b.n	400f14 <UDP_Handler+0x20>
  401088:	6b1a      	ldr	r2, [r3, #48]	; 0x30
  40108a:	07d0      	lsls	r0, r2, #31
  40108c:	d4d0      	bmi.n	401030 <UDP_Handler+0x13c>
  40108e:	6b1a      	ldr	r2, [r3, #48]	; 0x30
  401090:	f012 0202 	ands.w	r2, r2, #2
  401094:	f000 80df 	beq.w	401256 <UDP_Handler+0x362>
  401098:	4a35      	ldr	r2, [pc, #212]	; (401170 <UDP_Handler+0x27c>)
  40109a:	7812      	ldrb	r2, [r2, #0]
  40109c:	2a01      	cmp	r2, #1
  40109e:	d021      	beq.n	4010e4 <UDP_Handler+0x1f0>
  4010a0:	2a02      	cmp	r2, #2
  4010a2:	d001      	beq.n	4010a8 <UDP_Handler+0x1b4>
  4010a4:	2a04      	cmp	r2, #4
  4010a6:	d116      	bne.n	4010d6 <UDP_Handler+0x1e2>
  4010a8:	f7ff fcc2 	bl	400a30 <udd_ctrl_endofrequest>
  4010ac:	4a2e      	ldr	r2, [pc, #184]	; (401168 <UDP_Handler+0x274>)
  4010ae:	6b13      	ldr	r3, [r2, #48]	; 0x30
  4010b0:	930e      	str	r3, [sp, #56]	; 0x38
  4010b2:	9b0e      	ldr	r3, [sp, #56]	; 0x38
  4010b4:	f043 034f 	orr.w	r3, r3, #79	; 0x4f
  4010b8:	930e      	str	r3, [sp, #56]	; 0x38
  4010ba:	9b0e      	ldr	r3, [sp, #56]	; 0x38
  4010bc:	f023 0302 	bic.w	r3, r3, #2
  4010c0:	930e      	str	r3, [sp, #56]	; 0x38
  4010c2:	9b0e      	ldr	r3, [sp, #56]	; 0x38
  4010c4:	6313      	str	r3, [r2, #48]	; 0x30
  4010c6:	2300      	movs	r3, #0
  4010c8:	930f      	str	r3, [sp, #60]	; 0x3c
  4010ca:	9b0f      	ldr	r3, [sp, #60]	; 0x3c
  4010cc:	2b13      	cmp	r3, #19
  4010ce:	d905      	bls.n	4010dc <UDP_Handler+0x1e8>
  4010d0:	f7ff fc62 	bl	400998 <udd_ctrl_init>
  4010d4:	e71e      	b.n	400f14 <UDP_Handler+0x20>
  4010d6:	f7ff fc6b 	bl	4009b0 <udd_ctrl_stall_data>
  4010da:	e7e7      	b.n	4010ac <UDP_Handler+0x1b8>
  4010dc:	bf00      	nop
  4010de:	9b0f      	ldr	r3, [sp, #60]	; 0x3c
  4010e0:	3301      	adds	r3, #1
  4010e2:	e7f1      	b.n	4010c8 <UDP_Handler+0x1d4>
  4010e4:	4c25      	ldr	r4, [pc, #148]	; (40117c <UDP_Handler+0x288>)
  4010e6:	6b1a      	ldr	r2, [r3, #48]	; 0x30
  4010e8:	4822      	ldr	r0, [pc, #136]	; (401174 <UDP_Handler+0x280>)
  4010ea:	8823      	ldrh	r3, [r4, #0]
  4010ec:	8981      	ldrh	r1, [r0, #12]
  4010ee:	4f1e      	ldr	r7, [pc, #120]	; (401168 <UDP_Handler+0x274>)
  4010f0:	f3c2 420a 	ubfx	r2, r2, #16, #11
  4010f4:	189d      	adds	r5, r3, r2
  4010f6:	42a9      	cmp	r1, r5
  4010f8:	bfb8      	it	lt
  4010fa:	1aca      	sublt	r2, r1, r3
  4010fc:	6881      	ldr	r1, [r0, #8]
  4010fe:	4419      	add	r1, r3
  401100:	bfb8      	it	lt
  401102:	b292      	uxthlt	r2, r2
  401104:	460e      	mov	r6, r1
  401106:	1a75      	subs	r5, r6, r1
  401108:	b2ed      	uxtb	r5, r5
  40110a:	4295      	cmp	r5, r2
  40110c:	d328      	bcc.n	401160 <UDP_Handler+0x26c>
  40110e:	4413      	add	r3, r2
  401110:	b29b      	uxth	r3, r3
  401112:	2a08      	cmp	r2, #8
  401114:	8023      	strh	r3, [r4, #0]
  401116:	d105      	bne.n	401124 <UDP_Handler+0x230>
  401118:	4e17      	ldr	r6, [pc, #92]	; (401178 <UDP_Handler+0x284>)
  40111a:	88c1      	ldrh	r1, [r0, #6]
  40111c:	8832      	ldrh	r2, [r6, #0]
  40111e:	441a      	add	r2, r3
  401120:	4291      	cmp	r1, r2
  401122:	dc43      	bgt.n	4011ac <UDP_Handler+0x2b8>
  401124:	8183      	strh	r3, [r0, #12]
  401126:	6943      	ldr	r3, [r0, #20]
  401128:	4c0f      	ldr	r4, [pc, #60]	; (401168 <UDP_Handler+0x274>)
  40112a:	b34b      	cbz	r3, 401180 <UDP_Handler+0x28c>
  40112c:	4798      	blx	r3
  40112e:	bb38      	cbnz	r0, 401180 <UDP_Handler+0x28c>
  401130:	f7ff fc3e 	bl	4009b0 <udd_ctrl_stall_data>
  401134:	6b23      	ldr	r3, [r4, #48]	; 0x30
  401136:	9310      	str	r3, [sp, #64]	; 0x40
  401138:	9b10      	ldr	r3, [sp, #64]	; 0x40
  40113a:	f043 034f 	orr.w	r3, r3, #79	; 0x4f
  40113e:	9310      	str	r3, [sp, #64]	; 0x40
  401140:	9b10      	ldr	r3, [sp, #64]	; 0x40
  401142:	f023 0302 	bic.w	r3, r3, #2
  401146:	9310      	str	r3, [sp, #64]	; 0x40
  401148:	9b10      	ldr	r3, [sp, #64]	; 0x40
  40114a:	6323      	str	r3, [r4, #48]	; 0x30
  40114c:	9011      	str	r0, [sp, #68]	; 0x44
  40114e:	9b11      	ldr	r3, [sp, #68]	; 0x44
  401150:	2b13      	cmp	r3, #19
  401152:	f63f aedf 	bhi.w	400f14 <UDP_Handler+0x20>
  401156:	bf00      	nop
  401158:	9b11      	ldr	r3, [sp, #68]	; 0x44
  40115a:	3301      	adds	r3, #1
  40115c:	9311      	str	r3, [sp, #68]	; 0x44
  40115e:	e7f6      	b.n	40114e <UDP_Handler+0x25a>
  401160:	6d3d      	ldr	r5, [r7, #80]	; 0x50
  401162:	f806 5b01 	strb.w	r5, [r6], #1
  401166:	e7ce      	b.n	401106 <UDP_Handler+0x212>
  401168:	40034000 	.word	0x40034000
  40116c:	20000150 	.word	0x20000150
  401170:	200002b2 	.word	0x200002b2
  401174:	2000055c 	.word	0x2000055c
  401178:	200002b0 	.word	0x200002b0
  40117c:	200002ae 	.word	0x200002ae
  401180:	6b23      	ldr	r3, [r4, #48]	; 0x30
  401182:	9312      	str	r3, [sp, #72]	; 0x48
  401184:	9b12      	ldr	r3, [sp, #72]	; 0x48
  401186:	f043 034f 	orr.w	r3, r3, #79	; 0x4f
  40118a:	9312      	str	r3, [sp, #72]	; 0x48
  40118c:	9b12      	ldr	r3, [sp, #72]	; 0x48
  40118e:	f023 0302 	bic.w	r3, r3, #2
  401192:	9312      	str	r3, [sp, #72]	; 0x48
  401194:	9b12      	ldr	r3, [sp, #72]	; 0x48
  401196:	6323      	str	r3, [r4, #48]	; 0x30
  401198:	2300      	movs	r3, #0
  40119a:	9313      	str	r3, [sp, #76]	; 0x4c
  40119c:	9b13      	ldr	r3, [sp, #76]	; 0x4c
  40119e:	2b13      	cmp	r3, #19
  4011a0:	f63f af63 	bhi.w	40106a <UDP_Handler+0x176>
  4011a4:	bf00      	nop
  4011a6:	9b13      	ldr	r3, [sp, #76]	; 0x4c
  4011a8:	3301      	adds	r3, #1
  4011aa:	e7f6      	b.n	40119a <UDP_Handler+0x2a6>
  4011ac:	8982      	ldrh	r2, [r0, #12]
  4011ae:	429a      	cmp	r2, r3
  4011b0:	d13a      	bne.n	401228 <UDP_Handler+0x334>
  4011b2:	6941      	ldr	r1, [r0, #20]
  4011b4:	4da0      	ldr	r5, [pc, #640]	; (401438 <UDP_Handler+0x544>)
  4011b6:	b9b9      	cbnz	r1, 4011e8 <UDP_Handler+0x2f4>
  4011b8:	f7ff fbfa 	bl	4009b0 <udd_ctrl_stall_data>
  4011bc:	6b2b      	ldr	r3, [r5, #48]	; 0x30
  4011be:	9314      	str	r3, [sp, #80]	; 0x50
  4011c0:	9b14      	ldr	r3, [sp, #80]	; 0x50
  4011c2:	f043 034f 	orr.w	r3, r3, #79	; 0x4f
  4011c6:	9314      	str	r3, [sp, #80]	; 0x50
  4011c8:	9b14      	ldr	r3, [sp, #80]	; 0x50
  4011ca:	f023 0302 	bic.w	r3, r3, #2
  4011ce:	9314      	str	r3, [sp, #80]	; 0x50
  4011d0:	9b14      	ldr	r3, [sp, #80]	; 0x50
  4011d2:	632b      	str	r3, [r5, #48]	; 0x30
  4011d4:	9115      	str	r1, [sp, #84]	; 0x54
  4011d6:	9b15      	ldr	r3, [sp, #84]	; 0x54
  4011d8:	2b13      	cmp	r3, #19
  4011da:	f63f ae9b 	bhi.w	400f14 <UDP_Handler+0x20>
  4011de:	bf00      	nop
  4011e0:	9b15      	ldr	r3, [sp, #84]	; 0x54
  4011e2:	3301      	adds	r3, #1
  4011e4:	9315      	str	r3, [sp, #84]	; 0x54
  4011e6:	e7f6      	b.n	4011d6 <UDP_Handler+0x2e2>
  4011e8:	4788      	blx	r1
  4011ea:	b9b8      	cbnz	r0, 40121c <UDP_Handler+0x328>
  4011ec:	f7ff fbe0 	bl	4009b0 <udd_ctrl_stall_data>
  4011f0:	6b2b      	ldr	r3, [r5, #48]	; 0x30
  4011f2:	9316      	str	r3, [sp, #88]	; 0x58
  4011f4:	9b16      	ldr	r3, [sp, #88]	; 0x58
  4011f6:	f043 034f 	orr.w	r3, r3, #79	; 0x4f
  4011fa:	9316      	str	r3, [sp, #88]	; 0x58
  4011fc:	9b16      	ldr	r3, [sp, #88]	; 0x58
  4011fe:	f023 0302 	bic.w	r3, r3, #2
  401202:	9316      	str	r3, [sp, #88]	; 0x58
  401204:	9b16      	ldr	r3, [sp, #88]	; 0x58
  401206:	632b      	str	r3, [r5, #48]	; 0x30
  401208:	9017      	str	r0, [sp, #92]	; 0x5c
  40120a:	9b17      	ldr	r3, [sp, #92]	; 0x5c
  40120c:	2b13      	cmp	r3, #19
  40120e:	f63f ae81 	bhi.w	400f14 <UDP_Handler+0x20>
  401212:	bf00      	nop
  401214:	9b17      	ldr	r3, [sp, #92]	; 0x5c
  401216:	3301      	adds	r3, #1
  401218:	9317      	str	r3, [sp, #92]	; 0x5c
  40121a:	e7f6      	b.n	40120a <UDP_Handler+0x316>
  40121c:	8833      	ldrh	r3, [r6, #0]
  40121e:	8822      	ldrh	r2, [r4, #0]
  401220:	4413      	add	r3, r2
  401222:	8033      	strh	r3, [r6, #0]
  401224:	2300      	movs	r3, #0
  401226:	8023      	strh	r3, [r4, #0]
  401228:	4a83      	ldr	r2, [pc, #524]	; (401438 <UDP_Handler+0x544>)
  40122a:	6b13      	ldr	r3, [r2, #48]	; 0x30
  40122c:	9318      	str	r3, [sp, #96]	; 0x60
  40122e:	9b18      	ldr	r3, [sp, #96]	; 0x60
  401230:	f043 034f 	orr.w	r3, r3, #79	; 0x4f
  401234:	9318      	str	r3, [sp, #96]	; 0x60
  401236:	9b18      	ldr	r3, [sp, #96]	; 0x60
  401238:	f023 0302 	bic.w	r3, r3, #2
  40123c:	9318      	str	r3, [sp, #96]	; 0x60
  40123e:	9b18      	ldr	r3, [sp, #96]	; 0x60
  401240:	6313      	str	r3, [r2, #48]	; 0x30
  401242:	2300      	movs	r3, #0
  401244:	9319      	str	r3, [sp, #100]	; 0x64
  401246:	9b19      	ldr	r3, [sp, #100]	; 0x64
  401248:	2b13      	cmp	r3, #19
  40124a:	f63f ae63 	bhi.w	400f14 <UDP_Handler+0x20>
  40124e:	bf00      	nop
  401250:	9b19      	ldr	r3, [sp, #100]	; 0x64
  401252:	3301      	adds	r3, #1
  401254:	e7f6      	b.n	401244 <UDP_Handler+0x350>
  401256:	6b19      	ldr	r1, [r3, #48]	; 0x30
  401258:	0709      	lsls	r1, r1, #28
  40125a:	d515      	bpl.n	401288 <UDP_Handler+0x394>
  40125c:	6b19      	ldr	r1, [r3, #48]	; 0x30
  40125e:	9102      	str	r1, [sp, #8]
  401260:	9902      	ldr	r1, [sp, #8]
  401262:	f041 014f 	orr.w	r1, r1, #79	; 0x4f
  401266:	9102      	str	r1, [sp, #8]
  401268:	9902      	ldr	r1, [sp, #8]
  40126a:	f021 0108 	bic.w	r1, r1, #8
  40126e:	9102      	str	r1, [sp, #8]
  401270:	9902      	ldr	r1, [sp, #8]
  401272:	6319      	str	r1, [r3, #48]	; 0x30
  401274:	9203      	str	r2, [sp, #12]
  401276:	9b03      	ldr	r3, [sp, #12]
  401278:	2b13      	cmp	r3, #19
  40127a:	f63f ae4b 	bhi.w	400f14 <UDP_Handler+0x20>
  40127e:	bf00      	nop
  401280:	9b03      	ldr	r3, [sp, #12]
  401282:	3301      	adds	r3, #1
  401284:	9303      	str	r3, [sp, #12]
  401286:	e7f6      	b.n	401276 <UDP_Handler+0x382>
  401288:	f8df e1ac 	ldr.w	lr, [pc, #428]	; 401438 <UDP_Handler+0x544>
  40128c:	f8df 91ac 	ldr.w	r9, [pc, #428]	; 40143c <UDP_Handler+0x548>
  401290:	2201      	movs	r2, #1
  401292:	f04f 0c01 	mov.w	ip, #1
  401296:	2314      	movs	r3, #20
  401298:	f8de 1018 	ldr.w	r1, [lr, #24]
  40129c:	fa0c f802 	lsl.w	r8, ip, r2
  4012a0:	ea11 0f08 	tst.w	r1, r8
  4012a4:	b2d6      	uxtb	r6, r2
  4012a6:	f000 819f 	beq.w	4015e8 <UDP_Handler+0x6f4>
  4012aa:	0094      	lsls	r4, r2, #2
  4012ac:	f104 2440 	add.w	r4, r4, #1073758208	; 0x40004000
  4012b0:	f504 3440 	add.w	r4, r4, #196608	; 0x30000
  4012b4:	fb03 9702 	mla	r7, r3, r2, r9
  4012b8:	6b20      	ldr	r0, [r4, #48]	; 0x30
  4012ba:	f010 0042 	ands.w	r0, r0, #66	; 0x42
  4012be:	f102 35ff 	add.w	r5, r2, #4294967295
  4012c2:	f1a7 0714 	sub.w	r7, r7, #20
  4012c6:	d042      	beq.n	40134e <UDP_Handler+0x45a>
  4012c8:	fb03 9305 	mla	r3, r3, r5, r9
  4012cc:	6b22      	ldr	r2, [r4, #48]	; 0x30
  4012ce:	f8b3 b010 	ldrh.w	fp, [r3, #16]
  4012d2:	f3c2 4a0a 	ubfx	sl, r2, #16, #11
  4012d6:	f3cb 0b09 	ubfx	fp, fp, #0, #10
  4012da:	f1ba 0f00 	cmp.w	sl, #0
  4012de:	d034      	beq.n	40134a <UDP_Handler+0x456>
  4012e0:	68da      	ldr	r2, [r3, #12]
  4012e2:	689b      	ldr	r3, [r3, #8]
  4012e4:	f04f 0e14 	mov.w	lr, #20
  4012e8:	fb0e 9e05 	mla	lr, lr, r5, r9
  4012ec:	1a9b      	subs	r3, r3, r2
  4012ee:	4553      	cmp	r3, sl
  4012f0:	f8de 0004 	ldr.w	r0, [lr, #4]
  4012f4:	bf88      	it	hi
  4012f6:	4653      	movhi	r3, sl
  4012f8:	4410      	add	r0, r2
  4012fa:	441a      	add	r2, r3
  4012fc:	bf8c      	ite	hi
  4012fe:	2100      	movhi	r1, #0
  401300:	2101      	movls	r1, #1
  401302:	f8ce 200c 	str.w	r2, [lr, #12]
  401306:	4403      	add	r3, r0
  401308:	4283      	cmp	r3, r0
  40130a:	d11a      	bne.n	401342 <UDP_Handler+0x44e>
  40130c:	4630      	mov	r0, r6
  40130e:	9101      	str	r1, [sp, #4]
  401310:	f7ff fb96 	bl	400a40 <udd_ep_ack_out_received>
  401314:	9901      	ldr	r1, [sp, #4]
  401316:	b911      	cbnz	r1, 40131e <UDP_Handler+0x42a>
  401318:	45d3      	cmp	fp, sl
  40131a:	f67f adfb 	bls.w	400f14 <UDP_Handler+0x20>
  40131e:	6b21      	ldr	r1, [r4, #48]	; 0x30
  401320:	f011 0120 	ands.w	r1, r1, #32
  401324:	f47f adf6 	bne.w	400f14 <UDP_Handler+0x20>
  401328:	4b43      	ldr	r3, [pc, #268]	; (401438 <UDP_Handler+0x544>)
  40132a:	f8c3 8014 	str.w	r8, [r3, #20]
  40132e:	2314      	movs	r3, #20
  401330:	fb03 9505 	mla	r5, r3, r5, r9
  401334:	4632      	mov	r2, r6
  401336:	68eb      	ldr	r3, [r5, #12]
  401338:	60ab      	str	r3, [r5, #8]
  40133a:	4638      	mov	r0, r7
  40133c:	f7ff fdba 	bl	400eb4 <udd_ep_finish_job>
  401340:	e5e8      	b.n	400f14 <UDP_Handler+0x20>
  401342:	6d22      	ldr	r2, [r4, #80]	; 0x50
  401344:	f800 2b01 	strb.w	r2, [r0], #1
  401348:	e7de      	b.n	401308 <UDP_Handler+0x414>
  40134a:	4651      	mov	r1, sl
  40134c:	e7de      	b.n	40130c <UDP_Handler+0x418>
  40134e:	6b21      	ldr	r1, [r4, #48]	; 0x30
  401350:	f011 0101 	ands.w	r1, r1, #1
  401354:	f000 8127 	beq.w	4015a6 <UDP_Handler+0x6b2>
  401358:	fb03 9305 	mla	r3, r3, r5, r9
  40135c:	f103 0e10 	add.w	lr, r3, #16
  401360:	f89e 2001 	ldrb.w	r2, [lr, #1]
  401364:	f3c2 0181 	ubfx	r1, r2, #2, #2
  401368:	3103      	adds	r1, #3
  40136a:	f361 0283 	bfi	r2, r1, #2, #2
  40136e:	f88e 2001 	strb.w	r2, [lr, #1]
  401372:	7c5a      	ldrb	r2, [r3, #17]
  401374:	f012 0120 	ands.w	r1, r2, #32
  401378:	d062      	beq.n	401440 <UDP_Handler+0x54c>
  40137a:	f012 020c 	ands.w	r2, r2, #12
  40137e:	6b23      	ldr	r3, [r4, #48]	; 0x30
  401380:	d029      	beq.n	4013d6 <UDP_Handler+0x4e2>
  401382:	931a      	str	r3, [sp, #104]	; 0x68
  401384:	9b1a      	ldr	r3, [sp, #104]	; 0x68
  401386:	f043 034f 	orr.w	r3, r3, #79	; 0x4f
  40138a:	931a      	str	r3, [sp, #104]	; 0x68
  40138c:	9b1a      	ldr	r3, [sp, #104]	; 0x68
  40138e:	f043 0310 	orr.w	r3, r3, #16
  401392:	931a      	str	r3, [sp, #104]	; 0x68
  401394:	9b1a      	ldr	r3, [sp, #104]	; 0x68
  401396:	6323      	str	r3, [r4, #48]	; 0x30
  401398:	901b      	str	r0, [sp, #108]	; 0x6c
  40139a:	9b1b      	ldr	r3, [sp, #108]	; 0x6c
  40139c:	2b13      	cmp	r3, #19
  40139e:	d915      	bls.n	4013cc <UDP_Handler+0x4d8>
  4013a0:	6b23      	ldr	r3, [r4, #48]	; 0x30
  4013a2:	931c      	str	r3, [sp, #112]	; 0x70
  4013a4:	9b1c      	ldr	r3, [sp, #112]	; 0x70
  4013a6:	f043 034f 	orr.w	r3, r3, #79	; 0x4f
  4013aa:	931c      	str	r3, [sp, #112]	; 0x70
  4013ac:	9b1c      	ldr	r3, [sp, #112]	; 0x70
  4013ae:	f023 0301 	bic.w	r3, r3, #1
  4013b2:	931c      	str	r3, [sp, #112]	; 0x70
  4013b4:	9b1c      	ldr	r3, [sp, #112]	; 0x70
  4013b6:	6323      	str	r3, [r4, #48]	; 0x30
  4013b8:	2300      	movs	r3, #0
  4013ba:	931d      	str	r3, [sp, #116]	; 0x74
  4013bc:	9b1d      	ldr	r3, [sp, #116]	; 0x74
  4013be:	2b13      	cmp	r3, #19
  4013c0:	f63f ada8 	bhi.w	400f14 <UDP_Handler+0x20>
  4013c4:	bf00      	nop
  4013c6:	9b1d      	ldr	r3, [sp, #116]	; 0x74
  4013c8:	3301      	adds	r3, #1
  4013ca:	e7f6      	b.n	4013ba <UDP_Handler+0x4c6>
  4013cc:	bf00      	nop
  4013ce:	9b1b      	ldr	r3, [sp, #108]	; 0x6c
  4013d0:	3301      	adds	r3, #1
  4013d2:	931b      	str	r3, [sp, #108]	; 0x6c
  4013d4:	e7e1      	b.n	40139a <UDP_Handler+0x4a6>
  4013d6:	931e      	str	r3, [sp, #120]	; 0x78
  4013d8:	9b1e      	ldr	r3, [sp, #120]	; 0x78
  4013da:	f043 034f 	orr.w	r3, r3, #79	; 0x4f
  4013de:	931e      	str	r3, [sp, #120]	; 0x78
  4013e0:	9b1e      	ldr	r3, [sp, #120]	; 0x78
  4013e2:	f023 0301 	bic.w	r3, r3, #1
  4013e6:	931e      	str	r3, [sp, #120]	; 0x78
  4013e8:	9b1e      	ldr	r3, [sp, #120]	; 0x78
  4013ea:	6323      	str	r3, [r4, #48]	; 0x30
  4013ec:	921f      	str	r2, [sp, #124]	; 0x7c
  4013ee:	9b1f      	ldr	r3, [sp, #124]	; 0x7c
  4013f0:	2b13      	cmp	r3, #19
  4013f2:	d918      	bls.n	401426 <UDP_Handler+0x532>
  4013f4:	6b23      	ldr	r3, [r4, #48]	; 0x30
  4013f6:	9320      	str	r3, [sp, #128]	; 0x80
  4013f8:	9b20      	ldr	r3, [sp, #128]	; 0x80
  4013fa:	f043 034f 	orr.w	r3, r3, #79	; 0x4f
  4013fe:	9320      	str	r3, [sp, #128]	; 0x80
  401400:	9b20      	ldr	r3, [sp, #128]	; 0x80
  401402:	f043 0320 	orr.w	r3, r3, #32
  401406:	9320      	str	r3, [sp, #128]	; 0x80
  401408:	9b20      	ldr	r3, [sp, #128]	; 0x80
  40140a:	6323      	str	r3, [r4, #48]	; 0x30
  40140c:	2300      	movs	r3, #0
  40140e:	9321      	str	r3, [sp, #132]	; 0x84
  401410:	9b21      	ldr	r3, [sp, #132]	; 0x84
  401412:	2b13      	cmp	r3, #19
  401414:	d90c      	bls.n	401430 <UDP_Handler+0x53c>
  401416:	2314      	movs	r3, #20
  401418:	fb03 9505 	mla	r5, r3, r5, r9
  40141c:	7c6b      	ldrb	r3, [r5, #17]
  40141e:	f36f 1345 	bfc	r3, #5, #1
  401422:	746b      	strb	r3, [r5, #17]
  401424:	e576      	b.n	400f14 <UDP_Handler+0x20>
  401426:	bf00      	nop
  401428:	9b1f      	ldr	r3, [sp, #124]	; 0x7c
  40142a:	3301      	adds	r3, #1
  40142c:	931f      	str	r3, [sp, #124]	; 0x7c
  40142e:	e7de      	b.n	4013ee <UDP_Handler+0x4fa>
  401430:	bf00      	nop
  401432:	9b21      	ldr	r3, [sp, #132]	; 0x84
  401434:	3301      	adds	r3, #1
  401436:	e7ea      	b.n	40140e <UDP_Handler+0x51a>
  401438:	40034000 	.word	0x40034000
  40143c:	200002b4 	.word	0x200002b4
  401440:	0612      	lsls	r2, r2, #24
  401442:	d50b      	bpl.n	40145c <UDP_Handler+0x568>
  401444:	f89e 2001 	ldrb.w	r2, [lr, #1]
  401448:	f361 12c7 	bfi	r2, r1, #7, #1
  40144c:	f88e 2001 	strb.w	r2, [lr, #1]
  401450:	68da      	ldr	r2, [r3, #12]
  401452:	609a      	str	r2, [r3, #8]
  401454:	4638      	mov	r0, r7
  401456:	4632      	mov	r2, r6
  401458:	f7ff fd2c 	bl	400eb4 <udd_ep_finish_job>
  40145c:	2314      	movs	r3, #20
  40145e:	fb03 9305 	mla	r3, r3, r5, r9
  401462:	68d9      	ldr	r1, [r3, #12]
  401464:	689a      	ldr	r2, [r3, #8]
  401466:	4291      	cmp	r1, r2
  401468:	d320      	bcc.n	4014ac <UDP_Handler+0x5b8>
  40146a:	7c5b      	ldrb	r3, [r3, #17]
  40146c:	f013 014c 	ands.w	r1, r3, #76	; 0x4c
  401470:	d11c      	bne.n	4014ac <UDP_Handler+0x5b8>
  401472:	f7ff fa83 	bl	40097c <cpu_irq_save>
  401476:	4b7d      	ldr	r3, [pc, #500]	; (40166c <UDP_Handler+0x778>)
  401478:	f8c3 8014 	str.w	r8, [r3, #20]
  40147c:	f7ff fc0a 	bl	400c94 <cpu_irq_restore>
  401480:	6b23      	ldr	r3, [r4, #48]	; 0x30
  401482:	9322      	str	r3, [sp, #136]	; 0x88
  401484:	9b22      	ldr	r3, [sp, #136]	; 0x88
  401486:	f043 034f 	orr.w	r3, r3, #79	; 0x4f
  40148a:	9322      	str	r3, [sp, #136]	; 0x88
  40148c:	9b22      	ldr	r3, [sp, #136]	; 0x88
  40148e:	f023 0301 	bic.w	r3, r3, #1
  401492:	9322      	str	r3, [sp, #136]	; 0x88
  401494:	9b22      	ldr	r3, [sp, #136]	; 0x88
  401496:	6323      	str	r3, [r4, #48]	; 0x30
  401498:	9123      	str	r1, [sp, #140]	; 0x8c
  40149a:	9b23      	ldr	r3, [sp, #140]	; 0x8c
  40149c:	2b13      	cmp	r3, #19
  40149e:	f63f ad39 	bhi.w	400f14 <UDP_Handler+0x20>
  4014a2:	bf00      	nop
  4014a4:	9b23      	ldr	r3, [sp, #140]	; 0x8c
  4014a6:	3301      	adds	r3, #1
  4014a8:	9323      	str	r3, [sp, #140]	; 0x8c
  4014aa:	e7f6      	b.n	40149a <UDP_Handler+0x5a6>
  4014ac:	2e03      	cmp	r6, #3
  4014ae:	d05f      	beq.n	401570 <UDP_Handler+0x67c>
  4014b0:	2314      	movs	r3, #20
  4014b2:	fb03 9505 	mla	r5, r3, r5, r9
  4014b6:	f105 0810 	add.w	r8, r5, #16
  4014ba:	f898 3001 	ldrb.w	r3, [r8, #1]
  4014be:	f013 0f0c 	tst.w	r3, #12
  4014c2:	d02e      	beq.n	401522 <UDP_Handler+0x62e>
  4014c4:	6b23      	ldr	r3, [r4, #48]	; 0x30
  4014c6:	9324      	str	r3, [sp, #144]	; 0x90
  4014c8:	9b24      	ldr	r3, [sp, #144]	; 0x90
  4014ca:	f043 034f 	orr.w	r3, r3, #79	; 0x4f
  4014ce:	9324      	str	r3, [sp, #144]	; 0x90
  4014d0:	9b24      	ldr	r3, [sp, #144]	; 0x90
  4014d2:	f043 0310 	orr.w	r3, r3, #16
  4014d6:	9324      	str	r3, [sp, #144]	; 0x90
  4014d8:	9b24      	ldr	r3, [sp, #144]	; 0x90
  4014da:	6323      	str	r3, [r4, #48]	; 0x30
  4014dc:	2300      	movs	r3, #0
  4014de:	9325      	str	r3, [sp, #148]	; 0x94
  4014e0:	9b25      	ldr	r3, [sp, #148]	; 0x94
  4014e2:	2b13      	cmp	r3, #19
  4014e4:	d915      	bls.n	401512 <UDP_Handler+0x61e>
  4014e6:	6b23      	ldr	r3, [r4, #48]	; 0x30
  4014e8:	9326      	str	r3, [sp, #152]	; 0x98
  4014ea:	9b26      	ldr	r3, [sp, #152]	; 0x98
  4014ec:	f043 034f 	orr.w	r3, r3, #79	; 0x4f
  4014f0:	9326      	str	r3, [sp, #152]	; 0x98
  4014f2:	9b26      	ldr	r3, [sp, #152]	; 0x98
  4014f4:	f023 0301 	bic.w	r3, r3, #1
  4014f8:	9326      	str	r3, [sp, #152]	; 0x98
  4014fa:	9b26      	ldr	r3, [sp, #152]	; 0x98
  4014fc:	6323      	str	r3, [r4, #48]	; 0x30
  4014fe:	2300      	movs	r3, #0
  401500:	9327      	str	r3, [sp, #156]	; 0x9c
  401502:	9b27      	ldr	r3, [sp, #156]	; 0x9c
  401504:	2b13      	cmp	r3, #19
  401506:	d908      	bls.n	40151a <UDP_Handler+0x626>
  401508:	2100      	movs	r1, #0
  40150a:	4630      	mov	r0, r6
  40150c:	f7ff fb00 	bl	400b10 <udd_ep_in_sent>
  401510:	e500      	b.n	400f14 <UDP_Handler+0x20>
  401512:	bf00      	nop
  401514:	9b25      	ldr	r3, [sp, #148]	; 0x94
  401516:	3301      	adds	r3, #1
  401518:	e7e1      	b.n	4014de <UDP_Handler+0x5ea>
  40151a:	bf00      	nop
  40151c:	9b27      	ldr	r3, [sp, #156]	; 0x9c
  40151e:	3301      	adds	r3, #1
  401520:	e7ee      	b.n	401500 <UDP_Handler+0x60c>
  401522:	2101      	movs	r1, #1
  401524:	4630      	mov	r0, r6
  401526:	f7ff faf3 	bl	400b10 <udd_ep_in_sent>
  40152a:	4601      	mov	r1, r0
  40152c:	b958      	cbnz	r0, 401546 <UDP_Handler+0x652>
  40152e:	f898 3001 	ldrb.w	r3, [r8, #1]
  401532:	f360 13c7 	bfi	r3, r0, #7, #1
  401536:	f888 3001 	strb.w	r3, [r8, #1]
  40153a:	68eb      	ldr	r3, [r5, #12]
  40153c:	60ab      	str	r3, [r5, #8]
  40153e:	4632      	mov	r2, r6
  401540:	4638      	mov	r0, r7
  401542:	f7ff fcb7 	bl	400eb4 <udd_ep_finish_job>
  401546:	6b23      	ldr	r3, [r4, #48]	; 0x30
  401548:	9328      	str	r3, [sp, #160]	; 0xa0
  40154a:	9b28      	ldr	r3, [sp, #160]	; 0xa0
  40154c:	f043 034f 	orr.w	r3, r3, #79	; 0x4f
  401550:	9328      	str	r3, [sp, #160]	; 0xa0
  401552:	9b28      	ldr	r3, [sp, #160]	; 0xa0
  401554:	f023 0301 	bic.w	r3, r3, #1
  401558:	9328      	str	r3, [sp, #160]	; 0xa0
  40155a:	9b28      	ldr	r3, [sp, #160]	; 0xa0
  40155c:	6323      	str	r3, [r4, #48]	; 0x30
  40155e:	2300      	movs	r3, #0
  401560:	9329      	str	r3, [sp, #164]	; 0xa4
  401562:	9b29      	ldr	r3, [sp, #164]	; 0xa4
  401564:	2b13      	cmp	r3, #19
  401566:	d8cf      	bhi.n	401508 <UDP_Handler+0x614>
  401568:	bf00      	nop
  40156a:	9b29      	ldr	r3, [sp, #164]	; 0xa4
  40156c:	3301      	adds	r3, #1
  40156e:	e7f7      	b.n	401560 <UDP_Handler+0x66c>
  401570:	2101      	movs	r1, #1
  401572:	4630      	mov	r0, r6
  401574:	f7ff facc 	bl	400b10 <udd_ep_in_sent>
  401578:	4a3c      	ldr	r2, [pc, #240]	; (40166c <UDP_Handler+0x778>)
  40157a:	6bd3      	ldr	r3, [r2, #60]	; 0x3c
  40157c:	932a      	str	r3, [sp, #168]	; 0xa8
  40157e:	9b2a      	ldr	r3, [sp, #168]	; 0xa8
  401580:	f043 034f 	orr.w	r3, r3, #79	; 0x4f
  401584:	932a      	str	r3, [sp, #168]	; 0xa8
  401586:	9b2a      	ldr	r3, [sp, #168]	; 0xa8
  401588:	f023 0301 	bic.w	r3, r3, #1
  40158c:	932a      	str	r3, [sp, #168]	; 0xa8
  40158e:	9b2a      	ldr	r3, [sp, #168]	; 0xa8
  401590:	63d3      	str	r3, [r2, #60]	; 0x3c
  401592:	2300      	movs	r3, #0
  401594:	932b      	str	r3, [sp, #172]	; 0xac
  401596:	9b2b      	ldr	r3, [sp, #172]	; 0xac
  401598:	2b13      	cmp	r3, #19
  40159a:	f63f acbb 	bhi.w	400f14 <UDP_Handler+0x20>
  40159e:	bf00      	nop
  4015a0:	9b2b      	ldr	r3, [sp, #172]	; 0xac
  4015a2:	3301      	adds	r3, #1
  4015a4:	e7f6      	b.n	401594 <UDP_Handler+0x6a0>
  4015a6:	6b20      	ldr	r0, [r4, #48]	; 0x30
  4015a8:	0700      	lsls	r0, r0, #28
  4015aa:	d51d      	bpl.n	4015e8 <UDP_Handler+0x6f4>
  4015ac:	6b23      	ldr	r3, [r4, #48]	; 0x30
  4015ae:	932c      	str	r3, [sp, #176]	; 0xb0
  4015b0:	9b2c      	ldr	r3, [sp, #176]	; 0xb0
  4015b2:	f043 034f 	orr.w	r3, r3, #79	; 0x4f
  4015b6:	932c      	str	r3, [sp, #176]	; 0xb0
  4015b8:	9b2c      	ldr	r3, [sp, #176]	; 0xb0
  4015ba:	f023 0308 	bic.w	r3, r3, #8
  4015be:	932c      	str	r3, [sp, #176]	; 0xb0
  4015c0:	9b2c      	ldr	r3, [sp, #176]	; 0xb0
  4015c2:	6323      	str	r3, [r4, #48]	; 0x30
  4015c4:	912d      	str	r1, [sp, #180]	; 0xb4
  4015c6:	9b2d      	ldr	r3, [sp, #180]	; 0xb4
  4015c8:	2b13      	cmp	r3, #19
  4015ca:	d908      	bls.n	4015de <UDP_Handler+0x6ea>
  4015cc:	6b23      	ldr	r3, [r4, #48]	; 0x30
  4015ce:	f403 63e0 	and.w	r3, r3, #1792	; 0x700
  4015d2:	f5b3 7f80 	cmp.w	r3, #256	; 0x100
  4015d6:	f43f ac9d 	beq.w	400f14 <UDP_Handler+0x20>
  4015da:	6b23      	ldr	r3, [r4, #48]	; 0x30
  4015dc:	e49a      	b.n	400f14 <UDP_Handler+0x20>
  4015de:	bf00      	nop
  4015e0:	9b2d      	ldr	r3, [sp, #180]	; 0xb4
  4015e2:	3301      	adds	r3, #1
  4015e4:	932d      	str	r3, [sp, #180]	; 0xb4
  4015e6:	e7ee      	b.n	4015c6 <UDP_Handler+0x6d2>
  4015e8:	3201      	adds	r2, #1
  4015ea:	2a07      	cmp	r2, #7
  4015ec:	f47f ae54 	bne.w	401298 <UDP_Handler+0x3a4>
  4015f0:	4b1e      	ldr	r3, [pc, #120]	; (40166c <UDP_Handler+0x778>)
  4015f2:	699a      	ldr	r2, [r3, #24]
  4015f4:	0492      	lsls	r2, r2, #18
  4015f6:	d502      	bpl.n	4015fe <UDP_Handler+0x70a>
  4015f8:	69da      	ldr	r2, [r3, #28]
  4015fa:	0491      	lsls	r1, r2, #18
  4015fc:	d40c      	bmi.n	401618 <UDP_Handler+0x724>
  4015fe:	699a      	ldr	r2, [r3, #24]
  401600:	0592      	lsls	r2, r2, #22
  401602:	d502      	bpl.n	40160a <UDP_Handler+0x716>
  401604:	69db      	ldr	r3, [r3, #28]
  401606:	059f      	lsls	r7, r3, #22
  401608:	d406      	bmi.n	401618 <UDP_Handler+0x724>
  40160a:	4b18      	ldr	r3, [pc, #96]	; (40166c <UDP_Handler+0x778>)
  40160c:	699a      	ldr	r2, [r3, #24]
  40160e:	0556      	lsls	r6, r2, #21
  401610:	d512      	bpl.n	401638 <UDP_Handler+0x744>
  401612:	69da      	ldr	r2, [r3, #28]
  401614:	0555      	lsls	r5, r2, #21
  401616:	d50f      	bpl.n	401638 <UDP_Handler+0x744>
  401618:	4c14      	ldr	r4, [pc, #80]	; (40166c <UDP_Handler+0x778>)
  40161a:	f44f 5318 	mov.w	r3, #9728	; 0x2600
  40161e:	6223      	str	r3, [r4, #32]
  401620:	2001      	movs	r0, #1
  401622:	6163      	str	r3, [r4, #20]
  401624:	f7ff fb64 	bl	400cf0 <udd_sleep_mode>
  401628:	f44f 7380 	mov.w	r3, #256	; 0x100
  40162c:	6223      	str	r3, [r4, #32]
  40162e:	6123      	str	r3, [r4, #16]
  401630:	f44f 6300 	mov.w	r3, #2048	; 0x800
  401634:	6123      	str	r3, [r4, #16]
  401636:	e46d      	b.n	400f14 <UDP_Handler+0x20>
  401638:	699a      	ldr	r2, [r3, #24]
  40163a:	05d4      	lsls	r4, r2, #23
  40163c:	d518      	bpl.n	401670 <UDP_Handler+0x77c>
  40163e:	69da      	ldr	r2, [r3, #28]
  401640:	05d0      	lsls	r0, r2, #23
  401642:	d515      	bpl.n	401670 <UDP_Handler+0x77c>
  401644:	f44f 7280 	mov.w	r2, #256	; 0x100
  401648:	621a      	str	r2, [r3, #32]
  40164a:	615a      	str	r2, [r3, #20]
  40164c:	f44f 5200 	mov.w	r2, #8192	; 0x2000
  401650:	611a      	str	r2, [r3, #16]
  401652:	f44f 7200 	mov.w	r2, #512	; 0x200
  401656:	611a      	str	r2, [r3, #16]
  401658:	f44f 6280 	mov.w	r2, #1024	; 0x400
  40165c:	611a      	str	r2, [r3, #16]
  40165e:	2022      	movs	r0, #34	; 0x22
  401660:	f000 fe46 	bl	4022f0 <pmc_disable_periph_clk>
  401664:	2000      	movs	r0, #0
  401666:	f7ff fb43 	bl	400cf0 <udd_sleep_mode>
  40166a:	e453      	b.n	400f14 <UDP_Handler+0x20>
  40166c:	40034000 	.word	0x40034000
  401670:	4b34      	ldr	r3, [pc, #208]	; (401744 <UDP_Handler+0x850>)
  401672:	69da      	ldr	r2, [r3, #28]
  401674:	04d1      	lsls	r1, r2, #19
  401676:	f57f ac4d 	bpl.w	400f14 <UDP_Handler+0x20>
  40167a:	f44f 5280 	mov.w	r2, #4096	; 0x1000
  40167e:	4d32      	ldr	r5, [pc, #200]	; (401748 <UDP_Handler+0x854>)
  401680:	621a      	str	r2, [r3, #32]
  401682:	2000      	movs	r0, #0
  401684:	2614      	movs	r6, #20
  401686:	1c44      	adds	r4, r0, #1
  401688:	b2e2      	uxtb	r2, r4
  40168a:	fb06 5000 	mla	r0, r6, r0, r5
  40168e:	2101      	movs	r1, #1
  401690:	f7ff fc10 	bl	400eb4 <udd_ep_finish_job>
  401694:	2c06      	cmp	r4, #6
  401696:	4620      	mov	r0, r4
  401698:	d1f5      	bne.n	401686 <UDP_Handler+0x792>
  40169a:	f7fe fe31 	bl	400300 <udc_reset>
  40169e:	4b29      	ldr	r3, [pc, #164]	; (401744 <UDP_Handler+0x850>)
  4016a0:	685a      	ldr	r2, [r3, #4]
  4016a2:	f022 0201 	bic.w	r2, r2, #1
  4016a6:	605a      	str	r2, [r3, #4]
  4016a8:	685a      	ldr	r2, [r3, #4]
  4016aa:	f022 0202 	bic.w	r2, r2, #2
  4016ae:	605a      	str	r2, [r3, #4]
  4016b0:	689a      	ldr	r2, [r3, #8]
  4016b2:	f442 7280 	orr.w	r2, r2, #256	; 0x100
  4016b6:	609a      	str	r2, [r3, #8]
  4016b8:	689a      	ldr	r2, [r3, #8]
  4016ba:	f022 027f 	bic.w	r2, r2, #127	; 0x7f
  4016be:	609a      	str	r2, [r3, #8]
  4016c0:	6b1a      	ldr	r2, [r3, #48]	; 0x30
  4016c2:	922e      	str	r2, [sp, #184]	; 0xb8
  4016c4:	9a2e      	ldr	r2, [sp, #184]	; 0xb8
  4016c6:	f042 024f 	orr.w	r2, r2, #79	; 0x4f
  4016ca:	922e      	str	r2, [sp, #184]	; 0xb8
  4016cc:	9a2e      	ldr	r2, [sp, #184]	; 0xb8
  4016ce:	f422 4207 	bic.w	r2, r2, #34560	; 0x8700
  4016d2:	f022 0280 	bic.w	r2, r2, #128	; 0x80
  4016d6:	922e      	str	r2, [sp, #184]	; 0xb8
  4016d8:	9a2e      	ldr	r2, [sp, #184]	; 0xb8
  4016da:	f442 4200 	orr.w	r2, r2, #32768	; 0x8000
  4016de:	922e      	str	r2, [sp, #184]	; 0xb8
  4016e0:	9a2e      	ldr	r2, [sp, #184]	; 0xb8
  4016e2:	631a      	str	r2, [r3, #48]	; 0x30
  4016e4:	2200      	movs	r2, #0
  4016e6:	922f      	str	r2, [sp, #188]	; 0xbc
  4016e8:	9a2f      	ldr	r2, [sp, #188]	; 0xbc
  4016ea:	2a13      	cmp	r2, #19
  4016ec:	d921      	bls.n	401732 <UDP_Handler+0x83e>
  4016ee:	6b1a      	ldr	r2, [r3, #48]	; 0x30
  4016f0:	9230      	str	r2, [sp, #192]	; 0xc0
  4016f2:	9a30      	ldr	r2, [sp, #192]	; 0xc0
  4016f4:	f042 024f 	orr.w	r2, r2, #79	; 0x4f
  4016f8:	9230      	str	r2, [sp, #192]	; 0xc0
  4016fa:	9a30      	ldr	r2, [sp, #192]	; 0xc0
  4016fc:	f442 4200 	orr.w	r2, r2, #32768	; 0x8000
  401700:	9230      	str	r2, [sp, #192]	; 0xc0
  401702:	9a30      	ldr	r2, [sp, #192]	; 0xc0
  401704:	631a      	str	r2, [r3, #48]	; 0x30
  401706:	2300      	movs	r3, #0
  401708:	9331      	str	r3, [sp, #196]	; 0xc4
  40170a:	9b31      	ldr	r3, [sp, #196]	; 0xc4
  40170c:	2b13      	cmp	r3, #19
  40170e:	d914      	bls.n	40173a <UDP_Handler+0x846>
  401710:	f7ff f934 	bl	40097c <cpu_irq_save>
  401714:	490b      	ldr	r1, [pc, #44]	; (401744 <UDP_Handler+0x850>)
  401716:	2301      	movs	r3, #1
  401718:	610b      	str	r3, [r1, #16]
  40171a:	f7ff fabb 	bl	400c94 <cpu_irq_restore>
  40171e:	f7ff f93b 	bl	400998 <udd_ctrl_init>
  401722:	f44f 7380 	mov.w	r3, #256	; 0x100
  401726:	610b      	str	r3, [r1, #16]
  401728:	f44f 6300 	mov.w	r3, #2048	; 0x800
  40172c:	610b      	str	r3, [r1, #16]
  40172e:	f7ff bbf1 	b.w	400f14 <UDP_Handler+0x20>
  401732:	bf00      	nop
  401734:	9a2f      	ldr	r2, [sp, #188]	; 0xbc
  401736:	3201      	adds	r2, #1
  401738:	e7d5      	b.n	4016e6 <UDP_Handler+0x7f2>
  40173a:	bf00      	nop
  40173c:	9b31      	ldr	r3, [sp, #196]	; 0xc4
  40173e:	3301      	adds	r3, #1
  401740:	e7e2      	b.n	401708 <UDP_Handler+0x814>
  401742:	bf00      	nop
  401744:	40034000 	.word	0x40034000
  401748:	200002b4 	.word	0x200002b4

0040174c <udd_attach>:
  40174c:	b510      	push	{r4, lr}
  40174e:	f7ff f915 	bl	40097c <cpu_irq_save>
  401752:	4604      	mov	r4, r0
  401754:	2001      	movs	r0, #1
  401756:	f7ff facb 	bl	400cf0 <udd_sleep_mode>
  40175a:	2022      	movs	r0, #34	; 0x22
  40175c:	f000 fda8 	bl	4022b0 <pmc_enable_periph_clk>
  401760:	4b0e      	ldr	r3, [pc, #56]	; (40179c <udd_attach+0x50>)
  401762:	6f5a      	ldr	r2, [r3, #116]	; 0x74
  401764:	f422 7280 	bic.w	r2, r2, #256	; 0x100
  401768:	675a      	str	r2, [r3, #116]	; 0x74
  40176a:	6f5a      	ldr	r2, [r3, #116]	; 0x74
  40176c:	f442 7200 	orr.w	r2, r2, #512	; 0x200
  401770:	675a      	str	r2, [r3, #116]	; 0x74
  401772:	f44f 7280 	mov.w	r2, #256	; 0x100
  401776:	611a      	str	r2, [r3, #16]
  401778:	f44f 5200 	mov.w	r2, #8192	; 0x2000
  40177c:	611a      	str	r2, [r3, #16]
  40177e:	f44f 7200 	mov.w	r2, #512	; 0x200
  401782:	611a      	str	r2, [r3, #16]
  401784:	f44f 6280 	mov.w	r2, #1024	; 0x400
  401788:	611a      	str	r2, [r3, #16]
  40178a:	f44f 6200 	mov.w	r2, #2048	; 0x800
  40178e:	611a      	str	r2, [r3, #16]
  401790:	4620      	mov	r0, r4
  401792:	e8bd 4010 	ldmia.w	sp!, {r4, lr}
  401796:	f7ff ba7d 	b.w	400c94 <cpu_irq_restore>
  40179a:	bf00      	nop
  40179c:	40034000 	.word	0x40034000

004017a0 <udd_enable>:
  4017a0:	b538      	push	{r3, r4, r5, lr}
  4017a2:	f7ff f8eb 	bl	40097c <cpu_irq_save>
  4017a6:	4604      	mov	r4, r0
  4017a8:	2022      	movs	r0, #34	; 0x22
  4017aa:	f000 fd81 	bl	4022b0 <pmc_enable_periph_clk>
  4017ae:	f000 fbc3 	bl	401f38 <sysclk_enable_usb>
  4017b2:	4b12      	ldr	r3, [pc, #72]	; (4017fc <udd_enable+0x5c>)
  4017b4:	4812      	ldr	r0, [pc, #72]	; (401800 <udd_enable+0x60>)
  4017b6:	2250      	movs	r2, #80	; 0x50
  4017b8:	f883 2322 	strb.w	r2, [r3, #802]	; 0x322
  4017bc:	2204      	movs	r2, #4
  4017be:	605a      	str	r2, [r3, #4]
  4017c0:	2514      	movs	r5, #20
  4017c2:	2300      	movs	r3, #0
  4017c4:	fb05 0203 	mla	r2, r5, r3, r0
  4017c8:	3301      	adds	r3, #1
  4017ca:	7c51      	ldrb	r1, [r2, #17]
  4017cc:	f001 0183 	and.w	r1, r1, #131	; 0x83
  4017d0:	f36f 11c7 	bfc	r1, #7, #1
  4017d4:	2b06      	cmp	r3, #6
  4017d6:	7451      	strb	r1, [r2, #17]
  4017d8:	d1f4      	bne.n	4017c4 <udd_enable+0x24>
  4017da:	f44f 2080 	mov.w	r0, #262144	; 0x40000
  4017de:	f000 fdcb 	bl	402378 <pmc_set_fast_startup_input>
  4017e2:	4b08      	ldr	r3, [pc, #32]	; (401804 <udd_enable+0x64>)
  4017e4:	2000      	movs	r0, #0
  4017e6:	7018      	strb	r0, [r3, #0]
  4017e8:	f7ff fa5e 	bl	400ca8 <sleepmgr_lock_mode>
  4017ec:	f7ff ffae 	bl	40174c <udd_attach>
  4017f0:	4620      	mov	r0, r4
  4017f2:	e8bd 4038 	ldmia.w	sp!, {r3, r4, r5, lr}
  4017f6:	f7ff ba4d 	b.w	400c94 <cpu_irq_restore>
  4017fa:	bf00      	nop
  4017fc:	e000e100 	.word	0xe000e100
  401800:	200002b4 	.word	0x200002b4
  401804:	200002ad 	.word	0x200002ad

00401808 <udd_set_address>:
  401808:	4b0c      	ldr	r3, [pc, #48]	; (40183c <udd_set_address+0x34>)
  40180a:	685a      	ldr	r2, [r3, #4]
  40180c:	f022 0201 	bic.w	r2, r2, #1
  401810:	605a      	str	r2, [r3, #4]
  401812:	689a      	ldr	r2, [r3, #8]
  401814:	f422 7280 	bic.w	r2, r2, #256	; 0x100
  401818:	609a      	str	r2, [r3, #8]
  40181a:	b170      	cbz	r0, 40183a <udd_set_address+0x32>
  40181c:	689a      	ldr	r2, [r3, #8]
  40181e:	f000 007f 	and.w	r0, r0, #127	; 0x7f
  401822:	f022 027f 	bic.w	r2, r2, #127	; 0x7f
  401826:	4310      	orrs	r0, r2
  401828:	6098      	str	r0, [r3, #8]
  40182a:	689a      	ldr	r2, [r3, #8]
  40182c:	f442 7280 	orr.w	r2, r2, #256	; 0x100
  401830:	609a      	str	r2, [r3, #8]
  401832:	685a      	ldr	r2, [r3, #4]
  401834:	f042 0201 	orr.w	r2, r2, #1
  401838:	605a      	str	r2, [r3, #4]
  40183a:	4770      	bx	lr
  40183c:	40034000 	.word	0x40034000

00401840 <udd_getaddress>:
  401840:	4b04      	ldr	r3, [pc, #16]	; (401854 <udd_getaddress+0x14>)
  401842:	6858      	ldr	r0, [r3, #4]
  401844:	f010 0001 	ands.w	r0, r0, #1
  401848:	bf1c      	itt	ne
  40184a:	6898      	ldrne	r0, [r3, #8]
  40184c:	f000 007f 	andne.w	r0, r0, #127	; 0x7f
  401850:	4770      	bx	lr
  401852:	bf00      	nop
  401854:	40034000 	.word	0x40034000

00401858 <udd_set_setup_payload>:
  401858:	4b01      	ldr	r3, [pc, #4]	; (401860 <udd_set_setup_payload+0x8>)
  40185a:	6098      	str	r0, [r3, #8]
  40185c:	8199      	strh	r1, [r3, #12]
  40185e:	4770      	bx	lr
  401860:	2000055c 	.word	0x2000055c

00401864 <udd_ep_alloc>:
  401864:	b5f7      	push	{r0, r1, r2, r4, r5, r6, r7, lr}
  401866:	f000 040f 	and.w	r4, r0, #15
  40186a:	2c06      	cmp	r4, #6
  40186c:	d860      	bhi.n	401930 <udd_ep_alloc+0xcc>
  40186e:	00a5      	lsls	r5, r4, #2
  401870:	f105 2540 	add.w	r5, r5, #1073758208	; 0x40004000
  401874:	f505 3540 	add.w	r5, r5, #196608	; 0x30000
  401878:	6b2b      	ldr	r3, [r5, #48]	; 0x30
  40187a:	f413 4300 	ands.w	r3, r3, #32768	; 0x8000
  40187e:	d157      	bne.n	401930 <udd_ep_alloc+0xcc>
  401880:	f001 0603 	and.w	r6, r1, #3
  401884:	2e01      	cmp	r6, #1
  401886:	d103      	bne.n	401890 <udd_ep_alloc+0x2c>
  401888:	2c00      	cmp	r4, #0
  40188a:	d051      	beq.n	401930 <udd_ep_alloc+0xcc>
  40188c:	2c03      	cmp	r4, #3
  40188e:	d04f      	beq.n	401930 <udd_ep_alloc+0xcc>
  401890:	1f23      	subs	r3, r4, #4
  401892:	2b01      	cmp	r3, #1
  401894:	bf94      	ite	ls
  401896:	f44f 7300 	movls.w	r3, #512	; 0x200
  40189a:	2340      	movhi	r3, #64	; 0x40
  40189c:	4293      	cmp	r3, r2
  40189e:	db47      	blt.n	401930 <udd_ep_alloc+0xcc>
  4018a0:	b246      	sxtb	r6, r0
  4018a2:	4824      	ldr	r0, [pc, #144]	; (401934 <udd_ep_alloc+0xd0>)
  4018a4:	1e63      	subs	r3, r4, #1
  4018a6:	2714      	movs	r7, #20
  4018a8:	fb07 0303 	mla	r3, r7, r3, r0
  4018ac:	f103 0010 	add.w	r0, r3, #16
  4018b0:	8a1f      	ldrh	r7, [r3, #16]
  4018b2:	f362 0709 	bfi	r7, r2, #0, #10
  4018b6:	821f      	strh	r7, [r3, #16]
  4018b8:	7c5b      	ldrb	r3, [r3, #17]
  4018ba:	f003 037f 	and.w	r3, r3, #127	; 0x7f
  4018be:	f36f 1345 	bfc	r3, #5, #1
  4018c2:	2e00      	cmp	r6, #0
  4018c4:	7043      	strb	r3, [r0, #1]
  4018c6:	bfbe      	ittt	lt
  4018c8:	b2db      	uxtblt	r3, r3
  4018ca:	f36f 0383 	bfclt	r3, #2, #2
  4018ce:	7043      	strblt	r3, [r0, #1]
  4018d0:	4b19      	ldr	r3, [pc, #100]	; (401938 <udd_ep_alloc+0xd4>)
  4018d2:	2001      	movs	r0, #1
  4018d4:	6a9a      	ldr	r2, [r3, #40]	; 0x28
  4018d6:	40a0      	lsls	r0, r4
  4018d8:	4302      	orrs	r2, r0
  4018da:	629a      	str	r2, [r3, #40]	; 0x28
  4018dc:	6a9c      	ldr	r4, [r3, #40]	; 0x28
  4018de:	ea24 0000 	bic.w	r0, r4, r0
  4018e2:	6298      	str	r0, [r3, #40]	; 0x28
  4018e4:	6b2b      	ldr	r3, [r5, #48]	; 0x30
  4018e6:	9300      	str	r3, [sp, #0]
  4018e8:	9b00      	ldr	r3, [sp, #0]
  4018ea:	f043 034f 	orr.w	r3, r3, #79	; 0x4f
  4018ee:	9300      	str	r3, [sp, #0]
  4018f0:	9b00      	ldr	r3, [sp, #0]
  4018f2:	2e00      	cmp	r6, #0
  4018f4:	f423 4307 	bic.w	r3, r3, #34560	; 0x8700
  4018f8:	f023 0380 	bic.w	r3, r3, #128	; 0x80
  4018fc:	bfb8      	it	lt
  4018fe:	f041 0104 	orrlt.w	r1, r1, #4
  401902:	9300      	str	r3, [sp, #0]
  401904:	0209      	lsls	r1, r1, #8
  401906:	9b00      	ldr	r3, [sp, #0]
  401908:	f401 61e0 	and.w	r1, r1, #1792	; 0x700
  40190c:	f441 4100 	orr.w	r1, r1, #32768	; 0x8000
  401910:	4319      	orrs	r1, r3
  401912:	9100      	str	r1, [sp, #0]
  401914:	9b00      	ldr	r3, [sp, #0]
  401916:	632b      	str	r3, [r5, #48]	; 0x30
  401918:	2300      	movs	r3, #0
  40191a:	9301      	str	r3, [sp, #4]
  40191c:	9b01      	ldr	r3, [sp, #4]
  40191e:	2b13      	cmp	r3, #19
  401920:	d902      	bls.n	401928 <udd_ep_alloc+0xc4>
  401922:	2001      	movs	r0, #1
  401924:	b003      	add	sp, #12
  401926:	bdf0      	pop	{r4, r5, r6, r7, pc}
  401928:	bf00      	nop
  40192a:	9b01      	ldr	r3, [sp, #4]
  40192c:	3301      	adds	r3, #1
  40192e:	e7f4      	b.n	40191a <udd_ep_alloc+0xb6>
  401930:	2000      	movs	r0, #0
  401932:	e7f7      	b.n	401924 <udd_ep_alloc+0xc0>
  401934:	200002b4 	.word	0x200002b4
  401938:	40034000 	.word	0x40034000

0040193c <udd_ep_free>:
  40193c:	f000 020f 	and.w	r2, r0, #15
  401940:	2a06      	cmp	r2, #6
  401942:	b513      	push	{r0, r1, r4, lr}
  401944:	d81d      	bhi.n	401982 <udd_ep_free+0x46>
  401946:	0093      	lsls	r3, r2, #2
  401948:	f103 2340 	add.w	r3, r3, #1073758208	; 0x40004000
  40194c:	f503 3340 	add.w	r3, r3, #196608	; 0x30000
  401950:	6b19      	ldr	r1, [r3, #48]	; 0x30
  401952:	9100      	str	r1, [sp, #0]
  401954:	9900      	ldr	r1, [sp, #0]
  401956:	f041 014f 	orr.w	r1, r1, #79	; 0x4f
  40195a:	9100      	str	r1, [sp, #0]
  40195c:	9900      	ldr	r1, [sp, #0]
  40195e:	f421 4100 	bic.w	r1, r1, #32768	; 0x8000
  401962:	9100      	str	r1, [sp, #0]
  401964:	9900      	ldr	r1, [sp, #0]
  401966:	6319      	str	r1, [r3, #48]	; 0x30
  401968:	2300      	movs	r3, #0
  40196a:	9301      	str	r3, [sp, #4]
  40196c:	9b01      	ldr	r3, [sp, #4]
  40196e:	2b13      	cmp	r3, #19
  401970:	d909      	bls.n	401986 <udd_ep_free+0x4a>
  401972:	4b07      	ldr	r3, [pc, #28]	; (401990 <udd_ep_free+0x54>)
  401974:	1e50      	subs	r0, r2, #1
  401976:	2414      	movs	r4, #20
  401978:	2101      	movs	r1, #1
  40197a:	fb04 3000 	mla	r0, r4, r0, r3
  40197e:	f7ff fa99 	bl	400eb4 <udd_ep_finish_job>
  401982:	b002      	add	sp, #8
  401984:	bd10      	pop	{r4, pc}
  401986:	bf00      	nop
  401988:	9b01      	ldr	r3, [sp, #4]
  40198a:	3301      	adds	r3, #1
  40198c:	e7ed      	b.n	40196a <udd_ep_free+0x2e>
  40198e:	bf00      	nop
  401990:	200002b4 	.word	0x200002b4

00401994 <udd_ep_is_halted>:
  401994:	f000 000f 	and.w	r0, r0, #15
  401998:	2806      	cmp	r0, #6
  40199a:	d813      	bhi.n	4019c4 <udd_ep_is_halted+0x30>
  40199c:	4a0a      	ldr	r2, [pc, #40]	; (4019c8 <udd_ep_is_halted+0x34>)
  40199e:	1e43      	subs	r3, r0, #1
  4019a0:	2114      	movs	r1, #20
  4019a2:	fb01 2303 	mla	r3, r1, r3, r2
  4019a6:	7c5b      	ldrb	r3, [r3, #17]
  4019a8:	069b      	lsls	r3, r3, #26
  4019aa:	d409      	bmi.n	4019c0 <udd_ep_is_halted+0x2c>
  4019ac:	300c      	adds	r0, #12
  4019ae:	4b07      	ldr	r3, [pc, #28]	; (4019cc <udd_ep_is_halted+0x38>)
  4019b0:	f853 3020 	ldr.w	r3, [r3, r0, lsl #2]
  4019b4:	f013 0f28 	tst.w	r3, #40	; 0x28
  4019b8:	bf14      	ite	ne
  4019ba:	2001      	movne	r0, #1
  4019bc:	2000      	moveq	r0, #0
  4019be:	4770      	bx	lr
  4019c0:	2001      	movs	r0, #1
  4019c2:	4770      	bx	lr
  4019c4:	2000      	movs	r0, #0
  4019c6:	4770      	bx	lr
  4019c8:	200002b4 	.word	0x200002b4
  4019cc:	40034000 	.word	0x40034000

004019d0 <udd_ep_set_halt>:
  4019d0:	b513      	push	{r0, r1, r4, lr}
  4019d2:	f000 010f 	and.w	r1, r0, #15
  4019d6:	2906      	cmp	r1, #6
  4019d8:	4604      	mov	r4, r0
  4019da:	d840      	bhi.n	401a5e <udd_ep_set_halt+0x8e>
  4019dc:	f7fe ffce 	bl	40097c <cpu_irq_save>
  4019e0:	0623      	lsls	r3, r4, #24
  4019e2:	d522      	bpl.n	401a2a <udd_ep_set_halt+0x5a>
  4019e4:	4c1f      	ldr	r4, [pc, #124]	; (401a64 <udd_ep_set_halt+0x94>)
  4019e6:	f101 020c 	add.w	r2, r1, #12
  4019ea:	1e4b      	subs	r3, r1, #1
  4019ec:	f854 2022 	ldr.w	r2, [r4, r2, lsl #2]
  4019f0:	4c1d      	ldr	r4, [pc, #116]	; (401a68 <udd_ep_set_halt+0x98>)
  4019f2:	f012 0f10 	tst.w	r2, #16
  4019f6:	d107      	bne.n	401a08 <udd_ep_set_halt+0x38>
  4019f8:	2214      	movs	r2, #20
  4019fa:	fb02 4203 	mla	r2, r2, r3, r4
  4019fe:	7c52      	ldrb	r2, [r2, #17]
  401a00:	f3c2 0281 	ubfx	r2, r2, #2, #2
  401a04:	2a01      	cmp	r2, #1
  401a06:	dd10      	ble.n	401a2a <udd_ep_set_halt+0x5a>
  401a08:	2214      	movs	r2, #20
  401a0a:	fb02 4303 	mla	r3, r2, r3, r4
  401a0e:	7c5a      	ldrb	r2, [r3, #17]
  401a10:	f042 0220 	orr.w	r2, r2, #32
  401a14:	745a      	strb	r2, [r3, #17]
  401a16:	2401      	movs	r4, #1
  401a18:	4b12      	ldr	r3, [pc, #72]	; (401a64 <udd_ep_set_halt+0x94>)
  401a1a:	fa04 f101 	lsl.w	r1, r4, r1
  401a1e:	6119      	str	r1, [r3, #16]
  401a20:	f7ff f938 	bl	400c94 <cpu_irq_restore>
  401a24:	4620      	mov	r0, r4
  401a26:	b002      	add	sp, #8
  401a28:	bd10      	pop	{r4, pc}
  401a2a:	008b      	lsls	r3, r1, #2
  401a2c:	f103 2340 	add.w	r3, r3, #1073758208	; 0x40004000
  401a30:	f503 3340 	add.w	r3, r3, #196608	; 0x30000
  401a34:	6b1a      	ldr	r2, [r3, #48]	; 0x30
  401a36:	9200      	str	r2, [sp, #0]
  401a38:	9a00      	ldr	r2, [sp, #0]
  401a3a:	f042 024f 	orr.w	r2, r2, #79	; 0x4f
  401a3e:	9200      	str	r2, [sp, #0]
  401a40:	9a00      	ldr	r2, [sp, #0]
  401a42:	f042 0220 	orr.w	r2, r2, #32
  401a46:	9200      	str	r2, [sp, #0]
  401a48:	9a00      	ldr	r2, [sp, #0]
  401a4a:	631a      	str	r2, [r3, #48]	; 0x30
  401a4c:	2300      	movs	r3, #0
  401a4e:	9301      	str	r3, [sp, #4]
  401a50:	9b01      	ldr	r3, [sp, #4]
  401a52:	2b13      	cmp	r3, #19
  401a54:	d8df      	bhi.n	401a16 <udd_ep_set_halt+0x46>
  401a56:	bf00      	nop
  401a58:	9b01      	ldr	r3, [sp, #4]
  401a5a:	3301      	adds	r3, #1
  401a5c:	e7f7      	b.n	401a4e <udd_ep_set_halt+0x7e>
  401a5e:	2000      	movs	r0, #0
  401a60:	e7e1      	b.n	401a26 <udd_ep_set_halt+0x56>
  401a62:	bf00      	nop
  401a64:	40034000 	.word	0x40034000
  401a68:	200002b4 	.word	0x200002b4

00401a6c <udd_ep_clear_halt>:
  401a6c:	b57f      	push	{r0, r1, r2, r3, r4, r5, r6, lr}
  401a6e:	f000 050f 	and.w	r5, r0, #15
  401a72:	2d06      	cmp	r5, #6
  401a74:	d853      	bhi.n	401b1e <udd_ep_clear_halt+0xb2>
  401a76:	4a2b      	ldr	r2, [pc, #172]	; (401b24 <udd_ep_clear_halt+0xb8>)
  401a78:	1e6e      	subs	r6, r5, #1
  401a7a:	2314      	movs	r3, #20
  401a7c:	fb03 2306 	mla	r3, r3, r6, r2
  401a80:	7c59      	ldrb	r1, [r3, #17]
  401a82:	f36f 1145 	bfc	r1, #5, #1
  401a86:	7459      	strb	r1, [r3, #17]
  401a88:	00ab      	lsls	r3, r5, #2
  401a8a:	f103 2340 	add.w	r3, r3, #1073758208	; 0x40004000
  401a8e:	f503 3340 	add.w	r3, r3, #196608	; 0x30000
  401a92:	6b19      	ldr	r1, [r3, #48]	; 0x30
  401a94:	0689      	lsls	r1, r1, #26
  401a96:	d402      	bmi.n	401a9e <udd_ep_clear_halt+0x32>
  401a98:	2001      	movs	r0, #1
  401a9a:	b004      	add	sp, #16
  401a9c:	bd70      	pop	{r4, r5, r6, pc}
  401a9e:	6b19      	ldr	r1, [r3, #48]	; 0x30
  401aa0:	9100      	str	r1, [sp, #0]
  401aa2:	9900      	ldr	r1, [sp, #0]
  401aa4:	f041 014f 	orr.w	r1, r1, #79	; 0x4f
  401aa8:	9100      	str	r1, [sp, #0]
  401aaa:	9900      	ldr	r1, [sp, #0]
  401aac:	f021 0120 	bic.w	r1, r1, #32
  401ab0:	9100      	str	r1, [sp, #0]
  401ab2:	9900      	ldr	r1, [sp, #0]
  401ab4:	6319      	str	r1, [r3, #48]	; 0x30
  401ab6:	2100      	movs	r1, #0
  401ab8:	9101      	str	r1, [sp, #4]
  401aba:	9901      	ldr	r1, [sp, #4]
  401abc:	2913      	cmp	r1, #19
  401abe:	d926      	bls.n	401b0e <udd_ep_clear_halt+0xa2>
  401ac0:	4c19      	ldr	r4, [pc, #100]	; (401b28 <udd_ep_clear_halt+0xbc>)
  401ac2:	2001      	movs	r0, #1
  401ac4:	6aa1      	ldr	r1, [r4, #40]	; 0x28
  401ac6:	40a8      	lsls	r0, r5
  401ac8:	4301      	orrs	r1, r0
  401aca:	62a1      	str	r1, [r4, #40]	; 0x28
  401acc:	6aa1      	ldr	r1, [r4, #40]	; 0x28
  401ace:	ea21 0000 	bic.w	r0, r1, r0
  401ad2:	62a0      	str	r0, [r4, #40]	; 0x28
  401ad4:	6b19      	ldr	r1, [r3, #48]	; 0x30
  401ad6:	9102      	str	r1, [sp, #8]
  401ad8:	9902      	ldr	r1, [sp, #8]
  401ada:	f041 014f 	orr.w	r1, r1, #79	; 0x4f
  401ade:	9102      	str	r1, [sp, #8]
  401ae0:	9802      	ldr	r0, [sp, #8]
  401ae2:	f020 0008 	bic.w	r0, r0, #8
  401ae6:	9002      	str	r0, [sp, #8]
  401ae8:	9902      	ldr	r1, [sp, #8]
  401aea:	6319      	str	r1, [r3, #48]	; 0x30
  401aec:	2300      	movs	r3, #0
  401aee:	9303      	str	r3, [sp, #12]
  401af0:	9b03      	ldr	r3, [sp, #12]
  401af2:	2b13      	cmp	r3, #19
  401af4:	d90f      	bls.n	401b16 <udd_ep_clear_halt+0xaa>
  401af6:	2114      	movs	r1, #20
  401af8:	4371      	muls	r1, r6
  401afa:	1853      	adds	r3, r2, r1
  401afc:	7c58      	ldrb	r0, [r3, #17]
  401afe:	06c4      	lsls	r4, r0, #27
  401b00:	d5ca      	bpl.n	401a98 <udd_ep_clear_halt+0x2c>
  401b02:	f36f 1004 	bfc	r0, #4, #1
  401b06:	7458      	strb	r0, [r3, #17]
  401b08:	5853      	ldr	r3, [r2, r1]
  401b0a:	4798      	blx	r3
  401b0c:	e7c4      	b.n	401a98 <udd_ep_clear_halt+0x2c>
  401b0e:	bf00      	nop
  401b10:	9901      	ldr	r1, [sp, #4]
  401b12:	3101      	adds	r1, #1
  401b14:	e7d0      	b.n	401ab8 <udd_ep_clear_halt+0x4c>
  401b16:	bf00      	nop
  401b18:	9b03      	ldr	r3, [sp, #12]
  401b1a:	3301      	adds	r3, #1
  401b1c:	e7e7      	b.n	401aee <udd_ep_clear_halt+0x82>
  401b1e:	2000      	movs	r0, #0
  401b20:	e7bb      	b.n	401a9a <udd_ep_clear_halt+0x2e>
  401b22:	bf00      	nop
  401b24:	200002b4 	.word	0x200002b4
  401b28:	40034000 	.word	0x40034000

00401b2c <udd_ep_run>:
  401b2c:	e92d 4ff0 	stmdb	sp!, {r4, r5, r6, r7, r8, r9, sl, fp, lr}
  401b30:	f000 050f 	and.w	r5, r0, #15
  401b34:	b085      	sub	sp, #20
  401b36:	2d06      	cmp	r5, #6
  401b38:	4681      	mov	r9, r0
  401b3a:	9202      	str	r2, [sp, #8]
  401b3c:	9301      	str	r3, [sp, #4]
  401b3e:	d823      	bhi.n	401b88 <udd_ep_run+0x5c>
  401b40:	00ab      	lsls	r3, r5, #2
  401b42:	f103 2b40 	add.w	fp, r3, #1073758208	; 0x40004000
  401b46:	f50b 3b40 	add.w	fp, fp, #196608	; 0x30000
  401b4a:	f8db 0030 	ldr.w	r0, [fp, #48]	; 0x30
  401b4e:	f410 4000 	ands.w	r0, r0, #32768	; 0x8000
  401b52:	d058      	beq.n	401c06 <udd_ep_run+0xda>
  401b54:	1e6c      	subs	r4, r5, #1
  401b56:	4e2d      	ldr	r6, [pc, #180]	; (401c0c <udd_ep_run+0xe0>)
  401b58:	2714      	movs	r7, #20
  401b5a:	4367      	muls	r7, r4
  401b5c:	eb06 0a07 	add.w	sl, r6, r7
  401b60:	f89a 8011 	ldrb.w	r8, [sl, #17]
  401b64:	f018 0020 	ands.w	r0, r8, #32
  401b68:	d10e      	bne.n	401b88 <udd_ep_run+0x5c>
  401b6a:	f8db 3030 	ldr.w	r3, [fp, #48]	; 0x30
  401b6e:	f013 0820 	ands.w	r8, r3, #32
  401b72:	d148      	bne.n	401c06 <udd_ep_run+0xda>
  401b74:	f7fe ff02 	bl	40097c <cpu_irq_save>
  401b78:	f89a e011 	ldrb.w	lr, [sl, #17]
  401b7c:	f01e 0310 	ands.w	r3, lr, #16
  401b80:	9303      	str	r3, [sp, #12]
  401b82:	d003      	beq.n	401b8c <udd_ep_run+0x60>
  401b84:	f7ff f886 	bl	400c94 <cpu_irq_restore>
  401b88:	2000      	movs	r0, #0
  401b8a:	e03c      	b.n	401c06 <udd_ep_run+0xda>
  401b8c:	f89a e011 	ldrb.w	lr, [sl, #17]
  401b90:	f04e 0e10 	orr.w	lr, lr, #16
  401b94:	f88a e011 	strb.w	lr, [sl, #17]
  401b98:	f7ff f87c 	bl	400c94 <cpu_irq_restore>
  401b9c:	9b02      	ldr	r3, [sp, #8]
  401b9e:	f8ca 3004 	str.w	r3, [sl, #4]
  401ba2:	9b01      	ldr	r3, [sp, #4]
  401ba4:	f8ca 3008 	str.w	r3, [sl, #8]
  401ba8:	9a0e      	ldr	r2, [sp, #56]	; 0x38
  401baa:	9b03      	ldr	r3, [sp, #12]
  401bac:	f8ca 300c 	str.w	r3, [sl, #12]
  401bb0:	51f2      	str	r2, [r6, r7]
  401bb2:	b919      	cbnz	r1, 401bbc <udd_ep_run+0x90>
  401bb4:	9b01      	ldr	r3, [sp, #4]
  401bb6:	fab3 f183 	clz	r1, r3
  401bba:	0949      	lsrs	r1, r1, #5
  401bbc:	2214      	movs	r2, #20
  401bbe:	fb02 6404 	mla	r4, r2, r4, r6
  401bc2:	7c62      	ldrb	r2, [r4, #17]
  401bc4:	f361 1286 	bfi	r2, r1, #6, #1
  401bc8:	f36f 12c7 	bfc	r2, #7, #1
  401bcc:	7462      	strb	r2, [r4, #17]
  401bce:	f7fe fed5 	bl	40097c <cpu_irq_save>
  401bd2:	2101      	movs	r1, #1
  401bd4:	4a0e      	ldr	r2, [pc, #56]	; (401c10 <udd_ep_run+0xe4>)
  401bd6:	4606      	mov	r6, r0
  401bd8:	f019 0f80 	tst.w	r9, #128	; 0x80
  401bdc:	fa01 f005 	lsl.w	r0, r1, r5
  401be0:	6110      	str	r0, [r2, #16]
  401be2:	d00c      	beq.n	401bfe <udd_ep_run+0xd2>
  401be4:	f8db 4030 	ldr.w	r4, [fp, #48]	; 0x30
  401be8:	f014 0411 	ands.w	r4, r4, #17
  401bec:	d107      	bne.n	401bfe <udd_ep_run+0xd2>
  401bee:	4628      	mov	r0, r5
  401bf0:	f7fe ff8e 	bl	400b10 <udd_ep_in_sent>
  401bf4:	b118      	cbz	r0, 401bfe <udd_ep_run+0xd2>
  401bf6:	4621      	mov	r1, r4
  401bf8:	4628      	mov	r0, r5
  401bfa:	f7fe ff89 	bl	400b10 <udd_ep_in_sent>
  401bfe:	4630      	mov	r0, r6
  401c00:	f7ff f848 	bl	400c94 <cpu_irq_restore>
  401c04:	2001      	movs	r0, #1
  401c06:	b005      	add	sp, #20
  401c08:	e8bd 8ff0 	ldmia.w	sp!, {r4, r5, r6, r7, r8, r9, sl, fp, pc}
  401c0c:	200002b4 	.word	0x200002b4
  401c10:	40034000 	.word	0x40034000

00401c14 <udd_ep_abort>:
  401c14:	b5f0      	push	{r4, r5, r6, r7, lr}
  401c16:	f000 040f 	and.w	r4, r0, #15
  401c1a:	2c06      	cmp	r4, #6
  401c1c:	b089      	sub	sp, #36	; 0x24
  401c1e:	4606      	mov	r6, r0
  401c20:	d83d      	bhi.n	401c9e <udd_ep_abort+0x8a>
  401c22:	f7fe feab 	bl	40097c <cpu_irq_save>
  401c26:	2501      	movs	r5, #1
  401c28:	494b      	ldr	r1, [pc, #300]	; (401d58 <udd_ep_abort+0x144>)
  401c2a:	40a5      	lsls	r5, r4
  401c2c:	614d      	str	r5, [r1, #20]
  401c2e:	f7ff f831 	bl	400c94 <cpu_irq_restore>
  401c32:	0630      	lsls	r0, r6, #24
  401c34:	f140 808b 	bpl.w	401d4e <udd_ep_abort+0x13a>
  401c38:	00a3      	lsls	r3, r4, #2
  401c3a:	f103 2340 	add.w	r3, r3, #1073758208	; 0x40004000
  401c3e:	f503 3340 	add.w	r3, r3, #196608	; 0x30000
  401c42:	6b1a      	ldr	r2, [r3, #48]	; 0x30
  401c44:	06d1      	lsls	r1, r2, #27
  401c46:	d42c      	bmi.n	401ca2 <udd_ep_abort+0x8e>
  401c48:	6b1a      	ldr	r2, [r3, #48]	; 0x30
  401c4a:	9206      	str	r2, [sp, #24]
  401c4c:	9a06      	ldr	r2, [sp, #24]
  401c4e:	f042 024f 	orr.w	r2, r2, #79	; 0x4f
  401c52:	9206      	str	r2, [sp, #24]
  401c54:	9a06      	ldr	r2, [sp, #24]
  401c56:	f022 0201 	bic.w	r2, r2, #1
  401c5a:	9206      	str	r2, [sp, #24]
  401c5c:	9a06      	ldr	r2, [sp, #24]
  401c5e:	631a      	str	r2, [r3, #48]	; 0x30
  401c60:	2300      	movs	r3, #0
  401c62:	9307      	str	r3, [sp, #28]
  401c64:	9b07      	ldr	r3, [sp, #28]
  401c66:	2b13      	cmp	r3, #19
  401c68:	d964      	bls.n	401d34 <udd_ep_abort+0x120>
  401c6a:	4a3c      	ldr	r2, [pc, #240]	; (401d5c <udd_ep_abort+0x148>)
  401c6c:	1e63      	subs	r3, r4, #1
  401c6e:	2114      	movs	r1, #20
  401c70:	fb01 2303 	mla	r3, r1, r3, r2
  401c74:	7c5a      	ldrb	r2, [r3, #17]
  401c76:	f36f 0283 	bfc	r2, #2, #2
  401c7a:	745a      	strb	r2, [r3, #17]
  401c7c:	4b36      	ldr	r3, [pc, #216]	; (401d58 <udd_ep_abort+0x144>)
  401c7e:	6a9a      	ldr	r2, [r3, #40]	; 0x28
  401c80:	432a      	orrs	r2, r5
  401c82:	629a      	str	r2, [r3, #40]	; 0x28
  401c84:	6a9a      	ldr	r2, [r3, #40]	; 0x28
  401c86:	ea22 0505 	bic.w	r5, r2, r5
  401c8a:	629d      	str	r5, [r3, #40]	; 0x28
  401c8c:	4b33      	ldr	r3, [pc, #204]	; (401d5c <udd_ep_abort+0x148>)
  401c8e:	1e60      	subs	r0, r4, #1
  401c90:	4622      	mov	r2, r4
  401c92:	2414      	movs	r4, #20
  401c94:	2101      	movs	r1, #1
  401c96:	fb04 3000 	mla	r0, r4, r0, r3
  401c9a:	f7ff f90b 	bl	400eb4 <udd_ep_finish_job>
  401c9e:	b009      	add	sp, #36	; 0x24
  401ca0:	bdf0      	pop	{r4, r5, r6, r7, pc}
  401ca2:	b9a4      	cbnz	r4, 401cce <udd_ep_abort+0xba>
  401ca4:	6b1a      	ldr	r2, [r3, #48]	; 0x30
  401ca6:	9204      	str	r2, [sp, #16]
  401ca8:	9a04      	ldr	r2, [sp, #16]
  401caa:	f042 024f 	orr.w	r2, r2, #79	; 0x4f
  401cae:	9204      	str	r2, [sp, #16]
  401cb0:	9a04      	ldr	r2, [sp, #16]
  401cb2:	f022 0210 	bic.w	r2, r2, #16
  401cb6:	9204      	str	r2, [sp, #16]
  401cb8:	9a04      	ldr	r2, [sp, #16]
  401cba:	631a      	str	r2, [r3, #48]	; 0x30
  401cbc:	2200      	movs	r2, #0
  401cbe:	9205      	str	r2, [sp, #20]
  401cc0:	9a05      	ldr	r2, [sp, #20]
  401cc2:	2a13      	cmp	r2, #19
  401cc4:	d8c0      	bhi.n	401c48 <udd_ep_abort+0x34>
  401cc6:	bf00      	nop
  401cc8:	9a05      	ldr	r2, [sp, #20]
  401cca:	3201      	adds	r2, #1
  401ccc:	e7f7      	b.n	401cbe <udd_ep_abort+0xaa>
  401cce:	2c03      	cmp	r4, #3
  401cd0:	d0e8      	beq.n	401ca4 <udd_ep_abort+0x90>
  401cd2:	6b1a      	ldr	r2, [r3, #48]	; 0x30
  401cd4:	9200      	str	r2, [sp, #0]
  401cd6:	9a00      	ldr	r2, [sp, #0]
  401cd8:	f042 024f 	orr.w	r2, r2, #79	; 0x4f
  401cdc:	9200      	str	r2, [sp, #0]
  401cde:	9a00      	ldr	r2, [sp, #0]
  401ce0:	f022 0210 	bic.w	r2, r2, #16
  401ce4:	9200      	str	r2, [sp, #0]
  401ce6:	9a00      	ldr	r2, [sp, #0]
  401ce8:	631a      	str	r2, [r3, #48]	; 0x30
  401cea:	2200      	movs	r2, #0
  401cec:	9201      	str	r2, [sp, #4]
  401cee:	9a01      	ldr	r2, [sp, #4]
  401cf0:	2a13      	cmp	r2, #19
  401cf2:	d917      	bls.n	401d24 <udd_ep_abort+0x110>
  401cf4:	6b1a      	ldr	r2, [r3, #48]	; 0x30
  401cf6:	f012 0210 	ands.w	r2, r2, #16
  401cfa:	d1fb      	bne.n	401cf4 <udd_ep_abort+0xe0>
  401cfc:	6b19      	ldr	r1, [r3, #48]	; 0x30
  401cfe:	9102      	str	r1, [sp, #8]
  401d00:	9902      	ldr	r1, [sp, #8]
  401d02:	f041 014f 	orr.w	r1, r1, #79	; 0x4f
  401d06:	9102      	str	r1, [sp, #8]
  401d08:	9902      	ldr	r1, [sp, #8]
  401d0a:	f041 0110 	orr.w	r1, r1, #16
  401d0e:	9102      	str	r1, [sp, #8]
  401d10:	9902      	ldr	r1, [sp, #8]
  401d12:	6319      	str	r1, [r3, #48]	; 0x30
  401d14:	9203      	str	r2, [sp, #12]
  401d16:	9a03      	ldr	r2, [sp, #12]
  401d18:	2a13      	cmp	r2, #19
  401d1a:	d907      	bls.n	401d2c <udd_ep_abort+0x118>
  401d1c:	6b1a      	ldr	r2, [r3, #48]	; 0x30
  401d1e:	06d2      	lsls	r2, r2, #27
  401d20:	d5fc      	bpl.n	401d1c <udd_ep_abort+0x108>
  401d22:	e7bf      	b.n	401ca4 <udd_ep_abort+0x90>
  401d24:	bf00      	nop
  401d26:	9a01      	ldr	r2, [sp, #4]
  401d28:	3201      	adds	r2, #1
  401d2a:	e7df      	b.n	401cec <udd_ep_abort+0xd8>
  401d2c:	bf00      	nop
  401d2e:	9a03      	ldr	r2, [sp, #12]
  401d30:	3201      	adds	r2, #1
  401d32:	e7ef      	b.n	401d14 <udd_ep_abort+0x100>
  401d34:	bf00      	nop
  401d36:	9b07      	ldr	r3, [sp, #28]
  401d38:	3301      	adds	r3, #1
  401d3a:	e792      	b.n	401c62 <udd_ep_abort+0x4e>
  401d3c:	4620      	mov	r0, r4
  401d3e:	f7fe fe7f 	bl	400a40 <udd_ep_ack_out_received>
  401d42:	f856 3027 	ldr.w	r3, [r6, r7, lsl #2]
  401d46:	f013 0f42 	tst.w	r3, #66	; 0x42
  401d4a:	d1f7      	bne.n	401d3c <udd_ep_abort+0x128>
  401d4c:	e796      	b.n	401c7c <udd_ep_abort+0x68>
  401d4e:	460e      	mov	r6, r1
  401d50:	f104 070c 	add.w	r7, r4, #12
  401d54:	e7f5      	b.n	401d42 <udd_ep_abort+0x12e>
  401d56:	bf00      	nop
  401d58:	40034000 	.word	0x40034000
  401d5c:	200002b4 	.word	0x200002b4

00401d60 <wdt_get_timeout_value>:
  401d60:	4b08      	ldr	r3, [pc, #32]	; (401d84 <wdt_get_timeout_value+0x24>)
  401d62:	fbb3 f1f1 	udiv	r1, r3, r1
  401d66:	4281      	cmp	r1, r0
  401d68:	d808      	bhi.n	401d7c <wdt_get_timeout_value+0x1c>
  401d6a:	ebc1 3301 	rsb	r3, r1, r1, lsl #12
  401d6e:	4283      	cmp	r3, r0
  401d70:	d304      	bcc.n	401d7c <wdt_get_timeout_value+0x1c>
  401d72:	fbb0 f0f1 	udiv	r0, r0, r1
  401d76:	f3c0 000b 	ubfx	r0, r0, #0, #12
  401d7a:	4770      	bx	lr
  401d7c:	f64f 70ff 	movw	r0, #65535	; 0xffff
  401d80:	4770      	bx	lr
  401d82:	bf00      	nop
  401d84:	07a12000 	.word	0x07a12000

00401d88 <wdt_init>:
  401d88:	b510      	push	{r4, lr}
  401d8a:	4c04      	ldr	r4, [pc, #16]	; (401d9c <wdt_init+0x14>)
  401d8c:	f3c2 020b 	ubfx	r2, r2, #0, #12
  401d90:	ea04 4303 	and.w	r3, r4, r3, lsl #16
  401d94:	4313      	orrs	r3, r2
  401d96:	430b      	orrs	r3, r1
  401d98:	6043      	str	r3, [r0, #4]
  401d9a:	bd10      	pop	{r4, pc}
  401d9c:	0fff0000 	.word	0x0fff0000

00401da0 <wdt_restart>:
  401da0:	4b02      	ldr	r3, [pc, #8]	; (401dac <wdt_restart+0xc>)
  401da2:	4298      	cmp	r0, r3
  401da4:	bf04      	itt	eq
  401da6:	4b02      	ldreq	r3, [pc, #8]	; (401db0 <wdt_restart+0x10>)
  401da8:	6003      	streq	r3, [r0, #0]
  401daa:	4770      	bx	lr
  401dac:	400e1450 	.word	0x400e1450
  401db0:	a5000001 	.word	0xa5000001

00401db4 <flash_init>:
  401db4:	b508      	push	{r3, lr}
  401db6:	460a      	mov	r2, r1
  401db8:	4601      	mov	r1, r0
  401dba:	4802      	ldr	r0, [pc, #8]	; (401dc4 <flash_init+0x10>)
  401dbc:	f7fe fca2 	bl	400704 <efc_init>
  401dc0:	2000      	movs	r0, #0
  401dc2:	bd08      	pop	{r3, pc}
  401dc4:	400e0a00 	.word	0x400e0a00

00401dc8 <flash_is_gpnvm_set>:
  401dc8:	2801      	cmp	r0, #1
  401dca:	b510      	push	{r4, lr}
  401dcc:	4604      	mov	r4, r0
  401dce:	d80f      	bhi.n	401df0 <flash_is_gpnvm_set+0x28>
  401dd0:	2200      	movs	r2, #0
  401dd2:	210d      	movs	r1, #13
  401dd4:	4808      	ldr	r0, [pc, #32]	; (401df8 <flash_is_gpnvm_set+0x30>)
  401dd6:	f7fe fca1 	bl	40071c <efc_perform_command>
  401dda:	b958      	cbnz	r0, 401df4 <flash_is_gpnvm_set+0x2c>
  401ddc:	4806      	ldr	r0, [pc, #24]	; (401df8 <flash_is_gpnvm_set+0x30>)
  401dde:	f7fe fc8f 	bl	400700 <efc_get_result>
  401de2:	2301      	movs	r3, #1
  401de4:	40a3      	lsls	r3, r4
  401de6:	4203      	tst	r3, r0
  401de8:	bf14      	ite	ne
  401dea:	2001      	movne	r0, #1
  401dec:	2000      	moveq	r0, #0
  401dee:	bd10      	pop	{r4, pc}
  401df0:	2011      	movs	r0, #17
  401df2:	bd10      	pop	{r4, pc}
  401df4:	2010      	movs	r0, #16
  401df6:	bd10      	pop	{r4, pc}
  401df8:	400e0a00 	.word	0x400e0a00

00401dfc <flash_clear_gpnvm>:
  401dfc:	2801      	cmp	r0, #1
  401dfe:	b510      	push	{r4, lr}
  401e00:	4604      	mov	r4, r0
  401e02:	d80d      	bhi.n	401e20 <flash_clear_gpnvm+0x24>
  401e04:	f7ff ffe0 	bl	401dc8 <flash_is_gpnvm_set>
  401e08:	b908      	cbnz	r0, 401e0e <flash_clear_gpnvm+0x12>
  401e0a:	2000      	movs	r0, #0
  401e0c:	bd10      	pop	{r4, pc}
  401e0e:	4622      	mov	r2, r4
  401e10:	210c      	movs	r1, #12
  401e12:	4804      	ldr	r0, [pc, #16]	; (401e24 <flash_clear_gpnvm+0x28>)
  401e14:	f7fe fc82 	bl	40071c <efc_perform_command>
  401e18:	2800      	cmp	r0, #0
  401e1a:	d0f6      	beq.n	401e0a <flash_clear_gpnvm+0xe>
  401e1c:	2010      	movs	r0, #16
  401e1e:	bd10      	pop	{r4, pc}
  401e20:	2011      	movs	r0, #17
  401e22:	bd10      	pop	{r4, pc}
  401e24:	400e0a00 	.word	0x400e0a00

00401e28 <flash_read_unique_id>:
  401e28:	b570      	push	{r4, r5, r6, lr}
  401e2a:	b086      	sub	sp, #24
  401e2c:	2304      	movs	r3, #4
  401e2e:	ad02      	add	r5, sp, #8
  401e30:	4606      	mov	r6, r0
  401e32:	460c      	mov	r4, r1
  401e34:	9300      	str	r3, [sp, #0]
  401e36:	220f      	movs	r2, #15
  401e38:	462b      	mov	r3, r5
  401e3a:	210e      	movs	r1, #14
  401e3c:	4809      	ldr	r0, [pc, #36]	; (401e64 <flash_read_unique_id+0x3c>)
  401e3e:	f001 fe77 	bl	403b30 <__efc_perform_read_sequence_veneer>
  401e42:	b968      	cbnz	r0, 401e60 <flash_read_unique_id+0x38>
  401e44:	2c04      	cmp	r4, #4
  401e46:	bf28      	it	cs
  401e48:	2404      	movcs	r4, #4
  401e4a:	4603      	mov	r3, r0
  401e4c:	42a3      	cmp	r3, r4
  401e4e:	d101      	bne.n	401e54 <flash_read_unique_id+0x2c>
  401e50:	b006      	add	sp, #24
  401e52:	bd70      	pop	{r4, r5, r6, pc}
  401e54:	f855 2023 	ldr.w	r2, [r5, r3, lsl #2]
  401e58:	f846 2023 	str.w	r2, [r6, r3, lsl #2]
  401e5c:	3301      	adds	r3, #1
  401e5e:	e7f5      	b.n	401e4c <flash_read_unique_id+0x24>
  401e60:	2010      	movs	r0, #16
  401e62:	e7f5      	b.n	401e50 <flash_read_unique_id+0x28>
  401e64:	400e0a00 	.word	0x400e0a00

00401e68 <flash_read_user_signature>:
  401e68:	b507      	push	{r0, r1, r2, lr}
  401e6a:	2980      	cmp	r1, #128	; 0x80
  401e6c:	bf28      	it	cs
  401e6e:	2180      	movcs	r1, #128	; 0x80
  401e70:	9100      	str	r1, [sp, #0]
  401e72:	4603      	mov	r3, r0
  401e74:	2215      	movs	r2, #21
  401e76:	2114      	movs	r1, #20
  401e78:	4804      	ldr	r0, [pc, #16]	; (401e8c <flash_read_user_signature+0x24>)
  401e7a:	f001 fe59 	bl	403b30 <__efc_perform_read_sequence_veneer>
  401e7e:	2800      	cmp	r0, #0
  401e80:	bf14      	ite	ne
  401e82:	2010      	movne	r0, #16
  401e84:	2000      	moveq	r0, #0
  401e86:	b003      	add	sp, #12
  401e88:	f85d fb04 	ldr.w	pc, [sp], #4
  401e8c:	400e0a00 	.word	0x400e0a00

00401e90 <flash_write_user_signature>:
  401e90:	2980      	cmp	r1, #128	; 0x80
  401e92:	b510      	push	{r4, lr}
  401e94:	d818      	bhi.n	401ec8 <flash_write_user_signature+0x38>
  401e96:	008a      	lsls	r2, r1, #2
  401e98:	4601      	mov	r1, r0
  401e9a:	480c      	ldr	r0, [pc, #48]	; (401ecc <flash_write_user_signature+0x3c>)
  401e9c:	4c0c      	ldr	r4, [pc, #48]	; (401ed0 <flash_write_user_signature+0x40>)
  401e9e:	f001 f96b 	bl	403178 <memcpy>
  401ea2:	4b0c      	ldr	r3, [pc, #48]	; (401ed4 <flash_write_user_signature+0x44>)
  401ea4:	4809      	ldr	r0, [pc, #36]	; (401ecc <flash_write_user_signature+0x3c>)
  401ea6:	4a0c      	ldr	r2, [pc, #48]	; (401ed8 <flash_write_user_signature+0x48>)
  401ea8:	1919      	adds	r1, r3, r4
  401eaa:	5841      	ldr	r1, [r0, r1]
  401eac:	f843 1f04 	str.w	r1, [r3, #4]!
  401eb0:	4293      	cmp	r3, r2
  401eb2:	d1f9      	bne.n	401ea8 <flash_write_user_signature+0x18>
  401eb4:	2200      	movs	r2, #0
  401eb6:	2112      	movs	r1, #18
  401eb8:	4808      	ldr	r0, [pc, #32]	; (401edc <flash_write_user_signature+0x4c>)
  401eba:	f7fe fc2f 	bl	40071c <efc_perform_command>
  401ebe:	2800      	cmp	r0, #0
  401ec0:	bf14      	ite	ne
  401ec2:	2010      	movne	r0, #16
  401ec4:	2000      	moveq	r0, #0
  401ec6:	bd10      	pop	{r4, pc}
  401ec8:	2011      	movs	r0, #17
  401eca:	bd10      	pop	{r4, pc}
  401ecc:	2000032c 	.word	0x2000032c
  401ed0:	ffc00004 	.word	0xffc00004
  401ed4:	003ffffc 	.word	0x003ffffc
  401ed8:	004001fc 	.word	0x004001fc
  401edc:	400e0a00 	.word	0x400e0a00

00401ee0 <flash_erase_user_signature>:
  401ee0:	2200      	movs	r2, #0
  401ee2:	2113      	movs	r1, #19
  401ee4:	4801      	ldr	r0, [pc, #4]	; (401eec <flash_erase_user_signature+0xc>)
  401ee6:	f7fe bc19 	b.w	40071c <efc_perform_command>
  401eea:	bf00      	nop
  401eec:	400e0a00 	.word	0x400e0a00

00401ef0 <osc_enable>:
  401ef0:	3801      	subs	r0, #1
  401ef2:	2806      	cmp	r0, #6
  401ef4:	d818      	bhi.n	401f28 <osc_enable+0x38>
  401ef6:	e8df f000 	tbb	[pc, r0]
  401efa:	0704      	.short	0x0704
  401efc:	100e0c09 	.word	0x100e0c09
  401f00:	14          	.byte	0x14
  401f01:	00          	.byte	0x00
  401f02:	2000      	movs	r0, #0
  401f04:	f000 b958 	b.w	4021b8 <pmc_switch_sclk_to_32kxtal>
  401f08:	2001      	movs	r0, #1
  401f0a:	e7fb      	b.n	401f04 <osc_enable+0x14>
  401f0c:	2000      	movs	r0, #0
  401f0e:	f000 b963 	b.w	4021d8 <pmc_switch_mainck_to_fastrc>
  401f12:	2010      	movs	r0, #16
  401f14:	e7fb      	b.n	401f0e <osc_enable+0x1e>
  401f16:	2020      	movs	r0, #32
  401f18:	e7f9      	b.n	401f0e <osc_enable+0x1e>
  401f1a:	213e      	movs	r1, #62	; 0x3e
  401f1c:	2000      	movs	r0, #0
  401f1e:	f000 b97d 	b.w	40221c <pmc_switch_mainck_to_xtal>
  401f22:	213e      	movs	r1, #62	; 0x3e
  401f24:	2001      	movs	r0, #1
  401f26:	e7fa      	b.n	401f1e <osc_enable+0x2e>
  401f28:	4770      	bx	lr

00401f2a <osc_wait_ready.constprop.4>:
  401f2a:	b508      	push	{r3, lr}
  401f2c:	f000 f99a 	bl	402264 <pmc_osc_is_ready_mainck>
  401f30:	2800      	cmp	r0, #0
  401f32:	d0fb      	beq.n	401f2c <osc_wait_ready.constprop.4+0x2>
  401f34:	bd08      	pop	{r3, pc}
	...

00401f38 <sysclk_enable_usb>:
  401f38:	b508      	push	{r3, lr}
  401f3a:	2006      	movs	r0, #6
  401f3c:	f7ff ffd8 	bl	401ef0 <osc_enable>
  401f40:	f7ff fff3 	bl	401f2a <osc_wait_ready.constprop.4>
  401f44:	f000 f9a6 	bl	402294 <pmc_disable_pllbck>
  401f48:	4b06      	ldr	r3, [pc, #24]	; (401f64 <sysclk_enable_usb+0x2c>)
  401f4a:	4a07      	ldr	r2, [pc, #28]	; (401f68 <sysclk_enable_usb+0x30>)
  401f4c:	62da      	str	r2, [r3, #44]	; 0x2c
  401f4e:	f000 f9a7 	bl	4022a0 <pmc_is_locked_pllbck>
  401f52:	2800      	cmp	r0, #0
  401f54:	d0fb      	beq.n	401f4e <sysclk_enable_usb+0x16>
  401f56:	2000      	movs	r0, #0
  401f58:	f000 f9fe 	bl	402358 <pmc_switch_udpck_to_pllbck>
  401f5c:	e8bd 4008 	ldmia.w	sp!, {r3, lr}
  401f60:	f000 ba04 	b.w	40236c <pmc_enable_udpck>
  401f64:	400e0400 	.word	0x400e0400
  401f68:	00023f01 	.word	0x00023f01

00401f6c <sysclk_init>:
  401f6c:	b508      	push	{r3, lr}
  401f6e:	480d      	ldr	r0, [pc, #52]	; (401fa4 <sysclk_init+0x38>)
  401f70:	f000 fc24 	bl	4027bc <system_init_flash>
  401f74:	2006      	movs	r0, #6
  401f76:	f7ff ffbb 	bl	401ef0 <osc_enable>
  401f7a:	f7ff ffd6 	bl	401f2a <osc_wait_ready.constprop.4>
  401f7e:	f000 f979 	bl	402274 <pmc_disable_pllack>
  401f82:	4b09      	ldr	r3, [pc, #36]	; (401fa8 <sysclk_init+0x3c>)
  401f84:	4a09      	ldr	r2, [pc, #36]	; (401fac <sysclk_init+0x40>)
  401f86:	629a      	str	r2, [r3, #40]	; 0x28
  401f88:	f000 f97c 	bl	402284 <pmc_is_locked_pllack>
  401f8c:	2800      	cmp	r0, #0
  401f8e:	d0fb      	beq.n	401f88 <sysclk_init+0x1c>
  401f90:	2000      	movs	r0, #0
  401f92:	f000 f8ef 	bl	402174 <pmc_switch_mck_to_pllack>
  401f96:	f000 fbad 	bl	4026f4 <SystemCoreClockUpdate>
  401f9a:	4805      	ldr	r0, [pc, #20]	; (401fb0 <sysclk_init+0x44>)
  401f9c:	e8bd 4008 	ldmia.w	sp!, {r3, lr}
  401fa0:	f000 bc0c 	b.w	4027bc <system_init_flash>
  401fa4:	07270e00 	.word	0x07270e00
  401fa8:	400e0400 	.word	0x400e0400
  401fac:	20063f01 	.word	0x20063f01
  401fb0:	06acfc00 	.word	0x06acfc00

00401fb4 <dacc_reset>:
  401fb4:	2301      	movs	r3, #1
  401fb6:	6003      	str	r3, [r0, #0]
  401fb8:	4770      	bx	lr

00401fba <dacc_set_transfer_mode>:
  401fba:	6843      	ldr	r3, [r0, #4]
  401fbc:	f443 7380 	orr.w	r3, r3, #256	; 0x100
  401fc0:	6043      	str	r3, [r0, #4]
  401fc2:	6843      	ldr	r3, [r0, #4]
  401fc4:	b121      	cbz	r1, 401fd0 <dacc_set_transfer_mode+0x16>
  401fc6:	f043 0310 	orr.w	r3, r3, #16
  401fca:	6043      	str	r3, [r0, #4]
  401fcc:	2000      	movs	r0, #0
  401fce:	4770      	bx	lr
  401fd0:	f023 0310 	bic.w	r3, r3, #16
  401fd4:	e7f9      	b.n	401fca <dacc_set_transfer_mode+0x10>

00401fd6 <dacc_get_interrupt_status>:
  401fd6:	6b00      	ldr	r0, [r0, #48]	; 0x30
  401fd8:	4770      	bx	lr

00401fda <dacc_write_conversion_data>:
  401fda:	6201      	str	r1, [r0, #32]
  401fdc:	4770      	bx	lr

00401fde <dacc_enable_flexible_selection>:
  401fde:	6843      	ldr	r3, [r0, #4]
  401fe0:	f443 1380 	orr.w	r3, r3, #1048576	; 0x100000
  401fe4:	6043      	str	r3, [r0, #4]
  401fe6:	4770      	bx	lr

00401fe8 <dacc_enable_channel>:
  401fe8:	2901      	cmp	r1, #1
  401fea:	f04f 0301 	mov.w	r3, #1
  401fee:	bf9d      	ittte	ls
  401ff0:	408b      	lslls	r3, r1
  401ff2:	6103      	strls	r3, [r0, #16]
  401ff4:	2000      	movls	r0, #0
  401ff6:	4618      	movhi	r0, r3
  401ff8:	4770      	bx	lr

00401ffa <pio_set_peripheral>:
  401ffa:	f1b1 5fc0 	cmp.w	r1, #402653184	; 0x18000000
  401ffe:	b510      	push	{r4, lr}
  402000:	6442      	str	r2, [r0, #68]	; 0x44
  402002:	d02e      	beq.n	402062 <pio_set_peripheral+0x68>
  402004:	d807      	bhi.n	402016 <pio_set_peripheral+0x1c>
  402006:	f1b1 6f00 	cmp.w	r1, #134217728	; 0x8000000
  40200a:	d014      	beq.n	402036 <pio_set_peripheral+0x3c>
  40200c:	f1b1 5f80 	cmp.w	r1, #268435456	; 0x10000000
  402010:	d01e      	beq.n	402050 <pio_set_peripheral+0x56>
  402012:	b939      	cbnz	r1, 402024 <pio_set_peripheral+0x2a>
  402014:	bd10      	pop	{r4, pc}
  402016:	f1b1 5f20 	cmp.w	r1, #671088640	; 0x28000000
  40201a:	d00b      	beq.n	402034 <pio_set_peripheral+0x3a>
  40201c:	d804      	bhi.n	402028 <pio_set_peripheral+0x2e>
  40201e:	f1b1 5f00 	cmp.w	r1, #536870912	; 0x20000000
  402022:	d027      	beq.n	402074 <pio_set_peripheral+0x7a>
  402024:	6042      	str	r2, [r0, #4]
  402026:	e005      	b.n	402034 <pio_set_peripheral+0x3a>
  402028:	f1b1 5f40 	cmp.w	r1, #805306368	; 0x30000000
  40202c:	d002      	beq.n	402034 <pio_set_peripheral+0x3a>
  40202e:	f1b1 5f60 	cmp.w	r1, #939524096	; 0x38000000
  402032:	d1f7      	bne.n	402024 <pio_set_peripheral+0x2a>
  402034:	bd10      	pop	{r4, pc}
  402036:	6f01      	ldr	r1, [r0, #112]	; 0x70
  402038:	6f04      	ldr	r4, [r0, #112]	; 0x70
  40203a:	43d3      	mvns	r3, r2
  40203c:	4021      	ands	r1, r4
  40203e:	4019      	ands	r1, r3
  402040:	6701      	str	r1, [r0, #112]	; 0x70
  402042:	461c      	mov	r4, r3
  402044:	6f43      	ldr	r3, [r0, #116]	; 0x74
  402046:	6f41      	ldr	r1, [r0, #116]	; 0x74
  402048:	400b      	ands	r3, r1
  40204a:	4023      	ands	r3, r4
  40204c:	6743      	str	r3, [r0, #116]	; 0x74
  40204e:	e7e9      	b.n	402024 <pio_set_peripheral+0x2a>
  402050:	6f03      	ldr	r3, [r0, #112]	; 0x70
  402052:	4313      	orrs	r3, r2
  402054:	6703      	str	r3, [r0, #112]	; 0x70
  402056:	6f43      	ldr	r3, [r0, #116]	; 0x74
  402058:	6f41      	ldr	r1, [r0, #116]	; 0x74
  40205a:	400b      	ands	r3, r1
  40205c:	ea23 0302 	bic.w	r3, r3, r2
  402060:	e7f4      	b.n	40204c <pio_set_peripheral+0x52>
  402062:	6f03      	ldr	r3, [r0, #112]	; 0x70
  402064:	6f01      	ldr	r1, [r0, #112]	; 0x70
  402066:	400b      	ands	r3, r1
  402068:	ea23 0302 	bic.w	r3, r3, r2
  40206c:	6703      	str	r3, [r0, #112]	; 0x70
  40206e:	6f43      	ldr	r3, [r0, #116]	; 0x74
  402070:	4313      	orrs	r3, r2
  402072:	e7eb      	b.n	40204c <pio_set_peripheral+0x52>
  402074:	6f03      	ldr	r3, [r0, #112]	; 0x70
  402076:	4313      	orrs	r3, r2
  402078:	e7f8      	b.n	40206c <pio_set_peripheral+0x72>

0040207a <pio_set_input>:
  40207a:	07d3      	lsls	r3, r2, #31
  40207c:	6441      	str	r1, [r0, #68]	; 0x44
  40207e:	bf4c      	ite	mi
  402080:	6641      	strmi	r1, [r0, #100]	; 0x64
  402082:	6601      	strpl	r1, [r0, #96]	; 0x60
  402084:	f012 0f0a 	tst.w	r2, #10
  402088:	bf14      	ite	ne
  40208a:	6201      	strne	r1, [r0, #32]
  40208c:	6241      	streq	r1, [r0, #36]	; 0x24
  40208e:	0793      	lsls	r3, r2, #30
  402090:	d504      	bpl.n	40209c <pio_set_input+0x22>
  402092:	f8c0 1080 	str.w	r1, [r0, #128]	; 0x80
  402096:	6141      	str	r1, [r0, #20]
  402098:	6001      	str	r1, [r0, #0]
  40209a:	4770      	bx	lr
  40209c:	0713      	lsls	r3, r2, #28
  40209e:	bf48      	it	mi
  4020a0:	f8c0 1084 	strmi.w	r1, [r0, #132]	; 0x84
  4020a4:	e7f7      	b.n	402096 <pio_set_input+0x1c>

004020a6 <pio_set_output>:
  4020a6:	b510      	push	{r4, lr}
  4020a8:	9c02      	ldr	r4, [sp, #8]
  4020aa:	6441      	str	r1, [r0, #68]	; 0x44
  4020ac:	b13c      	cbz	r4, 4020be <pio_set_output+0x18>
  4020ae:	6641      	str	r1, [r0, #100]	; 0x64
  4020b0:	b13b      	cbz	r3, 4020c2 <pio_set_output+0x1c>
  4020b2:	6501      	str	r1, [r0, #80]	; 0x50
  4020b4:	b13a      	cbz	r2, 4020c6 <pio_set_output+0x20>
  4020b6:	6301      	str	r1, [r0, #48]	; 0x30
  4020b8:	6101      	str	r1, [r0, #16]
  4020ba:	6001      	str	r1, [r0, #0]
  4020bc:	bd10      	pop	{r4, pc}
  4020be:	6601      	str	r1, [r0, #96]	; 0x60
  4020c0:	e7f6      	b.n	4020b0 <pio_set_output+0xa>
  4020c2:	6541      	str	r1, [r0, #84]	; 0x54
  4020c4:	e7f6      	b.n	4020b4 <pio_set_output+0xe>
  4020c6:	6341      	str	r1, [r0, #52]	; 0x34
  4020c8:	e7f6      	b.n	4020b8 <pio_set_output+0x12>

004020ca <pio_get_interrupt_status>:
  4020ca:	6cc0      	ldr	r0, [r0, #76]	; 0x4c
  4020cc:	4770      	bx	lr

004020ce <pio_get_interrupt_mask>:
  4020ce:	6c80      	ldr	r0, [r0, #72]	; 0x48
  4020d0:	4770      	bx	lr

004020d2 <pio_configure_pin>:
  4020d2:	b5f7      	push	{r0, r1, r2, r4, r5, r6, r7, lr}
  4020d4:	0945      	lsrs	r5, r0, #5
  4020d6:	460e      	mov	r6, r1
  4020d8:	f505 1500 	add.w	r5, r5, #2097152	; 0x200000
  4020dc:	f001 41f0 	and.w	r1, r1, #2013265920	; 0x78000000
  4020e0:	f205 7507 	addw	r5, r5, #1799	; 0x707
  4020e4:	f1b1 5f00 	cmp.w	r1, #536870912	; 0x20000000
  4020e8:	ea4f 2545 	mov.w	r5, r5, lsl #9
  4020ec:	d009      	beq.n	402102 <pio_configure_pin+0x30>
  4020ee:	d818      	bhi.n	402122 <pio_configure_pin+0x50>
  4020f0:	f1b1 5f80 	cmp.w	r1, #268435456	; 0x10000000
  4020f4:	d005      	beq.n	402102 <pio_configure_pin+0x30>
  4020f6:	f1b1 5fc0 	cmp.w	r1, #402653184	; 0x18000000
  4020fa:	d002      	beq.n	402102 <pio_configure_pin+0x30>
  4020fc:	f1b1 6f00 	cmp.w	r1, #134217728	; 0x8000000
  402100:	d118      	bne.n	402134 <pio_configure_pin+0x62>
  402102:	f000 041f 	and.w	r4, r0, #31
  402106:	2701      	movs	r7, #1
  402108:	fa07 f404 	lsl.w	r4, r7, r4
  40210c:	4622      	mov	r2, r4
  40210e:	4628      	mov	r0, r5
  402110:	f7ff ff73 	bl	401ffa <pio_set_peripheral>
  402114:	07f6      	lsls	r6, r6, #31
  402116:	bf4c      	ite	mi
  402118:	666c      	strmi	r4, [r5, #100]	; 0x64
  40211a:	662c      	strpl	r4, [r5, #96]	; 0x60
  40211c:	4638      	mov	r0, r7
  40211e:	b003      	add	sp, #12
  402120:	bdf0      	pop	{r4, r5, r6, r7, pc}
  402122:	f1b1 5f40 	cmp.w	r1, #805306368	; 0x30000000
  402126:	d011      	beq.n	40214c <pio_configure_pin+0x7a>
  402128:	f1b1 5f60 	cmp.w	r1, #939524096	; 0x38000000
  40212c:	d00e      	beq.n	40214c <pio_configure_pin+0x7a>
  40212e:	f1b1 5f20 	cmp.w	r1, #671088640	; 0x28000000
  402132:	d001      	beq.n	402138 <pio_configure_pin+0x66>
  402134:	2700      	movs	r7, #0
  402136:	e7f1      	b.n	40211c <pio_configure_pin+0x4a>
  402138:	f000 011f 	and.w	r1, r0, #31
  40213c:	2701      	movs	r7, #1
  40213e:	4632      	mov	r2, r6
  402140:	fa07 f101 	lsl.w	r1, r7, r1
  402144:	4628      	mov	r0, r5
  402146:	f7ff ff98 	bl	40207a <pio_set_input>
  40214a:	e7e7      	b.n	40211c <pio_configure_pin+0x4a>
  40214c:	f006 5260 	and.w	r2, r6, #939524096	; 0x38000000
  402150:	2701      	movs	r7, #1
  402152:	f000 011f 	and.w	r1, r0, #31
  402156:	f102 4048 	add.w	r0, r2, #3355443200	; 0xc8000000
  40215a:	ea06 0307 	and.w	r3, r6, r7
  40215e:	4242      	negs	r2, r0
  402160:	9300      	str	r3, [sp, #0]
  402162:	4142      	adcs	r2, r0
  402164:	f3c6 0380 	ubfx	r3, r6, #2, #1
  402168:	fa07 f101 	lsl.w	r1, r7, r1
  40216c:	4628      	mov	r0, r5
  40216e:	f7ff ff9a 	bl	4020a6 <pio_set_output>
  402172:	e7d3      	b.n	40211c <pio_configure_pin+0x4a>

00402174 <pmc_switch_mck_to_pllack>:
  402174:	4b0f      	ldr	r3, [pc, #60]	; (4021b4 <pmc_switch_mck_to_pllack+0x40>)
  402176:	6b1a      	ldr	r2, [r3, #48]	; 0x30
  402178:	f022 0270 	bic.w	r2, r2, #112	; 0x70
  40217c:	4310      	orrs	r0, r2
  40217e:	6318      	str	r0, [r3, #48]	; 0x30
  402180:	f640 0201 	movw	r2, #2049	; 0x801
  402184:	6e99      	ldr	r1, [r3, #104]	; 0x68
  402186:	0708      	lsls	r0, r1, #28
  402188:	d50c      	bpl.n	4021a4 <pmc_switch_mck_to_pllack+0x30>
  40218a:	6b1a      	ldr	r2, [r3, #48]	; 0x30
  40218c:	f022 0203 	bic.w	r2, r2, #3
  402190:	f042 0202 	orr.w	r2, r2, #2
  402194:	631a      	str	r2, [r3, #48]	; 0x30
  402196:	f640 0201 	movw	r2, #2049	; 0x801
  40219a:	6e99      	ldr	r1, [r3, #104]	; 0x68
  40219c:	0709      	lsls	r1, r1, #28
  40219e:	d505      	bpl.n	4021ac <pmc_switch_mck_to_pllack+0x38>
  4021a0:	2000      	movs	r0, #0
  4021a2:	4770      	bx	lr
  4021a4:	3a01      	subs	r2, #1
  4021a6:	d1ed      	bne.n	402184 <pmc_switch_mck_to_pllack+0x10>
  4021a8:	2001      	movs	r0, #1
  4021aa:	4770      	bx	lr
  4021ac:	3a01      	subs	r2, #1
  4021ae:	d1f4      	bne.n	40219a <pmc_switch_mck_to_pllack+0x26>
  4021b0:	e7fa      	b.n	4021a8 <pmc_switch_mck_to_pllack+0x34>
  4021b2:	bf00      	nop
  4021b4:	400e0400 	.word	0x400e0400

004021b8 <pmc_switch_sclk_to_32kxtal>:
  4021b8:	4a05      	ldr	r2, [pc, #20]	; (4021d0 <pmc_switch_sclk_to_32kxtal+0x18>)
  4021ba:	2801      	cmp	r0, #1
  4021bc:	bf01      	itttt	eq
  4021be:	6893      	ldreq	r3, [r2, #8]
  4021c0:	f043 4325 	orreq.w	r3, r3, #2768240640	; 0xa5000000
  4021c4:	f443 1380 	orreq.w	r3, r3, #1048576	; 0x100000
  4021c8:	6093      	streq	r3, [r2, #8]
  4021ca:	4b02      	ldr	r3, [pc, #8]	; (4021d4 <pmc_switch_sclk_to_32kxtal+0x1c>)
  4021cc:	6013      	str	r3, [r2, #0]
  4021ce:	4770      	bx	lr
  4021d0:	400e1410 	.word	0x400e1410
  4021d4:	a5000008 	.word	0xa5000008

004021d8 <pmc_switch_mainck_to_fastrc>:
  4021d8:	4b0f      	ldr	r3, [pc, #60]	; (402218 <pmc_switch_mainck_to_fastrc+0x40>)
  4021da:	6a19      	ldr	r1, [r3, #32]
  4021dc:	f441 115c 	orr.w	r1, r1, #3604480	; 0x370000
  4021e0:	f041 0108 	orr.w	r1, r1, #8
  4021e4:	6219      	str	r1, [r3, #32]
  4021e6:	6e9a      	ldr	r2, [r3, #104]	; 0x68
  4021e8:	0391      	lsls	r1, r2, #14
  4021ea:	d5fc      	bpl.n	4021e6 <pmc_switch_mainck_to_fastrc+0xe>
  4021ec:	6a1a      	ldr	r2, [r3, #32]
  4021ee:	f422 125c 	bic.w	r2, r2, #3604480	; 0x370000
  4021f2:	f022 0270 	bic.w	r2, r2, #112	; 0x70
  4021f6:	f442 125c 	orr.w	r2, r2, #3604480	; 0x370000
  4021fa:	4310      	orrs	r0, r2
  4021fc:	6218      	str	r0, [r3, #32]
  4021fe:	6e9a      	ldr	r2, [r3, #104]	; 0x68
  402200:	0392      	lsls	r2, r2, #14
  402202:	d5fc      	bpl.n	4021fe <pmc_switch_mainck_to_fastrc+0x26>
  402204:	6a1a      	ldr	r2, [r3, #32]
  402206:	f022 729b 	bic.w	r2, r2, #20316160	; 0x1360000
  40220a:	f422 3280 	bic.w	r2, r2, #65536	; 0x10000
  40220e:	f442 125c 	orr.w	r2, r2, #3604480	; 0x370000
  402212:	621a      	str	r2, [r3, #32]
  402214:	4770      	bx	lr
  402216:	bf00      	nop
  402218:	400e0400 	.word	0x400e0400

0040221c <pmc_switch_mainck_to_xtal>:
  40221c:	4a0e      	ldr	r2, [pc, #56]	; (402258 <pmc_switch_mainck_to_xtal+0x3c>)
  40221e:	6a13      	ldr	r3, [r2, #32]
  402220:	b128      	cbz	r0, 40222e <pmc_switch_mainck_to_xtal+0x12>
  402222:	490e      	ldr	r1, [pc, #56]	; (40225c <pmc_switch_mainck_to_xtal+0x40>)
  402224:	4019      	ands	r1, r3
  402226:	4b0e      	ldr	r3, [pc, #56]	; (402260 <pmc_switch_mainck_to_xtal+0x44>)
  402228:	430b      	orrs	r3, r1
  40222a:	6213      	str	r3, [r2, #32]
  40222c:	4770      	bx	lr
  40222e:	f423 135c 	bic.w	r3, r3, #3604480	; 0x370000
  402232:	f023 0303 	bic.w	r3, r3, #3
  402236:	0209      	lsls	r1, r1, #8
  402238:	f443 135c 	orr.w	r3, r3, #3604480	; 0x370000
  40223c:	b289      	uxth	r1, r1
  40223e:	f043 0301 	orr.w	r3, r3, #1
  402242:	430b      	orrs	r3, r1
  402244:	6213      	str	r3, [r2, #32]
  402246:	6e93      	ldr	r3, [r2, #104]	; 0x68
  402248:	07db      	lsls	r3, r3, #31
  40224a:	d5fc      	bpl.n	402246 <pmc_switch_mainck_to_xtal+0x2a>
  40224c:	6a13      	ldr	r3, [r2, #32]
  40224e:	f043 739b 	orr.w	r3, r3, #20316160	; 0x1360000
  402252:	f443 3380 	orr.w	r3, r3, #65536	; 0x10000
  402256:	e7e8      	b.n	40222a <pmc_switch_mainck_to_xtal+0xe>
  402258:	400e0400 	.word	0x400e0400
  40225c:	fec8fffc 	.word	0xfec8fffc
  402260:	01370002 	.word	0x01370002

00402264 <pmc_osc_is_ready_mainck>:
  402264:	4b02      	ldr	r3, [pc, #8]	; (402270 <pmc_osc_is_ready_mainck+0xc>)
  402266:	6e98      	ldr	r0, [r3, #104]	; 0x68
  402268:	f400 3080 	and.w	r0, r0, #65536	; 0x10000
  40226c:	4770      	bx	lr
  40226e:	bf00      	nop
  402270:	400e0400 	.word	0x400e0400

00402274 <pmc_disable_pllack>:
  402274:	4b02      	ldr	r3, [pc, #8]	; (402280 <pmc_disable_pllack+0xc>)
  402276:	f04f 5200 	mov.w	r2, #536870912	; 0x20000000
  40227a:	629a      	str	r2, [r3, #40]	; 0x28
  40227c:	4770      	bx	lr
  40227e:	bf00      	nop
  402280:	400e0400 	.word	0x400e0400

00402284 <pmc_is_locked_pllack>:
  402284:	4b02      	ldr	r3, [pc, #8]	; (402290 <pmc_is_locked_pllack+0xc>)
  402286:	6e98      	ldr	r0, [r3, #104]	; 0x68
  402288:	f000 0002 	and.w	r0, r0, #2
  40228c:	4770      	bx	lr
  40228e:	bf00      	nop
  402290:	400e0400 	.word	0x400e0400

00402294 <pmc_disable_pllbck>:
  402294:	4b01      	ldr	r3, [pc, #4]	; (40229c <pmc_disable_pllbck+0x8>)
  402296:	2200      	movs	r2, #0
  402298:	62da      	str	r2, [r3, #44]	; 0x2c
  40229a:	4770      	bx	lr
  40229c:	400e0400 	.word	0x400e0400

004022a0 <pmc_is_locked_pllbck>:
  4022a0:	4b02      	ldr	r3, [pc, #8]	; (4022ac <pmc_is_locked_pllbck+0xc>)
  4022a2:	6e98      	ldr	r0, [r3, #104]	; 0x68
  4022a4:	f000 0004 	and.w	r0, r0, #4
  4022a8:	4770      	bx	lr
  4022aa:	bf00      	nop
  4022ac:	400e0400 	.word	0x400e0400

004022b0 <pmc_enable_periph_clk>:
  4022b0:	2822      	cmp	r0, #34	; 0x22
  4022b2:	d818      	bhi.n	4022e6 <pmc_enable_periph_clk+0x36>
  4022b4:	281f      	cmp	r0, #31
  4022b6:	4a0d      	ldr	r2, [pc, #52]	; (4022ec <pmc_enable_periph_clk+0x3c>)
  4022b8:	f04f 0301 	mov.w	r3, #1
  4022bc:	d808      	bhi.n	4022d0 <pmc_enable_periph_clk+0x20>
  4022be:	6991      	ldr	r1, [r2, #24]
  4022c0:	fa03 f000 	lsl.w	r0, r3, r0
  4022c4:	ea30 0301 	bics.w	r3, r0, r1
  4022c8:	d000      	beq.n	4022cc <pmc_enable_periph_clk+0x1c>
  4022ca:	6110      	str	r0, [r2, #16]
  4022cc:	2000      	movs	r0, #0
  4022ce:	4770      	bx	lr
  4022d0:	3820      	subs	r0, #32
  4022d2:	f8d2 1108 	ldr.w	r1, [r2, #264]	; 0x108
  4022d6:	fa03 f000 	lsl.w	r0, r3, r0
  4022da:	ea30 0301 	bics.w	r3, r0, r1
  4022de:	d0f5      	beq.n	4022cc <pmc_enable_periph_clk+0x1c>
  4022e0:	f8c2 0100 	str.w	r0, [r2, #256]	; 0x100
  4022e4:	e7f2      	b.n	4022cc <pmc_enable_periph_clk+0x1c>
  4022e6:	2001      	movs	r0, #1
  4022e8:	4770      	bx	lr
  4022ea:	bf00      	nop
  4022ec:	400e0400 	.word	0x400e0400

004022f0 <pmc_disable_periph_clk>:
  4022f0:	2822      	cmp	r0, #34	; 0x22
  4022f2:	d818      	bhi.n	402326 <pmc_disable_periph_clk+0x36>
  4022f4:	281f      	cmp	r0, #31
  4022f6:	4a0d      	ldr	r2, [pc, #52]	; (40232c <pmc_disable_periph_clk+0x3c>)
  4022f8:	f04f 0301 	mov.w	r3, #1
  4022fc:	d808      	bhi.n	402310 <pmc_disable_periph_clk+0x20>
  4022fe:	6991      	ldr	r1, [r2, #24]
  402300:	fa03 f000 	lsl.w	r0, r3, r0
  402304:	ea30 0301 	bics.w	r3, r0, r1
  402308:	d100      	bne.n	40230c <pmc_disable_periph_clk+0x1c>
  40230a:	6150      	str	r0, [r2, #20]
  40230c:	2000      	movs	r0, #0
  40230e:	4770      	bx	lr
  402310:	3820      	subs	r0, #32
  402312:	f8d2 1108 	ldr.w	r1, [r2, #264]	; 0x108
  402316:	fa03 f000 	lsl.w	r0, r3, r0
  40231a:	ea30 0301 	bics.w	r3, r0, r1
  40231e:	d1f5      	bne.n	40230c <pmc_disable_periph_clk+0x1c>
  402320:	f8c2 0104 	str.w	r0, [r2, #260]	; 0x104
  402324:	e7f2      	b.n	40230c <pmc_disable_periph_clk+0x1c>
  402326:	2001      	movs	r0, #1
  402328:	4770      	bx	lr
  40232a:	bf00      	nop
  40232c:	400e0400 	.word	0x400e0400

00402330 <pmc_disable_all_periph_clk>:
  402330:	4b08      	ldr	r3, [pc, #32]	; (402354 <pmc_disable_all_periph_clk+0x24>)
  402332:	f06f 0203 	mvn.w	r2, #3
  402336:	615a      	str	r2, [r3, #20]
  402338:	699a      	ldr	r2, [r3, #24]
  40233a:	f032 0203 	bics.w	r2, r2, #3
  40233e:	d1fb      	bne.n	402338 <pmc_disable_all_periph_clk+0x8>
  402340:	f04f 32ff 	mov.w	r2, #4294967295
  402344:	f8c3 2104 	str.w	r2, [r3, #260]	; 0x104
  402348:	f8d3 2108 	ldr.w	r2, [r3, #264]	; 0x108
  40234c:	2a00      	cmp	r2, #0
  40234e:	d1fb      	bne.n	402348 <pmc_disable_all_periph_clk+0x18>
  402350:	4770      	bx	lr
  402352:	bf00      	nop
  402354:	400e0400 	.word	0x400e0400

00402358 <pmc_switch_udpck_to_pllbck>:
  402358:	0200      	lsls	r0, r0, #8
  40235a:	f400 6070 	and.w	r0, r0, #3840	; 0xf00
  40235e:	4b02      	ldr	r3, [pc, #8]	; (402368 <pmc_switch_udpck_to_pllbck+0x10>)
  402360:	f040 0001 	orr.w	r0, r0, #1
  402364:	6398      	str	r0, [r3, #56]	; 0x38
  402366:	4770      	bx	lr
  402368:	400e0400 	.word	0x400e0400

0040236c <pmc_enable_udpck>:
  40236c:	4b01      	ldr	r3, [pc, #4]	; (402374 <pmc_enable_udpck+0x8>)
  40236e:	2280      	movs	r2, #128	; 0x80
  402370:	601a      	str	r2, [r3, #0]
  402372:	4770      	bx	lr
  402374:	400e0400 	.word	0x400e0400

00402378 <pmc_set_fast_startup_input>:
  402378:	4b03      	ldr	r3, [pc, #12]	; (402388 <pmc_set_fast_startup_input+0x10>)
  40237a:	6f1a      	ldr	r2, [r3, #112]	; 0x70
  40237c:	f3c0 0012 	ubfx	r0, r0, #0, #19
  402380:	4310      	orrs	r0, r2
  402382:	6718      	str	r0, [r3, #112]	; 0x70
  402384:	4770      	bx	lr
  402386:	bf00      	nop
  402388:	400e0400 	.word	0x400e0400

0040238c <pmc_set_flash_in_wait_mode>:
  40238c:	4b01      	ldr	r3, [pc, #4]	; (402394 <pmc_set_flash_in_wait_mode+0x8>)
  40238e:	6018      	str	r0, [r3, #0]
  402390:	4770      	bx	lr
  402392:	bf00      	nop
  402394:	2000014c 	.word	0x2000014c

00402398 <pmc_enable_waitmode>:
  402398:	4b0f      	ldr	r3, [pc, #60]	; (4023d8 <pmc_enable_waitmode+0x40>)
  40239a:	4910      	ldr	r1, [pc, #64]	; (4023dc <pmc_enable_waitmode+0x44>)
  40239c:	6f1a      	ldr	r2, [r3, #112]	; 0x70
  40239e:	6809      	ldr	r1, [r1, #0]
  4023a0:	f422 02c0 	bic.w	r2, r2, #6291456	; 0x600000
  4023a4:	430a      	orrs	r2, r1
  4023a6:	671a      	str	r2, [r3, #112]	; 0x70
  4023a8:	6a1a      	ldr	r2, [r3, #32]
  4023aa:	f442 125c 	orr.w	r2, r2, #3604480	; 0x370000
  4023ae:	f042 0204 	orr.w	r2, r2, #4
  4023b2:	621a      	str	r2, [r3, #32]
  4023b4:	6e9a      	ldr	r2, [r3, #104]	; 0x68
  4023b6:	0711      	lsls	r1, r2, #28
  4023b8:	d5fc      	bpl.n	4023b4 <pmc_enable_waitmode+0x1c>
  4023ba:	f44f 72fa 	mov.w	r2, #500	; 0x1f4
  4023be:	bf00      	nop
  4023c0:	3a01      	subs	r2, #1
  4023c2:	d1fc      	bne.n	4023be <pmc_enable_waitmode+0x26>
  4023c4:	6a1a      	ldr	r2, [r3, #32]
  4023c6:	0712      	lsls	r2, r2, #28
  4023c8:	d5fc      	bpl.n	4023c4 <pmc_enable_waitmode+0x2c>
  4023ca:	6f1a      	ldr	r2, [r3, #112]	; 0x70
  4023cc:	f422 02c0 	bic.w	r2, r2, #6291456	; 0x600000
  4023d0:	f442 0280 	orr.w	r2, r2, #4194304	; 0x400000
  4023d4:	671a      	str	r2, [r3, #112]	; 0x70
  4023d6:	4770      	bx	lr
  4023d8:	400e0400 	.word	0x400e0400
  4023dc:	2000014c 	.word	0x2000014c

004023e0 <pmc_sleep>:
  4023e0:	e92d 4ff0 	stmdb	sp!, {r4, r5, r6, r7, r8, r9, sl, fp, lr}
  4023e4:	1e43      	subs	r3, r0, #1
  4023e6:	b085      	sub	sp, #20
  4023e8:	4683      	mov	fp, r0
  4023ea:	2b04      	cmp	r3, #4
  4023ec:	f200 80bb 	bhi.w	402566 <pmc_sleep+0x186>
  4023f0:	e8df f013 	tbh	[pc, r3, lsl #1]
  4023f4:	00050005 	.word	0x00050005
  4023f8:	00120012 	.word	0x00120012
  4023fc:	00ed      	.short	0x00ed
  4023fe:	4a78      	ldr	r2, [pc, #480]	; (4025e0 <pmc_sleep+0x200>)
  402400:	6913      	ldr	r3, [r2, #16]
  402402:	f023 0304 	bic.w	r3, r3, #4
  402406:	6113      	str	r3, [r2, #16]
  402408:	4b76      	ldr	r3, [pc, #472]	; (4025e4 <pmc_sleep+0x204>)
  40240a:	2201      	movs	r2, #1
  40240c:	701a      	strb	r2, [r3, #0]
  40240e:	f3bf 8f5f 	dmb	sy
  402412:	b662      	cpsie	i
  402414:	bf30      	wfi
  402416:	e0a6      	b.n	402566 <pmc_sleep+0x186>
  402418:	2803      	cmp	r0, #3
  40241a:	bf0c      	ite	eq
  40241c:	2000      	moveq	r0, #0
  40241e:	f44f 1000 	movne.w	r0, #2097152	; 0x200000
  402422:	f7ff ffb3 	bl	40238c <pmc_set_flash_in_wait_mode>
  402426:	b672      	cpsid	i
  402428:	f3bf 8f5f 	dmb	sy
  40242c:	4d6d      	ldr	r5, [pc, #436]	; (4025e4 <pmc_sleep+0x204>)
  40242e:	f8df 81d8 	ldr.w	r8, [pc, #472]	; 402608 <pmc_sleep+0x228>
  402432:	4c6d      	ldr	r4, [pc, #436]	; (4025e8 <pmc_sleep+0x208>)
  402434:	4e6d      	ldr	r6, [pc, #436]	; (4025ec <pmc_sleep+0x20c>)
  402436:	2300      	movs	r3, #0
  402438:	702b      	strb	r3, [r5, #0]
  40243a:	2301      	movs	r3, #1
  40243c:	f888 3000 	strb.w	r3, [r8]
  402440:	6a27      	ldr	r7, [r4, #32]
  402442:	f8d4 9030 	ldr.w	r9, [r4, #48]	; 0x30
  402446:	6833      	ldr	r3, [r6, #0]
  402448:	9301      	str	r3, [sp, #4]
  40244a:	6aa3      	ldr	r3, [r4, #40]	; 0x28
  40244c:	9302      	str	r3, [sp, #8]
  40244e:	6ae3      	ldr	r3, [r4, #44]	; 0x2c
  402450:	9303      	str	r3, [sp, #12]
  402452:	f009 0a03 	and.w	sl, r9, #3
  402456:	f447 135c 	orr.w	r3, r7, #3604480	; 0x370000
  40245a:	f043 0308 	orr.w	r3, r3, #8
  40245e:	f1ba 0f01 	cmp.w	sl, #1
  402462:	6223      	str	r3, [r4, #32]
  402464:	f240 8082 	bls.w	40256c <pmc_sleep+0x18c>
  402468:	f029 0303 	bic.w	r3, r9, #3
  40246c:	f043 0301 	orr.w	r3, r3, #1
  402470:	6323      	str	r3, [r4, #48]	; 0x30
  402472:	6ea2      	ldr	r2, [r4, #104]	; 0x68
  402474:	0712      	lsls	r2, r2, #28
  402476:	d5fc      	bpl.n	402472 <pmc_sleep+0x92>
  402478:	f013 0f70 	tst.w	r3, #112	; 0x70
  40247c:	d178      	bne.n	402570 <pmc_sleep+0x190>
  40247e:	f7ff fef9 	bl	402274 <pmc_disable_pllack>
  402482:	f7ff ff07 	bl	402294 <pmc_disable_pllbck>
  402486:	6ea3      	ldr	r3, [r4, #104]	; 0x68
  402488:	0399      	lsls	r1, r3, #14
  40248a:	d5fc      	bpl.n	402486 <pmc_sleep+0xa6>
  40248c:	6a23      	ldr	r3, [r4, #32]
  40248e:	f023 739b 	bic.w	r3, r3, #20316160	; 0x1360000
  402492:	f423 3380 	bic.w	r3, r3, #65536	; 0x10000
  402496:	f443 135c 	orr.w	r3, r3, #3604480	; 0x370000
  40249a:	6223      	str	r3, [r4, #32]
  40249c:	6ea3      	ldr	r3, [r4, #104]	; 0x68
  40249e:	03da      	lsls	r2, r3, #15
  4024a0:	d5fc      	bpl.n	40249c <pmc_sleep+0xbc>
  4024a2:	9b01      	ldr	r3, [sp, #4]
  4024a4:	f1bb 0f04 	cmp.w	fp, #4
  4024a8:	f423 6370 	bic.w	r3, r3, #3840	; 0xf00
  4024ac:	6033      	str	r3, [r6, #0]
  4024ae:	d107      	bne.n	4024c0 <pmc_sleep+0xe0>
  4024b0:	6a23      	ldr	r3, [r4, #32]
  4024b2:	f423 135c 	bic.w	r3, r3, #3604480	; 0x370000
  4024b6:	f023 0301 	bic.w	r3, r3, #1
  4024ba:	f443 135c 	orr.w	r3, r3, #3604480	; 0x370000
  4024be:	6223      	str	r3, [r4, #32]
  4024c0:	2301      	movs	r3, #1
  4024c2:	702b      	strb	r3, [r5, #0]
  4024c4:	f3bf 8f5f 	dmb	sy
  4024c8:	b662      	cpsie	i
  4024ca:	f7ff ff65 	bl	402398 <pmc_enable_waitmode>
  4024ce:	b672      	cpsid	i
  4024d0:	f3bf 8f5f 	dmb	sy
  4024d4:	2300      	movs	r3, #0
  4024d6:	702b      	strb	r3, [r5, #0]
  4024d8:	07bb      	lsls	r3, r7, #30
  4024da:	d550      	bpl.n	40257e <pmc_sleep+0x19e>
  4024dc:	6a23      	ldr	r3, [r4, #32]
  4024de:	4844      	ldr	r0, [pc, #272]	; (4025f0 <pmc_sleep+0x210>)
  4024e0:	4018      	ands	r0, r3
  4024e2:	4b44      	ldr	r3, [pc, #272]	; (4025f4 <pmc_sleep+0x214>)
  4024e4:	4303      	orrs	r3, r0
  4024e6:	6223      	str	r3, [r4, #32]
  4024e8:	6a23      	ldr	r3, [r4, #32]
  4024ea:	f423 135c 	bic.w	r3, r3, #3604480	; 0x370000
  4024ee:	f023 0378 	bic.w	r3, r3, #120	; 0x78
  4024f2:	f443 135c 	orr.w	r3, r3, #3604480	; 0x370000
  4024f6:	6223      	str	r3, [r4, #32]
  4024f8:	9b02      	ldr	r3, [sp, #8]
  4024fa:	483f      	ldr	r0, [pc, #252]	; (4025f8 <pmc_sleep+0x218>)
  4024fc:	4003      	ands	r3, r0
  4024fe:	bf1e      	ittt	ne
  402500:	9b02      	ldrne	r3, [sp, #8]
  402502:	f043 5700 	orrne.w	r7, r3, #536870912	; 0x20000000
  402506:	62a7      	strne	r7, [r4, #40]	; 0x28
  402508:	9a03      	ldr	r2, [sp, #12]
  40250a:	bf18      	it	ne
  40250c:	2302      	movne	r3, #2
  40250e:	4202      	tst	r2, r0
  402510:	bf1c      	itt	ne
  402512:	62e2      	strne	r2, [r4, #44]	; 0x2c
  402514:	f043 0304 	orrne.w	r3, r3, #4
  402518:	f1ba 0f02 	cmp.w	sl, #2
  40251c:	d04f      	beq.n	4025be <pmc_sleep+0x1de>
  40251e:	f1ba 0f03 	cmp.w	sl, #3
  402522:	d050      	beq.n	4025c6 <pmc_sleep+0x1e6>
  402524:	6b21      	ldr	r1, [r4, #48]	; 0x30
  402526:	f009 0070 	and.w	r0, r9, #112	; 0x70
  40252a:	f021 0170 	bic.w	r1, r1, #112	; 0x70
  40252e:	4301      	orrs	r1, r0
  402530:	6321      	str	r1, [r4, #48]	; 0x30
  402532:	6ea1      	ldr	r1, [r4, #104]	; 0x68
  402534:	0709      	lsls	r1, r1, #28
  402536:	d5fc      	bpl.n	402532 <pmc_sleep+0x152>
  402538:	9a01      	ldr	r2, [sp, #4]
  40253a:	6032      	str	r2, [r6, #0]
  40253c:	f8c4 9030 	str.w	r9, [r4, #48]	; 0x30
  402540:	6ea2      	ldr	r2, [r4, #104]	; 0x68
  402542:	0712      	lsls	r2, r2, #28
  402544:	d5fc      	bpl.n	402540 <pmc_sleep+0x160>
  402546:	6ea2      	ldr	r2, [r4, #104]	; 0x68
  402548:	421a      	tst	r2, r3
  40254a:	d0fc      	beq.n	402546 <pmc_sleep+0x166>
  40254c:	4c2b      	ldr	r4, [pc, #172]	; (4025fc <pmc_sleep+0x21c>)
  40254e:	6823      	ldr	r3, [r4, #0]
  402550:	2600      	movs	r6, #0
  402552:	f888 6000 	strb.w	r6, [r8]
  402556:	b10b      	cbz	r3, 40255c <pmc_sleep+0x17c>
  402558:	4798      	blx	r3
  40255a:	6026      	str	r6, [r4, #0]
  40255c:	2301      	movs	r3, #1
  40255e:	702b      	strb	r3, [r5, #0]
  402560:	f3bf 8f5f 	dmb	sy
  402564:	b662      	cpsie	i
  402566:	b005      	add	sp, #20
  402568:	e8bd 8ff0 	ldmia.w	sp!, {r4, r5, r6, r7, r8, r9, sl, fp, pc}
  40256c:	464b      	mov	r3, r9
  40256e:	e783      	b.n	402478 <pmc_sleep+0x98>
  402570:	f023 0370 	bic.w	r3, r3, #112	; 0x70
  402574:	6323      	str	r3, [r4, #48]	; 0x30
  402576:	6ea3      	ldr	r3, [r4, #104]	; 0x68
  402578:	0718      	lsls	r0, r3, #28
  40257a:	d5fc      	bpl.n	402576 <pmc_sleep+0x196>
  40257c:	e77f      	b.n	40247e <pmc_sleep+0x9e>
  40257e:	07ff      	lsls	r7, r7, #31
  402580:	d5ba      	bpl.n	4024f8 <pmc_sleep+0x118>
  402582:	6a23      	ldr	r3, [r4, #32]
  402584:	07d8      	lsls	r0, r3, #31
  402586:	d50c      	bpl.n	4025a2 <pmc_sleep+0x1c2>
  402588:	6a23      	ldr	r3, [r4, #32]
  40258a:	01d9      	lsls	r1, r3, #7
  40258c:	d4ac      	bmi.n	4024e8 <pmc_sleep+0x108>
  40258e:	6a23      	ldr	r3, [r4, #32]
  402590:	f043 739b 	orr.w	r3, r3, #20316160	; 0x1360000
  402594:	f443 3380 	orr.w	r3, r3, #65536	; 0x10000
  402598:	6223      	str	r3, [r4, #32]
  40259a:	6ea3      	ldr	r3, [r4, #104]	; 0x68
  40259c:	03db      	lsls	r3, r3, #15
  40259e:	d5fc      	bpl.n	40259a <pmc_sleep+0x1ba>
  4025a0:	e7a2      	b.n	4024e8 <pmc_sleep+0x108>
  4025a2:	6a23      	ldr	r3, [r4, #32]
  4025a4:	f423 135c 	bic.w	r3, r3, #3604480	; 0x370000
  4025a8:	f023 0303 	bic.w	r3, r3, #3
  4025ac:	f443 135c 	orr.w	r3, r3, #3604480	; 0x370000
  4025b0:	f043 0301 	orr.w	r3, r3, #1
  4025b4:	6223      	str	r3, [r4, #32]
  4025b6:	6ea3      	ldr	r3, [r4, #104]	; 0x68
  4025b8:	07da      	lsls	r2, r3, #31
  4025ba:	d5fc      	bpl.n	4025b6 <pmc_sleep+0x1d6>
  4025bc:	e7e4      	b.n	402588 <pmc_sleep+0x1a8>
  4025be:	6ea1      	ldr	r1, [r4, #104]	; 0x68
  4025c0:	078f      	lsls	r7, r1, #30
  4025c2:	d5fc      	bpl.n	4025be <pmc_sleep+0x1de>
  4025c4:	e7ae      	b.n	402524 <pmc_sleep+0x144>
  4025c6:	6ea1      	ldr	r1, [r4, #104]	; 0x68
  4025c8:	0748      	lsls	r0, r1, #29
  4025ca:	d5fc      	bpl.n	4025c6 <pmc_sleep+0x1e6>
  4025cc:	e7aa      	b.n	402524 <pmc_sleep+0x144>
  4025ce:	4a04      	ldr	r2, [pc, #16]	; (4025e0 <pmc_sleep+0x200>)
  4025d0:	6913      	ldr	r3, [r2, #16]
  4025d2:	f043 0304 	orr.w	r3, r3, #4
  4025d6:	6113      	str	r3, [r2, #16]
  4025d8:	4b09      	ldr	r3, [pc, #36]	; (402600 <pmc_sleep+0x220>)
  4025da:	4a0a      	ldr	r2, [pc, #40]	; (402604 <pmc_sleep+0x224>)
  4025dc:	601a      	str	r2, [r3, #0]
  4025de:	e713      	b.n	402408 <pmc_sleep+0x28>
  4025e0:	e000ed00 	.word	0xe000ed00
  4025e4:	20000150 	.word	0x20000150
  4025e8:	400e0400 	.word	0x400e0400
  4025ec:	400e0a00 	.word	0x400e0a00
  4025f0:	fec8fffc 	.word	0xfec8fffc
  4025f4:	01370002 	.word	0x01370002
  4025f8:	07ff0000 	.word	0x07ff0000
  4025fc:	20000530 	.word	0x20000530
  402600:	400e1410 	.word	0x400e1410
  402604:	a5000004 	.word	0xa5000004
  402608:	2000052c 	.word	0x2000052c

0040260c <pmc_is_wakeup_clocks_restored>:
  40260c:	4b02      	ldr	r3, [pc, #8]	; (402618 <pmc_is_wakeup_clocks_restored+0xc>)
  40260e:	7818      	ldrb	r0, [r3, #0]
  402610:	f080 0001 	eor.w	r0, r0, #1
  402614:	4770      	bx	lr
  402616:	bf00      	nop
  402618:	2000052c 	.word	0x2000052c

0040261c <cpu_irq_enter_critical>:
  40261c:	4b08      	ldr	r3, [pc, #32]	; (402640 <cpu_irq_enter_critical+0x24>)
  40261e:	6819      	ldr	r1, [r3, #0]
  402620:	b951      	cbnz	r1, 402638 <cpu_irq_enter_critical+0x1c>
  402622:	f3ef 8010 	mrs	r0, PRIMASK
  402626:	4a07      	ldr	r2, [pc, #28]	; (402644 <cpu_irq_enter_critical+0x28>)
  402628:	b928      	cbnz	r0, 402636 <cpu_irq_enter_critical+0x1a>
  40262a:	b672      	cpsid	i
  40262c:	f3bf 8f5f 	dmb	sy
  402630:	4905      	ldr	r1, [pc, #20]	; (402648 <cpu_irq_enter_critical+0x2c>)
  402632:	7008      	strb	r0, [r1, #0]
  402634:	2101      	movs	r1, #1
  402636:	7011      	strb	r1, [r2, #0]
  402638:	681a      	ldr	r2, [r3, #0]
  40263a:	3201      	adds	r2, #1
  40263c:	601a      	str	r2, [r3, #0]
  40263e:	4770      	bx	lr
  402640:	20000534 	.word	0x20000534
  402644:	20000538 	.word	0x20000538
  402648:	20000150 	.word	0x20000150

0040264c <cpu_irq_leave_critical>:
  40264c:	4b07      	ldr	r3, [pc, #28]	; (40266c <cpu_irq_leave_critical+0x20>)
  40264e:	681a      	ldr	r2, [r3, #0]
  402650:	3a01      	subs	r2, #1
  402652:	601a      	str	r2, [r3, #0]
  402654:	681b      	ldr	r3, [r3, #0]
  402656:	b943      	cbnz	r3, 40266a <cpu_irq_leave_critical+0x1e>
  402658:	4b05      	ldr	r3, [pc, #20]	; (402670 <cpu_irq_leave_critical+0x24>)
  40265a:	781b      	ldrb	r3, [r3, #0]
  40265c:	b12b      	cbz	r3, 40266a <cpu_irq_leave_critical+0x1e>
  40265e:	4b05      	ldr	r3, [pc, #20]	; (402674 <cpu_irq_leave_critical+0x28>)
  402660:	2201      	movs	r2, #1
  402662:	701a      	strb	r2, [r3, #0]
  402664:	f3bf 8f5f 	dmb	sy
  402668:	b662      	cpsie	i
  40266a:	4770      	bx	lr
  40266c:	20000534 	.word	0x20000534
  402670:	20000538 	.word	0x20000538
  402674:	20000150 	.word	0x20000150

00402678 <Dummy_Handler>:
  402678:	e7fe      	b.n	402678 <Dummy_Handler>
	...

0040267c <Reset_Handler>:
  40267c:	b508      	push	{r3, lr}
  40267e:	4a16      	ldr	r2, [pc, #88]	; (4026d8 <Reset_Handler+0x5c>)
  402680:	4b16      	ldr	r3, [pc, #88]	; (4026dc <Reset_Handler+0x60>)
  402682:	4293      	cmp	r3, r2
  402684:	d916      	bls.n	4026b4 <Reset_Handler+0x38>
  402686:	4916      	ldr	r1, [pc, #88]	; (4026e0 <Reset_Handler+0x64>)
  402688:	3b04      	subs	r3, #4
  40268a:	428a      	cmp	r2, r1
  40268c:	d30d      	bcc.n	4026aa <Reset_Handler+0x2e>
  40268e:	bf00      	nop
  402690:	4b14      	ldr	r3, [pc, #80]	; (4026e4 <Reset_Handler+0x68>)
  402692:	4a15      	ldr	r2, [pc, #84]	; (4026e8 <Reset_Handler+0x6c>)
  402694:	2100      	movs	r1, #0
  402696:	4293      	cmp	r3, r2
  402698:	d31a      	bcc.n	4026d0 <Reset_Handler+0x54>
  40269a:	4b14      	ldr	r3, [pc, #80]	; (4026ec <Reset_Handler+0x70>)
  40269c:	4a14      	ldr	r2, [pc, #80]	; (4026f0 <Reset_Handler+0x74>)
  40269e:	609a      	str	r2, [r3, #8]
  4026a0:	f000 fd3e 	bl	403120 <__libc_init_array>
  4026a4:	f000 fc72 	bl	402f8c <main>
  4026a8:	e7fe      	b.n	4026a8 <Reset_Handler+0x2c>
  4026aa:	f853 0f04 	ldr.w	r0, [r3, #4]!
  4026ae:	f842 0b04 	str.w	r0, [r2], #4
  4026b2:	e7ea      	b.n	40268a <Reset_Handler+0xe>
  4026b4:	d2eb      	bcs.n	40268e <Reset_Handler+0x12>
  4026b6:	480a      	ldr	r0, [pc, #40]	; (4026e0 <Reset_Handler+0x64>)
  4026b8:	1f19      	subs	r1, r3, #4
  4026ba:	1a82      	subs	r2, r0, r2
  4026bc:	440a      	add	r2, r1
  4026be:	f1c3 0304 	rsb	r3, r3, #4
  4026c2:	1a80      	subs	r0, r0, r2
  4026c4:	42da      	cmn	r2, r3
  4026c6:	d0e2      	beq.n	40268e <Reset_Handler+0x12>
  4026c8:	f852 1904 	ldr.w	r1, [r2], #-4
  4026cc:	5011      	str	r1, [r2, r0]
  4026ce:	e7f9      	b.n	4026c4 <Reset_Handler+0x48>
  4026d0:	f843 1b04 	str.w	r1, [r3], #4
  4026d4:	e7df      	b.n	402696 <Reset_Handler+0x1a>
  4026d6:	bf00      	nop
  4026d8:	20000000 	.word	0x20000000
  4026dc:	00403b3c 	.word	0x00403b3c
  4026e0:	20000204 	.word	0x20000204
  4026e4:	20000204 	.word	0x20000204
  4026e8:	20000590 	.word	0x20000590
  4026ec:	e000ed00 	.word	0xe000ed00
  4026f0:	00400000 	.word	0x00400000

004026f4 <SystemCoreClockUpdate>:
  4026f4:	b510      	push	{r4, lr}
  4026f6:	4a2b      	ldr	r2, [pc, #172]	; (4027a4 <SystemCoreClockUpdate+0xb0>)
  4026f8:	6b13      	ldr	r3, [r2, #48]	; 0x30
  4026fa:	f003 0303 	and.w	r3, r3, #3
  4026fe:	2b01      	cmp	r3, #1
  402700:	4b29      	ldr	r3, [pc, #164]	; (4027a8 <SystemCoreClockUpdate+0xb4>)
  402702:	d00f      	beq.n	402724 <SystemCoreClockUpdate+0x30>
  402704:	d304      	bcc.n	402710 <SystemCoreClockUpdate+0x1c>
  402706:	6a11      	ldr	r1, [r2, #32]
  402708:	01cc      	lsls	r4, r1, #7
  40270a:	d52c      	bpl.n	402766 <SystemCoreClockUpdate+0x72>
  40270c:	4927      	ldr	r1, [pc, #156]	; (4027ac <SystemCoreClockUpdate+0xb8>)
  40270e:	e046      	b.n	40279e <SystemCoreClockUpdate+0xaa>
  402710:	4927      	ldr	r1, [pc, #156]	; (4027b0 <SystemCoreClockUpdate+0xbc>)
  402712:	6949      	ldr	r1, [r1, #20]
  402714:	0608      	lsls	r0, r1, #24
  402716:	bf4c      	ite	mi
  402718:	f44f 4100 	movmi.w	r1, #32768	; 0x8000
  40271c:	f44f 41fa 	movpl.w	r1, #32000	; 0x7d00
  402720:	6019      	str	r1, [r3, #0]
  402722:	e00d      	b.n	402740 <SystemCoreClockUpdate+0x4c>
  402724:	6a11      	ldr	r1, [r2, #32]
  402726:	01c9      	lsls	r1, r1, #7
  402728:	d501      	bpl.n	40272e <SystemCoreClockUpdate+0x3a>
  40272a:	4920      	ldr	r1, [pc, #128]	; (4027ac <SystemCoreClockUpdate+0xb8>)
  40272c:	e7f8      	b.n	402720 <SystemCoreClockUpdate+0x2c>
  40272e:	4921      	ldr	r1, [pc, #132]	; (4027b4 <SystemCoreClockUpdate+0xc0>)
  402730:	6019      	str	r1, [r3, #0]
  402732:	6a11      	ldr	r1, [r2, #32]
  402734:	f001 0170 	and.w	r1, r1, #112	; 0x70
  402738:	2910      	cmp	r1, #16
  40273a:	d012      	beq.n	402762 <SystemCoreClockUpdate+0x6e>
  40273c:	2920      	cmp	r1, #32
  40273e:	d0f4      	beq.n	40272a <SystemCoreClockUpdate+0x36>
  402740:	6b11      	ldr	r1, [r2, #48]	; 0x30
  402742:	f001 0170 	and.w	r1, r1, #112	; 0x70
  402746:	2970      	cmp	r1, #112	; 0x70
  402748:	bf1b      	ittet	ne
  40274a:	6b11      	ldrne	r1, [r2, #48]	; 0x30
  40274c:	681a      	ldrne	r2, [r3, #0]
  40274e:	681a      	ldreq	r2, [r3, #0]
  402750:	f3c1 1102 	ubfxne	r1, r1, #4, #3
  402754:	bf12      	itee	ne
  402756:	40ca      	lsrne	r2, r1
  402758:	2103      	moveq	r1, #3
  40275a:	fbb2 f2f1 	udiveq	r2, r2, r1
  40275e:	601a      	str	r2, [r3, #0]
  402760:	bd10      	pop	{r4, pc}
  402762:	4915      	ldr	r1, [pc, #84]	; (4027b8 <SystemCoreClockUpdate+0xc4>)
  402764:	e7dc      	b.n	402720 <SystemCoreClockUpdate+0x2c>
  402766:	4913      	ldr	r1, [pc, #76]	; (4027b4 <SystemCoreClockUpdate+0xc0>)
  402768:	6019      	str	r1, [r3, #0]
  40276a:	6a11      	ldr	r1, [r2, #32]
  40276c:	f001 0170 	and.w	r1, r1, #112	; 0x70
  402770:	2910      	cmp	r1, #16
  402772:	d013      	beq.n	40279c <SystemCoreClockUpdate+0xa8>
  402774:	2920      	cmp	r1, #32
  402776:	d0c9      	beq.n	40270c <SystemCoreClockUpdate+0x18>
  402778:	6b11      	ldr	r1, [r2, #48]	; 0x30
  40277a:	f001 0103 	and.w	r1, r1, #3
  40277e:	2902      	cmp	r1, #2
  402780:	bf0b      	itete	eq
  402782:	6a94      	ldreq	r4, [r2, #40]	; 0x28
  402784:	6ad4      	ldrne	r4, [r2, #44]	; 0x2c
  402786:	6a90      	ldreq	r0, [r2, #40]	; 0x28
  402788:	6ad0      	ldrne	r0, [r2, #44]	; 0x2c
  40278a:	6819      	ldr	r1, [r3, #0]
  40278c:	f3c4 440a 	ubfx	r4, r4, #16, #11
  402790:	fb04 1101 	mla	r1, r4, r1, r1
  402794:	b2c0      	uxtb	r0, r0
  402796:	fbb1 f1f0 	udiv	r1, r1, r0
  40279a:	e7c1      	b.n	402720 <SystemCoreClockUpdate+0x2c>
  40279c:	4906      	ldr	r1, [pc, #24]	; (4027b8 <SystemCoreClockUpdate+0xc4>)
  40279e:	6019      	str	r1, [r3, #0]
  4027a0:	e7ea      	b.n	402778 <SystemCoreClockUpdate+0x84>
  4027a2:	bf00      	nop
  4027a4:	400e0400 	.word	0x400e0400
  4027a8:	20000154 	.word	0x20000154
  4027ac:	00b71b00 	.word	0x00b71b00
  4027b0:	400e1410 	.word	0x400e1410
  4027b4:	003d0900 	.word	0x003d0900
  4027b8:	007a1200 	.word	0x007a1200

004027bc <system_init_flash>:
  4027bc:	4b0c      	ldr	r3, [pc, #48]	; (4027f0 <system_init_flash+0x34>)
  4027be:	4298      	cmp	r0, r3
  4027c0:	4b0c      	ldr	r3, [pc, #48]	; (4027f4 <system_init_flash+0x38>)
  4027c2:	d803      	bhi.n	4027cc <system_init_flash+0x10>
  4027c4:	f04f 6280 	mov.w	r2, #67108864	; 0x4000000
  4027c8:	601a      	str	r2, [r3, #0]
  4027ca:	4770      	bx	lr
  4027cc:	4a0a      	ldr	r2, [pc, #40]	; (4027f8 <system_init_flash+0x3c>)
  4027ce:	4290      	cmp	r0, r2
  4027d0:	d801      	bhi.n	4027d6 <system_init_flash+0x1a>
  4027d2:	4a0a      	ldr	r2, [pc, #40]	; (4027fc <system_init_flash+0x40>)
  4027d4:	e7f8      	b.n	4027c8 <system_init_flash+0xc>
  4027d6:	4a0a      	ldr	r2, [pc, #40]	; (402800 <system_init_flash+0x44>)
  4027d8:	4290      	cmp	r0, r2
  4027da:	d801      	bhi.n	4027e0 <system_init_flash+0x24>
  4027dc:	4a09      	ldr	r2, [pc, #36]	; (402804 <system_init_flash+0x48>)
  4027de:	e7f3      	b.n	4027c8 <system_init_flash+0xc>
  4027e0:	4a09      	ldr	r2, [pc, #36]	; (402808 <system_init_flash+0x4c>)
  4027e2:	4290      	cmp	r0, r2
  4027e4:	bf94      	ite	ls
  4027e6:	f04f 2204 	movls.w	r2, #67109888	; 0x4000400
  4027ea:	4a08      	ldrhi	r2, [pc, #32]	; (40280c <system_init_flash+0x50>)
  4027ec:	e7ec      	b.n	4027c8 <system_init_flash+0xc>
  4027ee:	bf00      	nop
  4027f0:	01ba813f 	.word	0x01ba813f
  4027f4:	400e0a00 	.word	0x400e0a00
  4027f8:	0375027f 	.word	0x0375027f
  4027fc:	04000100 	.word	0x04000100
  402800:	053ec5ff 	.word	0x053ec5ff
  402804:	04000200 	.word	0x04000200
  402808:	07270dff 	.word	0x07270dff
  40280c:	04000500 	.word	0x04000500

00402810 <_sbrk>:
  402810:	4b07      	ldr	r3, [pc, #28]	; (402830 <_sbrk+0x20>)
  402812:	681a      	ldr	r2, [r3, #0]
  402814:	b90a      	cbnz	r2, 40281a <_sbrk+0xa>
  402816:	4a07      	ldr	r2, [pc, #28]	; (402834 <_sbrk+0x24>)
  402818:	601a      	str	r2, [r3, #0]
  40281a:	681a      	ldr	r2, [r3, #0]
  40281c:	4906      	ldr	r1, [pc, #24]	; (402838 <_sbrk+0x28>)
  40281e:	4410      	add	r0, r2
  402820:	4281      	cmp	r1, r0
  402822:	bfa6      	itte	ge
  402824:	6018      	strge	r0, [r3, #0]
  402826:	4610      	movge	r0, r2
  402828:	f04f 30ff 	movlt.w	r0, #4294967295
  40282c:	4770      	bx	lr
  40282e:	bf00      	nop
  402830:	2000053c 	.word	0x2000053c
  402834:	20001790 	.word	0x20001790
  402838:	2000fffc 	.word	0x2000fffc

0040283c <sleepmgr_unlock_mode>:
  40283c:	b510      	push	{r4, lr}
  40283e:	4a0b      	ldr	r2, [pc, #44]	; (40286c <sleepmgr_unlock_mode+0x30>)
  402840:	5c13      	ldrb	r3, [r2, r0]
  402842:	b903      	cbnz	r3, 402846 <sleepmgr_unlock_mode+0xa>
  402844:	e7fe      	b.n	402844 <sleepmgr_unlock_mode+0x8>
  402846:	f3ef 8310 	mrs	r3, PRIMASK
  40284a:	b672      	cpsid	i
  40284c:	f3bf 8f5f 	dmb	sy
  402850:	4c07      	ldr	r4, [pc, #28]	; (402870 <sleepmgr_unlock_mode+0x34>)
  402852:	2100      	movs	r1, #0
  402854:	7021      	strb	r1, [r4, #0]
  402856:	5c11      	ldrb	r1, [r2, r0]
  402858:	3901      	subs	r1, #1
  40285a:	5411      	strb	r1, [r2, r0]
  40285c:	b923      	cbnz	r3, 402868 <sleepmgr_unlock_mode+0x2c>
  40285e:	2301      	movs	r3, #1
  402860:	7023      	strb	r3, [r4, #0]
  402862:	f3bf 8f5f 	dmb	sy
  402866:	b662      	cpsie	i
  402868:	bd10      	pop	{r4, pc}
  40286a:	bf00      	nop
  40286c:	20000554 	.word	0x20000554
  402870:	20000150 	.word	0x20000150

00402874 <sleepmgr_lock_mode>:
  402874:	b510      	push	{r4, lr}
  402876:	4a0b      	ldr	r2, [pc, #44]	; (4028a4 <sleepmgr_lock_mode+0x30>)
  402878:	5c13      	ldrb	r3, [r2, r0]
  40287a:	2bff      	cmp	r3, #255	; 0xff
  40287c:	d100      	bne.n	402880 <sleepmgr_lock_mode+0xc>
  40287e:	e7fe      	b.n	40287e <sleepmgr_lock_mode+0xa>
  402880:	f3ef 8310 	mrs	r3, PRIMASK
  402884:	b672      	cpsid	i
  402886:	f3bf 8f5f 	dmb	sy
  40288a:	4c07      	ldr	r4, [pc, #28]	; (4028a8 <sleepmgr_lock_mode+0x34>)
  40288c:	2100      	movs	r1, #0
  40288e:	7021      	strb	r1, [r4, #0]
  402890:	5c11      	ldrb	r1, [r2, r0]
  402892:	3101      	adds	r1, #1
  402894:	5411      	strb	r1, [r2, r0]
  402896:	b923      	cbnz	r3, 4028a2 <sleepmgr_lock_mode+0x2e>
  402898:	2301      	movs	r3, #1
  40289a:	7023      	strb	r3, [r4, #0]
  40289c:	f3bf 8f5f 	dmb	sy
  4028a0:	b662      	cpsie	i
  4028a2:	bd10      	pop	{r4, pc}
  4028a4:	20000554 	.word	0x20000554
  4028a8:	20000150 	.word	0x20000150

004028ac <stop_weak>:
  4028ac:	4b09      	ldr	r3, [pc, #36]	; (4028d4 <stop_weak+0x28>)
  4028ae:	480a      	ldr	r0, [pc, #40]	; (4028d8 <stop_weak+0x2c>)
  4028b0:	2204      	movs	r2, #4
  4028b2:	601a      	str	r2, [r3, #0]
  4028b4:	4a09      	ldr	r2, [pc, #36]	; (4028dc <stop_weak+0x30>)
  4028b6:	2300      	movs	r3, #0
  4028b8:	7013      	strb	r3, [r2, #0]
  4028ba:	4a09      	ldr	r2, [pc, #36]	; (4028e0 <stop_weak+0x34>)
  4028bc:	8013      	strh	r3, [r2, #0]
  4028be:	4a09      	ldr	r2, [pc, #36]	; (4028e4 <stop_weak+0x38>)
  4028c0:	7013      	strb	r3, [r2, #0]
  4028c2:	4a09      	ldr	r2, [pc, #36]	; (4028e8 <stop_weak+0x3c>)
  4028c4:	f44f 0180 	mov.w	r1, #4194304	; 0x400000
  4028c8:	6351      	str	r1, [r2, #52]	; 0x34
  4028ca:	461a      	mov	r2, r3
  4028cc:	f44f 5100 	mov.w	r1, #8192	; 0x2000
  4028d0:	f7fd bfa1 	b.w	400816 <spi_write>
  4028d4:	e000e010 	.word	0xe000e010
  4028d8:	40008000 	.word	0x40008000
  4028dc:	2000054a 	.word	0x2000054a
  4028e0:	20000542 	.word	0x20000542
  4028e4:	20000546 	.word	0x20000546
  4028e8:	400e0e00 	.word	0x400e0e00

004028ec <stop>:
  4028ec:	b508      	push	{r3, lr}
  4028ee:	4b05      	ldr	r3, [pc, #20]	; (402904 <stop+0x18>)
  4028f0:	2201      	movs	r2, #1
  4028f2:	701a      	strb	r2, [r3, #0]
  4028f4:	f7ff ffda 	bl	4028ac <stop_weak>
  4028f8:	2100      	movs	r1, #0
  4028fa:	4803      	ldr	r0, [pc, #12]	; (402908 <stop+0x1c>)
  4028fc:	e8bd 4008 	ldmia.w	sp!, {r3, lr}
  402900:	f7fe b803 	b.w	40090a <tc_start>
  402904:	2000054b 	.word	0x2000054b
  402908:	40010000 	.word	0x40010000

0040290c <TC0_Handler>:
  40290c:	b508      	push	{r3, lr}
  40290e:	2100      	movs	r1, #0
  402910:	480e      	ldr	r0, [pc, #56]	; (40294c <TC0_Handler+0x40>)
  402912:	f7fe f80a 	bl	40092a <tc_get_status>
  402916:	2100      	movs	r1, #0
  402918:	480c      	ldr	r0, [pc, #48]	; (40294c <TC0_Handler+0x40>)
  40291a:	f7fd fffa 	bl	400912 <tc_stop>
  40291e:	f7ff ffc5 	bl	4028ac <stop_weak>
  402922:	480b      	ldr	r0, [pc, #44]	; (402950 <TC0_Handler+0x44>)
  402924:	f7ff fb57 	bl	401fd6 <dacc_get_interrupt_status>
  402928:	07c3      	lsls	r3, r0, #31
  40292a:	d505      	bpl.n	402938 <TC0_Handler+0x2c>
  40292c:	4b09      	ldr	r3, [pc, #36]	; (402954 <TC0_Handler+0x48>)
  40292e:	490a      	ldr	r1, [pc, #40]	; (402958 <TC0_Handler+0x4c>)
  402930:	4807      	ldr	r0, [pc, #28]	; (402950 <TC0_Handler+0x44>)
  402932:	6019      	str	r1, [r3, #0]
  402934:	f7ff fb51 	bl	401fda <dacc_write_conversion_data>
  402938:	4a08      	ldr	r2, [pc, #32]	; (40295c <TC0_Handler+0x50>)
  40293a:	2300      	movs	r3, #0
  40293c:	7013      	strb	r3, [r2, #0]
  40293e:	4a08      	ldr	r2, [pc, #32]	; (402960 <TC0_Handler+0x54>)
  402940:	7812      	ldrb	r2, [r2, #0]
  402942:	b10a      	cbz	r2, 402948 <TC0_Handler+0x3c>
  402944:	4a07      	ldr	r2, [pc, #28]	; (402964 <TC0_Handler+0x58>)
  402946:	7013      	strb	r3, [r2, #0]
  402948:	bd08      	pop	{r3, pc}
  40294a:	bf00      	nop
  40294c:	40010000 	.word	0x40010000
  402950:	4003c000 	.word	0x4003c000
  402954:	20000578 	.word	0x20000578
  402958:	08001800 	.word	0x08001800
  40295c:	2000054b 	.word	0x2000054b
  402960:	20000540 	.word	0x20000540
  402964:	20000546 	.word	0x20000546

00402968 <speed_set>:
  402968:	4b0e      	ldr	r3, [pc, #56]	; (4029a4 <speed_set+0x3c>)
  40296a:	781b      	ldrb	r3, [r3, #0]
  40296c:	b1cb      	cbz	r3, 4029a2 <speed_set+0x3a>
  40296e:	2807      	cmp	r0, #7
  402970:	bf38      	it	cc
  402972:	2007      	movcc	r0, #7
  402974:	f64f 73ff 	movw	r3, #65535	; 0xffff
  402978:	4298      	cmp	r0, r3
  40297a:	bf28      	it	cs
  40297c:	4618      	movcs	r0, r3
  40297e:	4b0a      	ldr	r3, [pc, #40]	; (4029a8 <speed_set+0x40>)
  402980:	4a0a      	ldr	r2, [pc, #40]	; (4029ac <speed_set+0x44>)
  402982:	6018      	str	r0, [r3, #0]
  402984:	4b0a      	ldr	r3, [pc, #40]	; (4029b0 <speed_set+0x48>)
  402986:	fbb3 f0f0 	udiv	r0, r3, r0
  40298a:	4b0a      	ldr	r3, [pc, #40]	; (4029b4 <speed_set+0x4c>)
  40298c:	21f0      	movs	r1, #240	; 0xf0
  40298e:	6058      	str	r0, [r3, #4]
  402990:	f882 1023 	strb.w	r1, [r2, #35]	; 0x23
  402994:	2100      	movs	r1, #0
  402996:	6099      	str	r1, [r3, #8]
  402998:	2107      	movs	r1, #7
  40299a:	6019      	str	r1, [r3, #0]
  40299c:	2310      	movs	r3, #16
  40299e:	f882 3023 	strb.w	r3, [r2, #35]	; 0x23
  4029a2:	4770      	bx	lr
  4029a4:	20000540 	.word	0x20000540
  4029a8:	20000198 	.word	0x20000198
  4029ac:	e000ed00 	.word	0xe000ed00
  4029b0:	06acfc00 	.word	0x06acfc00
  4029b4:	e000e010 	.word	0xe000e010

004029b8 <usb_bulk_out_callback>:
  4029b8:	e92d 41f0 	stmdb	sp!, {r4, r5, r6, r7, r8, lr}
  4029bc:	4b26      	ldr	r3, [pc, #152]	; (402a58 <usb_bulk_out_callback+0xa0>)
  4029be:	781b      	ldrb	r3, [r3, #0]
  4029c0:	2b00      	cmp	r3, #0
  4029c2:	d047      	beq.n	402a54 <usb_bulk_out_callback+0x9c>
  4029c4:	2800      	cmp	r0, #0
  4029c6:	d145      	bne.n	402a54 <usb_bulk_out_callback+0x9c>
  4029c8:	f247 0305 	movw	r3, #28677	; 0x7005
  4029cc:	4299      	cmp	r1, r3
  4029ce:	d841      	bhi.n	402a54 <usb_bulk_out_callback+0x9c>
  4029d0:	4b22      	ldr	r3, [pc, #136]	; (402a5c <usb_bulk_out_callback+0xa4>)
  4029d2:	781b      	ldrb	r3, [r3, #0]
  4029d4:	2b00      	cmp	r3, #0
  4029d6:	d13d      	bne.n	402a54 <usb_bulk_out_callback+0x9c>
  4029d8:	4d21      	ldr	r5, [pc, #132]	; (402a60 <usb_bulk_out_callback+0xa8>)
  4029da:	3905      	subs	r1, #5
  4029dc:	682a      	ldr	r2, [r5, #0]
  4029de:	b28c      	uxth	r4, r1
  4029e0:	4422      	add	r2, r4
  4029e2:	46a8      	mov	r8, r5
  4029e4:	78d1      	ldrb	r1, [r2, #3]
  4029e6:	7893      	ldrb	r3, [r2, #2]
  4029e8:	ea43 2301 	orr.w	r3, r3, r1, lsl #8
  4029ec:	ebc3 03c3 	rsb	r3, r3, r3, lsl #3
  4029f0:	b29b      	uxth	r3, r3
  4029f2:	429c      	cmp	r4, r3
  4029f4:	d12e      	bne.n	402a54 <usb_bulk_out_callback+0x9c>
  4029f6:	f7ff fe11 	bl	40261c <cpu_irq_enter_critical>
  4029fa:	682b      	ldr	r3, [r5, #0]
  4029fc:	4819      	ldr	r0, [pc, #100]	; (402a64 <usb_bulk_out_callback+0xac>)
  4029fe:	4e1a      	ldr	r6, [pc, #104]	; (402a68 <usb_bulk_out_callback+0xb0>)
  402a00:	1919      	adds	r1, r3, r4
  402a02:	790a      	ldrb	r2, [r1, #4]
  402a04:	f3c2 0740 	ubfx	r7, r2, #1, #1
  402a08:	7007      	strb	r7, [r0, #0]
  402a0a:	7849      	ldrb	r1, [r1, #1]
  402a0c:	5d18      	ldrb	r0, [r3, r4]
  402a0e:	ea40 2001 	orr.w	r0, r0, r1, lsl #8
  402a12:	4916      	ldr	r1, [pc, #88]	; (402a6c <usb_bulk_out_callback+0xb4>)
  402a14:	6008      	str	r0, [r1, #0]
  402a16:	4916      	ldr	r1, [pc, #88]	; (402a70 <usb_bulk_out_callback+0xb8>)
  402a18:	780d      	ldrb	r5, [r1, #0]
  402a1a:	b10d      	cbz	r5, 402a20 <usb_bulk_out_callback+0x68>
  402a1c:	07d2      	lsls	r2, r2, #31
  402a1e:	d514      	bpl.n	402a4a <usb_bulk_out_callback+0x92>
  402a20:	4a14      	ldr	r2, [pc, #80]	; (402a74 <usb_bulk_out_callback+0xbc>)
  402a22:	6815      	ldr	r5, [r2, #0]
  402a24:	6013      	str	r3, [r2, #0]
  402a26:	4b14      	ldr	r3, [pc, #80]	; (402a78 <usb_bulk_out_callback+0xc0>)
  402a28:	f8c8 5000 	str.w	r5, [r8]
  402a2c:	2500      	movs	r5, #0
  402a2e:	801d      	strh	r5, [r3, #0]
  402a30:	4b12      	ldr	r3, [pc, #72]	; (402a7c <usb_bulk_out_callback+0xc4>)
  402a32:	801c      	strh	r4, [r3, #0]
  402a34:	2301      	movs	r3, #1
  402a36:	700b      	strb	r3, [r1, #0]
  402a38:	4b11      	ldr	r3, [pc, #68]	; (402a80 <usb_bulk_out_callback+0xc8>)
  402a3a:	701f      	strb	r7, [r3, #0]
  402a3c:	f7ff ff94 	bl	402968 <speed_set>
  402a40:	7035      	strb	r5, [r6, #0]
  402a42:	e8bd 41f0 	ldmia.w	sp!, {r4, r5, r6, r7, r8, lr}
  402a46:	f7ff be01 	b.w	40264c <cpu_irq_leave_critical>
  402a4a:	4b0e      	ldr	r3, [pc, #56]	; (402a84 <usb_bulk_out_callback+0xcc>)
  402a4c:	801c      	strh	r4, [r3, #0]
  402a4e:	2301      	movs	r3, #1
  402a50:	7033      	strb	r3, [r6, #0]
  402a52:	e7f6      	b.n	402a42 <usb_bulk_out_callback+0x8a>
  402a54:	e8bd 81f0 	ldmia.w	sp!, {r4, r5, r6, r7, r8, pc}
  402a58:	20000540 	.word	0x20000540
  402a5c:	2000054b 	.word	0x2000054b
  402a60:	2000057c 	.word	0x2000057c
  402a64:	20000194 	.word	0x20000194
  402a68:	20000546 	.word	0x20000546
  402a6c:	20000198 	.word	0x20000198
  402a70:	2000054a 	.word	0x2000054a
  402a74:	20000584 	.word	0x20000584
  402a78:	20000542 	.word	0x20000542
  402a7c:	20000544 	.word	0x20000544
  402a80:	20000195 	.word	0x20000195
  402a84:	20000548 	.word	0x20000548

00402a88 <callback_vendor_enable>:
  402a88:	4b0d      	ldr	r3, [pc, #52]	; (402ac0 <callback_vendor_enable+0x38>)
  402a8a:	b510      	push	{r4, lr}
  402a8c:	2401      	movs	r4, #1
  402a8e:	701c      	strb	r4, [r3, #0]
  402a90:	f7ff ff0c 	bl	4028ac <stop_weak>
  402a94:	2003      	movs	r0, #3
  402a96:	f7ff fed1 	bl	40283c <sleepmgr_unlock_mode>
  402a9a:	2000      	movs	r0, #0
  402a9c:	f7ff feea 	bl	402874 <sleepmgr_lock_mode>
  402aa0:	4b08      	ldr	r3, [pc, #32]	; (402ac4 <callback_vendor_enable+0x3c>)
  402aa2:	4a09      	ldr	r2, [pc, #36]	; (402ac8 <callback_vendor_enable+0x40>)
  402aa4:	6818      	ldr	r0, [r3, #0]
  402aa6:	2120      	movs	r1, #32
  402aa8:	f7fd fb75 	bl	400196 <udi_vendor_interrupt_out_run>
  402aac:	4b07      	ldr	r3, [pc, #28]	; (402acc <callback_vendor_enable+0x44>)
  402aae:	4a08      	ldr	r2, [pc, #32]	; (402ad0 <callback_vendor_enable+0x48>)
  402ab0:	6818      	ldr	r0, [r3, #0]
  402ab2:	f247 0105 	movw	r1, #28677	; 0x7005
  402ab6:	f7fd fb79 	bl	4001ac <udi_vendor_bulk_out_run>
  402aba:	4620      	mov	r0, r4
  402abc:	bd10      	pop	{r4, pc}
  402abe:	bf00      	nop
  402ac0:	20000540 	.word	0x20000540
  402ac4:	20000580 	.word	0x20000580
  402ac8:	00402c11 	.word	0x00402c11
  402acc:	2000057c 	.word	0x2000057c
  402ad0:	004029b9 	.word	0x004029b9

00402ad4 <callback_vendor_disable>:
  402ad4:	b510      	push	{r4, lr}
  402ad6:	4b06      	ldr	r3, [pc, #24]	; (402af0 <callback_vendor_disable+0x1c>)
  402ad8:	2400      	movs	r4, #0
  402ada:	701c      	strb	r4, [r3, #0]
  402adc:	f7ff ff06 	bl	4028ec <stop>
  402ae0:	4620      	mov	r0, r4
  402ae2:	f7ff feab 	bl	40283c <sleepmgr_unlock_mode>
  402ae6:	2003      	movs	r0, #3
  402ae8:	e8bd 4010 	ldmia.w	sp!, {r4, lr}
  402aec:	f7ff bec2 	b.w	402874 <sleepmgr_lock_mode>
  402af0:	20000540 	.word	0x20000540

00402af4 <shutter_set>:
  402af4:	4b03      	ldr	r3, [pc, #12]	; (402b04 <shutter_set+0x10>)
  402af6:	f44f 1280 	mov.w	r2, #1048576	; 0x100000
  402afa:	b108      	cbz	r0, 402b00 <shutter_set+0xc>
  402afc:	631a      	str	r2, [r3, #48]	; 0x30
  402afe:	4770      	bx	lr
  402b00:	635a      	str	r2, [r3, #52]	; 0x34
  402b02:	4770      	bx	lr
  402b04:	400e0e00 	.word	0x400e0e00

00402b08 <usb_interrupt_out_callback.part.2>:
  402b08:	b570      	push	{r4, r5, r6, lr}
  402b0a:	4604      	mov	r4, r0
  402b0c:	b0a8      	sub	sp, #160	; 0xa0
  402b0e:	4d39      	ldr	r5, [pc, #228]	; (402bf4 <usb_interrupt_out_callback.part.2+0xec>)
  402b10:	b928      	cbnz	r0, 402b1e <usb_interrupt_out_callback.part.2+0x16>
  402b12:	682a      	ldr	r2, [r5, #0]
  402b14:	7813      	ldrb	r3, [r2, #0]
  402b16:	2b01      	cmp	r3, #1
  402b18:	d108      	bne.n	402b2c <usb_interrupt_out_callback.part.2+0x24>
  402b1a:	f7ff fee7 	bl	4028ec <stop>
  402b1e:	4a36      	ldr	r2, [pc, #216]	; (402bf8 <usb_interrupt_out_callback.part.2+0xf0>)
  402b20:	6828      	ldr	r0, [r5, #0]
  402b22:	2120      	movs	r1, #32
  402b24:	f7fd fb37 	bl	400196 <udi_vendor_interrupt_out_run>
  402b28:	b028      	add	sp, #160	; 0xa0
  402b2a:	bd70      	pop	{r4, r5, r6, pc}
  402b2c:	2b02      	cmp	r3, #2
  402b2e:	d106      	bne.n	402b3e <usb_interrupt_out_callback.part.2+0x36>
  402b30:	7850      	ldrb	r0, [r2, #1]
  402b32:	3000      	adds	r0, #0
  402b34:	bf18      	it	ne
  402b36:	2001      	movne	r0, #1
  402b38:	f7ff ffdc 	bl	402af4 <shutter_set>
  402b3c:	e7ef      	b.n	402b1e <usb_interrupt_out_callback.part.2+0x16>
  402b3e:	2b03      	cmp	r3, #3
  402b40:	d117      	bne.n	402b72 <usb_interrupt_out_callback.part.2+0x6a>
  402b42:	2383      	movs	r3, #131	; 0x83
  402b44:	f88d 3020 	strb.w	r3, [sp, #32]
  402b48:	4b2c      	ldr	r3, [pc, #176]	; (402bfc <usb_interrupt_out_callback.part.2+0xf4>)
  402b4a:	f88d 0021 	strb.w	r0, [sp, #33]	; 0x21
  402b4e:	781b      	ldrb	r3, [r3, #0]
  402b50:	b94b      	cbnz	r3, 402b66 <usb_interrupt_out_callback.part.2+0x5e>
  402b52:	4b2b      	ldr	r3, [pc, #172]	; (402c00 <usb_interrupt_out_callback.part.2+0xf8>)
  402b54:	4a2b      	ldr	r2, [pc, #172]	; (402c04 <usb_interrupt_out_callback.part.2+0xfc>)
  402b56:	6818      	ldr	r0, [r3, #0]
  402b58:	f247 0105 	movw	r1, #28677	; 0x7005
  402b5c:	f7fd fb26 	bl	4001ac <udi_vendor_bulk_out_run>
  402b60:	2301      	movs	r3, #1
  402b62:	f88d 3021 	strb.w	r3, [sp, #33]	; 0x21
  402b66:	2200      	movs	r2, #0
  402b68:	2102      	movs	r1, #2
  402b6a:	a808      	add	r0, sp, #32
  402b6c:	f7fd fb08 	bl	400180 <udi_vendor_interrupt_in_run>
  402b70:	e7d5      	b.n	402b1e <usb_interrupt_out_callback.part.2+0x16>
  402b72:	2b04      	cmp	r3, #4
  402b74:	d108      	bne.n	402b88 <usb_interrupt_out_callback.part.2+0x80>
  402b76:	4b24      	ldr	r3, [pc, #144]	; (402c08 <usb_interrupt_out_callback.part.2+0x100>)
  402b78:	6818      	ldr	r0, [r3, #0]
  402b7a:	791b      	ldrb	r3, [r3, #4]
  402b7c:	9008      	str	r0, [sp, #32]
  402b7e:	f88d 3024 	strb.w	r3, [sp, #36]	; 0x24
  402b82:	4622      	mov	r2, r4
  402b84:	2105      	movs	r1, #5
  402b86:	e7f0      	b.n	402b6a <usb_interrupt_out_callback.part.2+0x62>
  402b88:	2b05      	cmp	r3, #5
  402b8a:	d114      	bne.n	402bb6 <usb_interrupt_out_callback.part.2+0xae>
  402b8c:	ae08      	add	r6, sp, #32
  402b8e:	2385      	movs	r3, #133	; 0x85
  402b90:	2120      	movs	r1, #32
  402b92:	4630      	mov	r0, r6
  402b94:	f88d 3000 	strb.w	r3, [sp]
  402b98:	f7ff f966 	bl	401e68 <flash_read_user_signature>
  402b9c:	f856 3024 	ldr.w	r3, [r6, r4, lsl #2]
  402ba0:	eb0d 0204 	add.w	r2, sp, r4
  402ba4:	7053      	strb	r3, [r2, #1]
  402ba6:	b113      	cbz	r3, 402bae <usb_interrupt_out_callback.part.2+0xa6>
  402ba8:	3401      	adds	r4, #1
  402baa:	2c1f      	cmp	r4, #31
  402bac:	d1f6      	bne.n	402b9c <usb_interrupt_out_callback.part.2+0x94>
  402bae:	2200      	movs	r2, #0
  402bb0:	2120      	movs	r1, #32
  402bb2:	4668      	mov	r0, sp
  402bb4:	e7da      	b.n	402b6c <usb_interrupt_out_callback.part.2+0x64>
  402bb6:	2b06      	cmp	r3, #6
  402bb8:	d10e      	bne.n	402bd8 <usb_interrupt_out_callback.part.2+0xd0>
  402bba:	ae08      	add	r6, sp, #32
  402bbc:	f812 3f01 	ldrb.w	r3, [r2, #1]!
  402bc0:	f846 3024 	str.w	r3, [r6, r4, lsl #2]
  402bc4:	3401      	adds	r4, #1
  402bc6:	2c1f      	cmp	r4, #31
  402bc8:	d1f8      	bne.n	402bbc <usb_interrupt_out_callback.part.2+0xb4>
  402bca:	f7ff f989 	bl	401ee0 <flash_erase_user_signature>
  402bce:	2120      	movs	r1, #32
  402bd0:	4630      	mov	r0, r6
  402bd2:	f7ff f95d 	bl	401e90 <flash_write_user_signature>
  402bd6:	e7a2      	b.n	402b1e <usb_interrupt_out_callback.part.2+0x16>
  402bd8:	2b07      	cmp	r3, #7
  402bda:	d103      	bne.n	402be4 <usb_interrupt_out_callback.part.2+0xdc>
  402bdc:	4b0b      	ldr	r3, [pc, #44]	; (402c0c <usb_interrupt_out_callback.part.2+0x104>)
  402bde:	7852      	ldrb	r2, [r2, #1]
  402be0:	701a      	strb	r2, [r3, #0]
  402be2:	e79c      	b.n	402b1e <usb_interrupt_out_callback.part.2+0x16>
  402be4:	2bde      	cmp	r3, #222	; 0xde
  402be6:	d19a      	bne.n	402b1e <usb_interrupt_out_callback.part.2+0x16>
  402be8:	f7ff fe60 	bl	4028ac <stop_weak>
  402bec:	2001      	movs	r0, #1
  402bee:	f7ff f905 	bl	401dfc <flash_clear_gpnvm>
  402bf2:	e7fe      	b.n	402bf2 <usb_interrupt_out_callback.part.2+0xea>
  402bf4:	20000580 	.word	0x20000580
  402bf8:	00402c11 	.word	0x00402c11
  402bfc:	20000546 	.word	0x20000546
  402c00:	2000057c 	.word	0x2000057c
  402c04:	004029b9 	.word	0x004029b9
  402c08:	00403a52 	.word	0x00403a52
  402c0c:	2000019c 	.word	0x2000019c

00402c10 <usb_interrupt_out_callback>:
  402c10:	4b02      	ldr	r3, [pc, #8]	; (402c1c <usb_interrupt_out_callback+0xc>)
  402c12:	781b      	ldrb	r3, [r3, #0]
  402c14:	b10b      	cbz	r3, 402c1a <usb_interrupt_out_callback+0xa>
  402c16:	f7ff bf77 	b.w	402b08 <usb_interrupt_out_callback.part.2>
  402c1a:	4770      	bx	lr
  402c1c:	20000540 	.word	0x20000540

00402c20 <statusled_set>:
  402c20:	4b03      	ldr	r3, [pc, #12]	; (402c30 <statusled_set+0x10>)
  402c22:	f44f 0280 	mov.w	r2, #4194304	; 0x400000
  402c26:	b108      	cbz	r0, 402c2c <statusled_set+0xc>
  402c28:	631a      	str	r2, [r3, #48]	; 0x30
  402c2a:	4770      	bx	lr
  402c2c:	635a      	str	r2, [r3, #52]	; 0x34
  402c2e:	4770      	bx	lr
  402c30:	400e0e00 	.word	0x400e0e00

00402c34 <point_output>:
  402c34:	b570      	push	{r4, r5, r6, lr}
  402c36:	4b25      	ldr	r3, [pc, #148]	; (402ccc <point_output+0x98>)
  402c38:	4825      	ldr	r0, [pc, #148]	; (402cd0 <point_output+0x9c>)
  402c3a:	881d      	ldrh	r5, [r3, #0]
  402c3c:	4b25      	ldr	r3, [pc, #148]	; (402cd4 <point_output+0xa0>)
  402c3e:	681e      	ldr	r6, [r3, #0]
  402c40:	f7ff f9c9 	bl	401fd6 <dacc_get_interrupt_status>
  402c44:	07c3      	lsls	r3, r0, #31
  402c46:	eb06 0405 	add.w	r4, r6, r5
  402c4a:	d512      	bpl.n	402c72 <point_output+0x3e>
  402c4c:	7863      	ldrb	r3, [r4, #1]
  402c4e:	5d72      	ldrb	r2, [r6, r5]
  402c50:	481f      	ldr	r0, [pc, #124]	; (402cd0 <point_output+0x9c>)
  402c52:	0919      	lsrs	r1, r3, #4
  402c54:	ea41 1202 	orr.w	r2, r1, r2, lsl #4
  402c58:	0219      	lsls	r1, r3, #8
  402c5a:	78a3      	ldrb	r3, [r4, #2]
  402c5c:	f401 6170 	and.w	r1, r1, #3840	; 0xf00
  402c60:	f443 5380 	orr.w	r3, r3, #4096	; 0x1000
  402c64:	4319      	orrs	r1, r3
  402c66:	4b1c      	ldr	r3, [pc, #112]	; (402cd8 <point_output+0xa4>)
  402c68:	ea41 4102 	orr.w	r1, r1, r2, lsl #16
  402c6c:	6019      	str	r1, [r3, #0]
  402c6e:	f7ff f9b4 	bl	401fda <dacc_write_conversion_data>
  402c72:	78e1      	ldrb	r1, [r4, #3]
  402c74:	4819      	ldr	r0, [pc, #100]	; (402cdc <point_output+0xa8>)
  402c76:	2300      	movs	r3, #0
  402c78:	0109      	lsls	r1, r1, #4
  402c7a:	461a      	mov	r2, r3
  402c7c:	f441 4150 	orr.w	r1, r1, #53248	; 0xd000
  402c80:	f7fd fdc9 	bl	400816 <spi_write>
  402c84:	7921      	ldrb	r1, [r4, #4]
  402c86:	4815      	ldr	r0, [pc, #84]	; (402cdc <point_output+0xa8>)
  402c88:	2300      	movs	r3, #0
  402c8a:	0109      	lsls	r1, r1, #4
  402c8c:	461a      	mov	r2, r3
  402c8e:	f441 4110 	orr.w	r1, r1, #36864	; 0x9000
  402c92:	f7fd fdc0 	bl	400816 <spi_write>
  402c96:	7961      	ldrb	r1, [r4, #5]
  402c98:	4810      	ldr	r0, [pc, #64]	; (402cdc <point_output+0xa8>)
  402c9a:	2300      	movs	r3, #0
  402c9c:	0109      	lsls	r1, r1, #4
  402c9e:	461a      	mov	r2, r3
  402ca0:	f441 41a0 	orr.w	r1, r1, #20480	; 0x5000
  402ca4:	f7fd fdb7 	bl	400816 <spi_write>
  402ca8:	79a1      	ldrb	r1, [r4, #6]
  402caa:	480c      	ldr	r0, [pc, #48]	; (402cdc <point_output+0xa8>)
  402cac:	2300      	movs	r3, #0
  402cae:	0109      	lsls	r1, r1, #4
  402cb0:	461a      	mov	r2, r3
  402cb2:	f441 5180 	orr.w	r1, r1, #4096	; 0x1000
  402cb6:	f7fd fdae 	bl	400816 <spi_write>
  402cba:	79a0      	ldrb	r0, [r4, #6]
  402cbc:	3000      	adds	r0, #0
  402cbe:	bf18      	it	ne
  402cc0:	2001      	movne	r0, #1
  402cc2:	e8bd 4070 	ldmia.w	sp!, {r4, r5, r6, lr}
  402cc6:	f7ff bfab 	b.w	402c20 <statusled_set>
  402cca:	bf00      	nop
  402ccc:	20000542 	.word	0x20000542
  402cd0:	4003c000 	.word	0x4003c000
  402cd4:	20000584 	.word	0x20000584
  402cd8:	20000578 	.word	0x20000578
  402cdc:	40008000 	.word	0x40008000

00402ce0 <SysTick_Handler>:
  402ce0:	b5f8      	push	{r3, r4, r5, r6, r7, lr}
  402ce2:	4b1f      	ldr	r3, [pc, #124]	; (402d60 <SysTick_Handler+0x80>)
  402ce4:	781b      	ldrb	r3, [r3, #0]
  402ce6:	2b00      	cmp	r3, #0
  402ce8:	d034      	beq.n	402d54 <SysTick_Handler+0x74>
  402cea:	4b1e      	ldr	r3, [pc, #120]	; (402d64 <SysTick_Handler+0x84>)
  402cec:	781e      	ldrb	r6, [r3, #0]
  402cee:	2e00      	cmp	r6, #0
  402cf0:	d130      	bne.n	402d54 <SysTick_Handler+0x74>
  402cf2:	4b1d      	ldr	r3, [pc, #116]	; (402d68 <SysTick_Handler+0x88>)
  402cf4:	781b      	ldrb	r3, [r3, #0]
  402cf6:	2b00      	cmp	r3, #0
  402cf8:	d02c      	beq.n	402d54 <SysTick_Handler+0x74>
  402cfa:	4c1c      	ldr	r4, [pc, #112]	; (402d6c <SysTick_Handler+0x8c>)
  402cfc:	4a1c      	ldr	r2, [pc, #112]	; (402d70 <SysTick_Handler+0x90>)
  402cfe:	8821      	ldrh	r1, [r4, #0]
  402d00:	8813      	ldrh	r3, [r2, #0]
  402d02:	4299      	cmp	r1, r3
  402d04:	d321      	bcc.n	402d4a <SysTick_Handler+0x6a>
  402d06:	4d1b      	ldr	r5, [pc, #108]	; (402d74 <SysTick_Handler+0x94>)
  402d08:	f8df e080 	ldr.w	lr, [pc, #128]	; 402d8c <SysTick_Handler+0xac>
  402d0c:	782f      	ldrb	r7, [r5, #0]
  402d0e:	b1c7      	cbz	r7, 402d42 <SysTick_Handler+0x62>
  402d10:	4819      	ldr	r0, [pc, #100]	; (402d78 <SysTick_Handler+0x98>)
  402d12:	491a      	ldr	r1, [pc, #104]	; (402d7c <SysTick_Handler+0x9c>)
  402d14:	6807      	ldr	r7, [r0, #0]
  402d16:	680b      	ldr	r3, [r1, #0]
  402d18:	600f      	str	r7, [r1, #0]
  402d1a:	4919      	ldr	r1, [pc, #100]	; (402d80 <SysTick_Handler+0xa0>)
  402d1c:	6003      	str	r3, [r0, #0]
  402d1e:	8809      	ldrh	r1, [r1, #0]
  402d20:	8011      	strh	r1, [r2, #0]
  402d22:	4a18      	ldr	r2, [pc, #96]	; (402d84 <SysTick_Handler+0xa4>)
  402d24:	8026      	strh	r6, [r4, #0]
  402d26:	7812      	ldrb	r2, [r2, #0]
  402d28:	f88e 2000 	strb.w	r2, [lr]
  402d2c:	f7ff ff82 	bl	402c34 <point_output>
  402d30:	8823      	ldrh	r3, [r4, #0]
  402d32:	3307      	adds	r3, #7
  402d34:	8023      	strh	r3, [r4, #0]
  402d36:	4b14      	ldr	r3, [pc, #80]	; (402d88 <SysTick_Handler+0xa8>)
  402d38:	6818      	ldr	r0, [r3, #0]
  402d3a:	f7ff fe15 	bl	402968 <speed_set>
  402d3e:	702e      	strb	r6, [r5, #0]
  402d40:	bdf8      	pop	{r3, r4, r5, r6, r7, pc}
  402d42:	f89e 3000 	ldrb.w	r3, [lr]
  402d46:	b933      	cbnz	r3, 402d56 <SysTick_Handler+0x76>
  402d48:	8023      	strh	r3, [r4, #0]
  402d4a:	f7ff ff73 	bl	402c34 <point_output>
  402d4e:	8823      	ldrh	r3, [r4, #0]
  402d50:	3307      	adds	r3, #7
  402d52:	8023      	strh	r3, [r4, #0]
  402d54:	bdf8      	pop	{r3, r4, r5, r6, r7, pc}
  402d56:	f7ff fda9 	bl	4028ac <stop_weak>
  402d5a:	702f      	strb	r7, [r5, #0]
  402d5c:	bdf8      	pop	{r3, r4, r5, r6, r7, pc}
  402d5e:	bf00      	nop
  402d60:	2000054a 	.word	0x2000054a
  402d64:	2000054b 	.word	0x2000054b
  402d68:	20000540 	.word	0x20000540
  402d6c:	20000542 	.word	0x20000542
  402d70:	20000544 	.word	0x20000544
  402d74:	20000546 	.word	0x20000546
  402d78:	20000584 	.word	0x20000584
  402d7c:	2000057c 	.word	0x2000057c
  402d80:	20000548 	.word	0x20000548
  402d84:	20000194 	.word	0x20000194
  402d88:	20000198 	.word	0x20000198
  402d8c:	20000195 	.word	0x20000195

00402d90 <iopins_init>:
  402d90:	4b08      	ldr	r3, [pc, #32]	; (402db4 <iopins_init+0x24>)
  402d92:	f44f 1280 	mov.w	r2, #1048576	; 0x100000
  402d96:	611a      	str	r2, [r3, #16]
  402d98:	f8c3 20a0 	str.w	r2, [r3, #160]	; 0xa0
  402d9c:	f44f 0280 	mov.w	r2, #4194304	; 0x400000
  402da0:	611a      	str	r2, [r3, #16]
  402da2:	f8c3 20a0 	str.w	r2, [r3, #160]	; 0xa0
  402da6:	f44f 0200 	mov.w	r2, #8388608	; 0x800000
  402daa:	611a      	str	r2, [r3, #16]
  402dac:	f8c3 20a0 	str.w	r2, [r3, #160]	; 0xa0
  402db0:	4770      	bx	lr
  402db2:	bf00      	nop
  402db4:	400e0e00 	.word	0x400e0e00

00402db8 <spi_init>:
  402db8:	b538      	push	{r3, r4, r5, lr}
  402dba:	f04f 6100 	mov.w	r1, #134217728	; 0x8000000
  402dbe:	200c      	movs	r0, #12
  402dc0:	f7ff f987 	bl	4020d2 <pio_configure_pin>
  402dc4:	f04f 6100 	mov.w	r1, #134217728	; 0x8000000
  402dc8:	200d      	movs	r0, #13
  402dca:	4c25      	ldr	r4, [pc, #148]	; (402e60 <spi_init+0xa8>)
  402dcc:	f7ff f981 	bl	4020d2 <pio_configure_pin>
  402dd0:	f04f 6100 	mov.w	r1, #134217728	; 0x8000000
  402dd4:	200e      	movs	r0, #14
  402dd6:	f7ff f97c 	bl	4020d2 <pio_configure_pin>
  402dda:	f04f 6100 	mov.w	r1, #134217728	; 0x8000000
  402dde:	200b      	movs	r0, #11
  402de0:	f7ff f977 	bl	4020d2 <pio_configure_pin>
  402de4:	4620      	mov	r0, r4
  402de6:	f7fd fcff 	bl	4007e8 <spi_enable_clock>
  402dea:	2580      	movs	r5, #128	; 0x80
  402dec:	2302      	movs	r3, #2
  402dee:	6023      	str	r3, [r4, #0]
  402df0:	6025      	str	r5, [r4, #0]
  402df2:	6863      	ldr	r3, [r4, #4]
  402df4:	f043 0301 	orr.w	r3, r3, #1
  402df8:	6063      	str	r3, [r4, #4]
  402dfa:	6863      	ldr	r3, [r4, #4]
  402dfc:	f023 0302 	bic.w	r3, r3, #2
  402e00:	6063      	str	r3, [r4, #4]
  402e02:	6863      	ldr	r3, [r4, #4]
  402e04:	f043 0310 	orr.w	r3, r3, #16
  402e08:	6063      	str	r3, [r4, #4]
  402e0a:	2204      	movs	r2, #4
  402e0c:	2100      	movs	r1, #0
  402e0e:	4620      	mov	r0, r4
  402e10:	f7fd fd2e 	bl	400870 <spi_configure_cs_behavior>
  402e14:	2106      	movs	r1, #6
  402e16:	4620      	mov	r0, r4
  402e18:	f7fd fcf4 	bl	400804 <spi_set_delay_between_chip_select>
  402e1c:	210e      	movs	r1, #14
  402e1e:	4620      	mov	r0, r4
  402e20:	f7fd fce5 	bl	4007ee <spi_set_peripheral_chip_select_value>
  402e24:	2200      	movs	r2, #0
  402e26:	4611      	mov	r1, r2
  402e28:	4620      	mov	r0, r4
  402e2a:	f7fd fd0b 	bl	400844 <spi_set_clock_polarity>
  402e2e:	2200      	movs	r2, #0
  402e30:	4611      	mov	r1, r2
  402e32:	4620      	mov	r0, r4
  402e34:	f7fd fd11 	bl	40085a <spi_set_clock_phase>
  402e38:	462a      	mov	r2, r5
  402e3a:	2100      	movs	r1, #0
  402e3c:	4620      	mov	r0, r4
  402e3e:	f7fd fd37 	bl	4008b0 <spi_set_bits_per_transfer>
  402e42:	2205      	movs	r2, #5
  402e44:	2100      	movs	r1, #0
  402e46:	4620      	mov	r0, r4
  402e48:	f7fd fd3c 	bl	4008c4 <spi_set_baudrate_div>
  402e4c:	2300      	movs	r3, #0
  402e4e:	461a      	mov	r2, r3
  402e50:	4619      	mov	r1, r3
  402e52:	4620      	mov	r0, r4
  402e54:	f7fd fd41 	bl	4008da <spi_set_transfer_delay>
  402e58:	2301      	movs	r3, #1
  402e5a:	6023      	str	r3, [r4, #0]
  402e5c:	bd38      	pop	{r3, r4, r5, pc}
  402e5e:	bf00      	nop
  402e60:	40008000 	.word	0x40008000

00402e64 <dac_init>:
  402e64:	b510      	push	{r4, lr}
  402e66:	4c0c      	ldr	r4, [pc, #48]	; (402e98 <dac_init+0x34>)
  402e68:	201e      	movs	r0, #30
  402e6a:	f7ff fa21 	bl	4022b0 <pmc_enable_periph_clk>
  402e6e:	4620      	mov	r0, r4
  402e70:	f7ff f8a0 	bl	401fb4 <dacc_reset>
  402e74:	2100      	movs	r1, #0
  402e76:	4620      	mov	r0, r4
  402e78:	f7ff f8b6 	bl	401fe8 <dacc_enable_channel>
  402e7c:	2101      	movs	r1, #1
  402e7e:	4620      	mov	r0, r4
  402e80:	f7ff f8b2 	bl	401fe8 <dacc_enable_channel>
  402e84:	4620      	mov	r0, r4
  402e86:	2101      	movs	r1, #1
  402e88:	f7ff f897 	bl	401fba <dacc_set_transfer_mode>
  402e8c:	4620      	mov	r0, r4
  402e8e:	e8bd 4010 	ldmia.w	sp!, {r4, lr}
  402e92:	f7ff b8a4 	b.w	401fde <dacc_enable_flexible_selection>
  402e96:	bf00      	nop
  402e98:	4003c000 	.word	0x4003c000

00402e9c <timer_init>:
  402e9c:	b57f      	push	{r0, r1, r2, r3, r4, r5, r6, lr}
  402e9e:	4c1a      	ldr	r4, [pc, #104]	; (402f08 <timer_init+0x6c>)
  402ea0:	4d1a      	ldr	r5, [pc, #104]	; (402f0c <timer_init+0x70>)
  402ea2:	4e1b      	ldr	r6, [pc, #108]	; (402f10 <timer_init+0x74>)
  402ea4:	2017      	movs	r0, #23
  402ea6:	f7ff fa03 	bl	4022b0 <pmc_enable_periph_clk>
  402eaa:	ab03      	add	r3, sp, #12
  402eac:	9400      	str	r4, [sp, #0]
  402eae:	aa02      	add	r2, sp, #8
  402eb0:	4621      	mov	r1, r4
  402eb2:	200a      	movs	r0, #10
  402eb4:	f7fd fd3d 	bl	400932 <tc_find_mck_divisor>
  402eb8:	9a03      	ldr	r2, [sp, #12]
  402eba:	f442 4280 	orr.w	r2, r2, #16384	; 0x4000
  402ebe:	4628      	mov	r0, r5
  402ec0:	f042 0240 	orr.w	r2, r2, #64	; 0x40
  402ec4:	2100      	movs	r1, #0
  402ec6:	f7fd fd15 	bl	4008f4 <tc_init>
  402eca:	9b02      	ldr	r3, [sp, #8]
  402ecc:	fbb4 f4f3 	udiv	r4, r4, r3
  402ed0:	230a      	movs	r3, #10
  402ed2:	fbb4 f4f3 	udiv	r4, r4, r3
  402ed6:	4b0f      	ldr	r3, [pc, #60]	; (402f14 <timer_init+0x78>)
  402ed8:	6034      	str	r4, [r6, #0]
  402eda:	f44f 0200 	mov.w	r2, #8388608	; 0x800000
  402ede:	2400      	movs	r4, #0
  402ee0:	f8c3 2080 	str.w	r2, [r3, #128]	; 0x80
  402ee4:	4621      	mov	r1, r4
  402ee6:	f8c3 2180 	str.w	r2, [r3, #384]	; 0x180
  402eea:	4628      	mov	r0, r5
  402eec:	f883 4317 	strb.w	r4, [r3, #791]	; 0x317
  402ef0:	601a      	str	r2, [r3, #0]
  402ef2:	2210      	movs	r2, #16
  402ef4:	f7fd fd15 	bl	400922 <tc_enable_interrupt>
  402ef8:	6832      	ldr	r2, [r6, #0]
  402efa:	4621      	mov	r1, r4
  402efc:	4628      	mov	r0, r5
  402efe:	f7fd fd0c 	bl	40091a <tc_write_rc>
  402f02:	b004      	add	sp, #16
  402f04:	bd70      	pop	{r4, r5, r6, pc}
  402f06:	bf00      	nop
  402f08:	06acfc00 	.word	0x06acfc00
  402f0c:	40010000 	.word	0x40010000
  402f10:	20000588 	.word	0x20000588
  402f14:	e000e100 	.word	0xe000e100

00402f18 <wdt_setup>:
  402f18:	b510      	push	{r4, lr}
  402f1a:	f44f 4100 	mov.w	r1, #32768	; 0x8000
  402f1e:	4805      	ldr	r0, [pc, #20]	; (402f34 <wdt_setup+0x1c>)
  402f20:	f7fe ff1e 	bl	401d60 <wdt_get_timeout_value>
  402f24:	b283      	uxth	r3, r0
  402f26:	461a      	mov	r2, r3
  402f28:	4903      	ldr	r1, [pc, #12]	; (402f38 <wdt_setup+0x20>)
  402f2a:	4804      	ldr	r0, [pc, #16]	; (402f3c <wdt_setup+0x24>)
  402f2c:	e8bd 4010 	ldmia.w	sp!, {r4, lr}
  402f30:	f7fe bf2a 	b.w	401d88 <wdt_init>
  402f34:	0007a120 	.word	0x0007a120
  402f38:	30002000 	.word	0x30002000
  402f3c:	400e1450 	.word	0x400e1450

00402f40 <assign_default_name>:
  402f40:	b530      	push	{r4, r5, lr}
  402f42:	b099      	sub	sp, #100	; 0x64
  402f44:	ac08      	add	r4, sp, #32
  402f46:	2110      	movs	r1, #16
  402f48:	4620      	mov	r0, r4
  402f4a:	f7fe ff8d 	bl	401e68 <flash_read_user_signature>
  402f4e:	9b08      	ldr	r3, [sp, #32]
  402f50:	3301      	adds	r3, #1
  402f52:	d117      	bne.n	402f84 <assign_default_name+0x44>
  402f54:	2104      	movs	r1, #4
  402f56:	4668      	mov	r0, sp
  402f58:	ad04      	add	r5, sp, #16
  402f5a:	f7fe ff65 	bl	401e28 <flash_read_unique_id>
  402f5e:	9a03      	ldr	r2, [sp, #12]
  402f60:	4909      	ldr	r1, [pc, #36]	; (402f88 <assign_default_name+0x48>)
  402f62:	4628      	mov	r0, r5
  402f64:	f000 f9d0 	bl	403308 <siprintf>
  402f68:	2300      	movs	r3, #0
  402f6a:	5cea      	ldrb	r2, [r5, r3]
  402f6c:	f844 2023 	str.w	r2, [r4, r3, lsl #2]
  402f70:	b112      	cbz	r2, 402f78 <assign_default_name+0x38>
  402f72:	3301      	adds	r3, #1
  402f74:	2b10      	cmp	r3, #16
  402f76:	d1f8      	bne.n	402f6a <assign_default_name+0x2a>
  402f78:	f7fe ffb2 	bl	401ee0 <flash_erase_user_signature>
  402f7c:	2110      	movs	r1, #16
  402f7e:	4620      	mov	r0, r4
  402f80:	f7fe ff86 	bl	401e90 <flash_write_user_signature>
  402f84:	b019      	add	sp, #100	; 0x64
  402f86:	bd30      	pop	{r4, r5, pc}
  402f88:	00403a57 	.word	0x00403a57

00402f8c <main>:
  402f8c:	b580      	push	{r7, lr}
  402f8e:	f247 0005 	movw	r0, #28677	; 0x7005
  402f92:	f000 f8e9 	bl	403168 <malloc>
  402f96:	4b33      	ldr	r3, [pc, #204]	; (403064 <main+0xd8>)
  402f98:	4e33      	ldr	r6, [pc, #204]	; (403068 <main+0xdc>)
  402f9a:	6018      	str	r0, [r3, #0]
  402f9c:	f247 0005 	movw	r0, #28677	; 0x7005
  402fa0:	f000 f8e2 	bl	403168 <malloc>
  402fa4:	4b31      	ldr	r3, [pc, #196]	; (40306c <main+0xe0>)
  402fa6:	6018      	str	r0, [r3, #0]
  402fa8:	2020      	movs	r0, #32
  402faa:	f000 f8dd 	bl	403168 <malloc>
  402fae:	4b30      	ldr	r3, [pc, #192]	; (403070 <main+0xe4>)
  402fb0:	6018      	str	r0, [r3, #0]
  402fb2:	f7fe ffdb 	bl	401f6c <sysclk_init>
  402fb6:	f7ff f9bb 	bl	402330 <pmc_disable_all_periph_clk>
  402fba:	f7ff f96b 	bl	402294 <pmc_disable_pllbck>
  402fbe:	f7ff ff51 	bl	402e64 <dac_init>
  402fc2:	f7ff fef9 	bl	402db8 <spi_init>
  402fc6:	f7ff fee3 	bl	402d90 <iopins_init>
  402fca:	2301      	movs	r3, #1
  402fcc:	7033      	strb	r3, [r6, #0]
  402fce:	f3bf 8f5f 	dmb	sy
  402fd2:	b662      	cpsie	i
  402fd4:	4d27      	ldr	r5, [pc, #156]	; (403074 <main+0xe8>)
  402fd6:	4f28      	ldr	r7, [pc, #160]	; (403078 <main+0xec>)
  402fd8:	716b      	strb	r3, [r5, #5]
  402fda:	2400      	movs	r4, #0
  402fdc:	702c      	strb	r4, [r5, #0]
  402fde:	706c      	strb	r4, [r5, #1]
  402fe0:	70ac      	strb	r4, [r5, #2]
  402fe2:	70ec      	strb	r4, [r5, #3]
  402fe4:	712c      	strb	r4, [r5, #4]
  402fe6:	f7fd f989 	bl	4002fc <udc_start>
  402fea:	f7ff ff95 	bl	402f18 <wdt_setup>
  402fee:	f7ff ff55 	bl	402e9c <timer_init>
  402ff2:	2104      	movs	r1, #4
  402ff4:	4620      	mov	r0, r4
  402ff6:	f7fe fedd 	bl	401db4 <flash_init>
  402ffa:	4b20      	ldr	r3, [pc, #128]	; (40307c <main+0xf0>)
  402ffc:	2220      	movs	r2, #32
  402ffe:	f883 2322 	strb.w	r2, [r3, #802]	; 0x322
  403002:	2210      	movs	r2, #16
  403004:	f883 2c23 	strb.w	r2, [r3, #3107]	; 0xc23
  403008:	4b1d      	ldr	r3, [pc, #116]	; (403080 <main+0xf4>)
  40300a:	f44f 1280 	mov.w	r2, #1048576	; 0x100000
  40300e:	635a      	str	r2, [r3, #52]	; 0x34
  403010:	f44f 0280 	mov.w	r2, #4194304	; 0x400000
  403014:	635a      	str	r2, [r3, #52]	; 0x34
  403016:	f44f 0200 	mov.w	r2, #8388608	; 0x800000
  40301a:	631a      	str	r2, [r3, #48]	; 0x30
  40301c:	f7ff fc46 	bl	4028ac <stop_weak>
  403020:	2003      	movs	r0, #3
  403022:	f7ff fc27 	bl	402874 <sleepmgr_lock_mode>
  403026:	f7ff ff8b 	bl	402f40 <assign_default_name>
  40302a:	4638      	mov	r0, r7
  40302c:	f7fe feb8 	bl	401da0 <wdt_restart>
  403030:	b672      	cpsid	i
  403032:	f3bf 8f5f 	dmb	sy
  403036:	2300      	movs	r3, #0
  403038:	7034      	strb	r4, [r6, #0]
  40303a:	b2d8      	uxtb	r0, r3
  40303c:	1c5a      	adds	r2, r3, #1
  40303e:	5ceb      	ldrb	r3, [r5, r3]
  403040:	b133      	cbz	r3, 403050 <main+0xc4>
  403042:	b938      	cbnz	r0, 403054 <main+0xc8>
  403044:	2301      	movs	r3, #1
  403046:	7033      	strb	r3, [r6, #0]
  403048:	f3bf 8f5f 	dmb	sy
  40304c:	b662      	cpsie	i
  40304e:	e7ec      	b.n	40302a <main+0x9e>
  403050:	4613      	mov	r3, r2
  403052:	e7f2      	b.n	40303a <main+0xae>
  403054:	b672      	cpsid	i
  403056:	f3bf 8f5f 	dmb	sy
  40305a:	7034      	strb	r4, [r6, #0]
  40305c:	f7ff f9c0 	bl	4023e0 <pmc_sleep>
  403060:	e7e3      	b.n	40302a <main+0x9e>
  403062:	bf00      	nop
  403064:	20000584 	.word	0x20000584
  403068:	20000150 	.word	0x20000150
  40306c:	2000057c 	.word	0x2000057c
  403070:	20000580 	.word	0x20000580
  403074:	20000554 	.word	0x20000554
  403078:	400e1450 	.word	0x400e1450
  40307c:	e000e100 	.word	0xe000e100
  403080:	400e0e00 	.word	0x400e0e00

00403084 <msft_string_handle>:
  403084:	b530      	push	{r4, r5, lr}
  403086:	4a11      	ldr	r2, [pc, #68]	; (4030cc <msft_string_handle+0x48>)
  403088:	b085      	sub	sp, #20
  40308a:	6810      	ldr	r0, [r2, #0]
  40308c:	6851      	ldr	r1, [r2, #4]
  40308e:	7a12      	ldrb	r2, [r2, #8]
  403090:	ab01      	add	r3, sp, #4
  403092:	c303      	stmia	r3!, {r0, r1}
  403094:	701a      	strb	r2, [r3, #0]
  403096:	4b0e      	ldr	r3, [pc, #56]	; (4030d0 <msft_string_handle+0x4c>)
  403098:	789a      	ldrb	r2, [r3, #2]
  40309a:	2aee      	cmp	r2, #238	; 0xee
  40309c:	ad01      	add	r5, sp, #4
  40309e:	d112      	bne.n	4030c6 <msft_string_handle+0x42>
  4030a0:	490c      	ldr	r1, [pc, #48]	; (4030d4 <msft_string_handle+0x50>)
  4030a2:	2200      	movs	r2, #0
  4030a4:	4608      	mov	r0, r1
  4030a6:	5cac      	ldrb	r4, [r5, r2]
  4030a8:	f821 4f02 	strh.w	r4, [r1, #2]!
  4030ac:	3201      	adds	r2, #1
  4030ae:	2a08      	cmp	r2, #8
  4030b0:	d1f9      	bne.n	4030a6 <msft_string_handle+0x22>
  4030b2:	2212      	movs	r2, #18
  4030b4:	7002      	strb	r2, [r0, #0]
  4030b6:	819a      	strh	r2, [r3, #12]
  4030b8:	88da      	ldrh	r2, [r3, #6]
  4030ba:	6098      	str	r0, [r3, #8]
  4030bc:	2a11      	cmp	r2, #17
  4030be:	d800      	bhi.n	4030c2 <msft_string_handle+0x3e>
  4030c0:	819a      	strh	r2, [r3, #12]
  4030c2:	2001      	movs	r0, #1
  4030c4:	e000      	b.n	4030c8 <msft_string_handle+0x44>
  4030c6:	2000      	movs	r0, #0
  4030c8:	b005      	add	sp, #20
  4030ca:	bd30      	pop	{r4, r5, pc}
  4030cc:	00403a62 	.word	0x00403a62
  4030d0:	2000055c 	.word	0x2000055c
  4030d4:	20000158 	.word	0x20000158

004030d8 <usb_device_specific_request>:
  4030d8:	4b0f      	ldr	r3, [pc, #60]	; (403118 <usb_device_specific_request+0x40>)
  4030da:	781a      	ldrb	r2, [r3, #0]
  4030dc:	f002 0260 	and.w	r2, r2, #96	; 0x60
  4030e0:	2a40      	cmp	r2, #64	; 0x40
  4030e2:	d111      	bne.n	403108 <usb_device_specific_request+0x30>
  4030e4:	785a      	ldrb	r2, [r3, #1]
  4030e6:	2a30      	cmp	r2, #48	; 0x30
  4030e8:	d10e      	bne.n	403108 <usb_device_specific_request+0x30>
  4030ea:	889a      	ldrh	r2, [r3, #4]
  4030ec:	2a04      	cmp	r2, #4
  4030ee:	d110      	bne.n	403112 <usb_device_specific_request+0x3a>
  4030f0:	490a      	ldr	r1, [pc, #40]	; (40311c <usb_device_specific_request+0x44>)
  4030f2:	88da      	ldrh	r2, [r3, #6]
  4030f4:	6808      	ldr	r0, [r1, #0]
  4030f6:	4282      	cmp	r2, r0
  4030f8:	d900      	bls.n	4030fc <usb_device_specific_request+0x24>
  4030fa:	b282      	uxth	r2, r0
  4030fc:	819a      	strh	r2, [r3, #12]
  4030fe:	b932      	cbnz	r2, 40310e <usb_device_specific_request+0x36>
  403100:	611a      	str	r2, [r3, #16]
  403102:	615a      	str	r2, [r3, #20]
  403104:	2001      	movs	r0, #1
  403106:	4770      	bx	lr
  403108:	2200      	movs	r2, #0
  40310a:	4611      	mov	r1, r2
  40310c:	e7f6      	b.n	4030fc <usb_device_specific_request+0x24>
  40310e:	6099      	str	r1, [r3, #8]
  403110:	e7f8      	b.n	403104 <usb_device_specific_request+0x2c>
  403112:	2000      	movs	r0, #0
  403114:	4770      	bx	lr
  403116:	bf00      	nop
  403118:	2000055c 	.word	0x2000055c
  40311c:	2000016c 	.word	0x2000016c

00403120 <__libc_init_array>:
  403120:	b570      	push	{r4, r5, r6, lr}
  403122:	4e0d      	ldr	r6, [pc, #52]	; (403158 <__libc_init_array+0x38>)
  403124:	4c0d      	ldr	r4, [pc, #52]	; (40315c <__libc_init_array+0x3c>)
  403126:	1ba4      	subs	r4, r4, r6
  403128:	10a4      	asrs	r4, r4, #2
  40312a:	2500      	movs	r5, #0
  40312c:	42a5      	cmp	r5, r4
  40312e:	d109      	bne.n	403144 <__libc_init_array+0x24>
  403130:	4e0b      	ldr	r6, [pc, #44]	; (403160 <__libc_init_array+0x40>)
  403132:	4c0c      	ldr	r4, [pc, #48]	; (403164 <__libc_init_array+0x44>)
  403134:	f000 fce4 	bl	403b00 <_init>
  403138:	1ba4      	subs	r4, r4, r6
  40313a:	10a4      	asrs	r4, r4, #2
  40313c:	2500      	movs	r5, #0
  40313e:	42a5      	cmp	r5, r4
  403140:	d105      	bne.n	40314e <__libc_init_array+0x2e>
  403142:	bd70      	pop	{r4, r5, r6, pc}
  403144:	f856 3025 	ldr.w	r3, [r6, r5, lsl #2]
  403148:	4798      	blx	r3
  40314a:	3501      	adds	r5, #1
  40314c:	e7ee      	b.n	40312c <__libc_init_array+0xc>
  40314e:	f856 3025 	ldr.w	r3, [r6, r5, lsl #2]
  403152:	4798      	blx	r3
  403154:	3501      	adds	r5, #1
  403156:	e7f2      	b.n	40313e <__libc_init_array+0x1e>
  403158:	00403b0c 	.word	0x00403b0c
  40315c:	00403b0c 	.word	0x00403b0c
  403160:	00403b0c 	.word	0x00403b0c
  403164:	00403b10 	.word	0x00403b10

00403168 <malloc>:
  403168:	4b02      	ldr	r3, [pc, #8]	; (403174 <malloc+0xc>)
  40316a:	4601      	mov	r1, r0
  40316c:	6818      	ldr	r0, [r3, #0]
  40316e:	f000 b85d 	b.w	40322c <_malloc_r>
  403172:	bf00      	nop
  403174:	200001a0 	.word	0x200001a0

00403178 <memcpy>:
  403178:	b510      	push	{r4, lr}
  40317a:	1e43      	subs	r3, r0, #1
  40317c:	440a      	add	r2, r1
  40317e:	4291      	cmp	r1, r2
  403180:	d100      	bne.n	403184 <memcpy+0xc>
  403182:	bd10      	pop	{r4, pc}
  403184:	f811 4b01 	ldrb.w	r4, [r1], #1
  403188:	f803 4f01 	strb.w	r4, [r3, #1]!
  40318c:	e7f7      	b.n	40317e <memcpy+0x6>
	...

00403190 <_free_r>:
  403190:	b538      	push	{r3, r4, r5, lr}
  403192:	4605      	mov	r5, r0
  403194:	2900      	cmp	r1, #0
  403196:	d045      	beq.n	403224 <_free_r+0x94>
  403198:	f851 3c04 	ldr.w	r3, [r1, #-4]
  40319c:	1f0c      	subs	r4, r1, #4
  40319e:	2b00      	cmp	r3, #0
  4031a0:	bfb8      	it	lt
  4031a2:	18e4      	addlt	r4, r4, r3
  4031a4:	f000 f8d4 	bl	403350 <__malloc_lock>
  4031a8:	4a1f      	ldr	r2, [pc, #124]	; (403228 <_free_r+0x98>)
  4031aa:	6813      	ldr	r3, [r2, #0]
  4031ac:	4610      	mov	r0, r2
  4031ae:	b933      	cbnz	r3, 4031be <_free_r+0x2e>
  4031b0:	6063      	str	r3, [r4, #4]
  4031b2:	6014      	str	r4, [r2, #0]
  4031b4:	4628      	mov	r0, r5
  4031b6:	e8bd 4038 	ldmia.w	sp!, {r3, r4, r5, lr}
  4031ba:	f000 b8ca 	b.w	403352 <__malloc_unlock>
  4031be:	42a3      	cmp	r3, r4
  4031c0:	d90c      	bls.n	4031dc <_free_r+0x4c>
  4031c2:	6821      	ldr	r1, [r4, #0]
  4031c4:	1862      	adds	r2, r4, r1
  4031c6:	4293      	cmp	r3, r2
  4031c8:	bf04      	itt	eq
  4031ca:	681a      	ldreq	r2, [r3, #0]
  4031cc:	685b      	ldreq	r3, [r3, #4]
  4031ce:	6063      	str	r3, [r4, #4]
  4031d0:	bf04      	itt	eq
  4031d2:	1852      	addeq	r2, r2, r1
  4031d4:	6022      	streq	r2, [r4, #0]
  4031d6:	6004      	str	r4, [r0, #0]
  4031d8:	e7ec      	b.n	4031b4 <_free_r+0x24>
  4031da:	4613      	mov	r3, r2
  4031dc:	685a      	ldr	r2, [r3, #4]
  4031de:	b10a      	cbz	r2, 4031e4 <_free_r+0x54>
  4031e0:	42a2      	cmp	r2, r4
  4031e2:	d9fa      	bls.n	4031da <_free_r+0x4a>
  4031e4:	6819      	ldr	r1, [r3, #0]
  4031e6:	1858      	adds	r0, r3, r1
  4031e8:	42a0      	cmp	r0, r4
  4031ea:	d10b      	bne.n	403204 <_free_r+0x74>
  4031ec:	6820      	ldr	r0, [r4, #0]
  4031ee:	4401      	add	r1, r0
  4031f0:	1858      	adds	r0, r3, r1
  4031f2:	4282      	cmp	r2, r0
  4031f4:	6019      	str	r1, [r3, #0]
  4031f6:	d1dd      	bne.n	4031b4 <_free_r+0x24>
  4031f8:	6810      	ldr	r0, [r2, #0]
  4031fa:	6852      	ldr	r2, [r2, #4]
  4031fc:	605a      	str	r2, [r3, #4]
  4031fe:	4401      	add	r1, r0
  403200:	6019      	str	r1, [r3, #0]
  403202:	e7d7      	b.n	4031b4 <_free_r+0x24>
  403204:	d902      	bls.n	40320c <_free_r+0x7c>
  403206:	230c      	movs	r3, #12
  403208:	602b      	str	r3, [r5, #0]
  40320a:	e7d3      	b.n	4031b4 <_free_r+0x24>
  40320c:	6820      	ldr	r0, [r4, #0]
  40320e:	1821      	adds	r1, r4, r0
  403210:	428a      	cmp	r2, r1
  403212:	bf04      	itt	eq
  403214:	6811      	ldreq	r1, [r2, #0]
  403216:	6852      	ldreq	r2, [r2, #4]
  403218:	6062      	str	r2, [r4, #4]
  40321a:	bf04      	itt	eq
  40321c:	1809      	addeq	r1, r1, r0
  40321e:	6021      	streq	r1, [r4, #0]
  403220:	605c      	str	r4, [r3, #4]
  403222:	e7c7      	b.n	4031b4 <_free_r+0x24>
  403224:	bd38      	pop	{r3, r4, r5, pc}
  403226:	bf00      	nop
  403228:	2000054c 	.word	0x2000054c

0040322c <_malloc_r>:
  40322c:	b570      	push	{r4, r5, r6, lr}
  40322e:	1ccd      	adds	r5, r1, #3
  403230:	f025 0503 	bic.w	r5, r5, #3
  403234:	3508      	adds	r5, #8
  403236:	2d0c      	cmp	r5, #12
  403238:	bf38      	it	cc
  40323a:	250c      	movcc	r5, #12
  40323c:	2d00      	cmp	r5, #0
  40323e:	4606      	mov	r6, r0
  403240:	db01      	blt.n	403246 <_malloc_r+0x1a>
  403242:	42a9      	cmp	r1, r5
  403244:	d903      	bls.n	40324e <_malloc_r+0x22>
  403246:	230c      	movs	r3, #12
  403248:	6033      	str	r3, [r6, #0]
  40324a:	2000      	movs	r0, #0
  40324c:	bd70      	pop	{r4, r5, r6, pc}
  40324e:	f000 f87f 	bl	403350 <__malloc_lock>
  403252:	4a23      	ldr	r2, [pc, #140]	; (4032e0 <_malloc_r+0xb4>)
  403254:	6814      	ldr	r4, [r2, #0]
  403256:	4621      	mov	r1, r4
  403258:	b991      	cbnz	r1, 403280 <_malloc_r+0x54>
  40325a:	4c22      	ldr	r4, [pc, #136]	; (4032e4 <_malloc_r+0xb8>)
  40325c:	6823      	ldr	r3, [r4, #0]
  40325e:	b91b      	cbnz	r3, 403268 <_malloc_r+0x3c>
  403260:	4630      	mov	r0, r6
  403262:	f000 f841 	bl	4032e8 <_sbrk_r>
  403266:	6020      	str	r0, [r4, #0]
  403268:	4629      	mov	r1, r5
  40326a:	4630      	mov	r0, r6
  40326c:	f000 f83c 	bl	4032e8 <_sbrk_r>
  403270:	1c43      	adds	r3, r0, #1
  403272:	d126      	bne.n	4032c2 <_malloc_r+0x96>
  403274:	230c      	movs	r3, #12
  403276:	6033      	str	r3, [r6, #0]
  403278:	4630      	mov	r0, r6
  40327a:	f000 f86a 	bl	403352 <__malloc_unlock>
  40327e:	e7e4      	b.n	40324a <_malloc_r+0x1e>
  403280:	680b      	ldr	r3, [r1, #0]
  403282:	1b5b      	subs	r3, r3, r5
  403284:	d41a      	bmi.n	4032bc <_malloc_r+0x90>
  403286:	2b0b      	cmp	r3, #11
  403288:	d90f      	bls.n	4032aa <_malloc_r+0x7e>
  40328a:	600b      	str	r3, [r1, #0]
  40328c:	50cd      	str	r5, [r1, r3]
  40328e:	18cc      	adds	r4, r1, r3
  403290:	4630      	mov	r0, r6
  403292:	f000 f85e 	bl	403352 <__malloc_unlock>
  403296:	f104 000b 	add.w	r0, r4, #11
  40329a:	1d23      	adds	r3, r4, #4
  40329c:	f020 0007 	bic.w	r0, r0, #7
  4032a0:	1ac3      	subs	r3, r0, r3
  4032a2:	d01b      	beq.n	4032dc <_malloc_r+0xb0>
  4032a4:	425a      	negs	r2, r3
  4032a6:	50e2      	str	r2, [r4, r3]
  4032a8:	bd70      	pop	{r4, r5, r6, pc}
  4032aa:	428c      	cmp	r4, r1
  4032ac:	bf0d      	iteet	eq
  4032ae:	6863      	ldreq	r3, [r4, #4]
  4032b0:	684b      	ldrne	r3, [r1, #4]
  4032b2:	6063      	strne	r3, [r4, #4]
  4032b4:	6013      	streq	r3, [r2, #0]
  4032b6:	bf18      	it	ne
  4032b8:	460c      	movne	r4, r1
  4032ba:	e7e9      	b.n	403290 <_malloc_r+0x64>
  4032bc:	460c      	mov	r4, r1
  4032be:	6849      	ldr	r1, [r1, #4]
  4032c0:	e7ca      	b.n	403258 <_malloc_r+0x2c>
  4032c2:	1cc4      	adds	r4, r0, #3
  4032c4:	f024 0403 	bic.w	r4, r4, #3
  4032c8:	42a0      	cmp	r0, r4
  4032ca:	d005      	beq.n	4032d8 <_malloc_r+0xac>
  4032cc:	1a21      	subs	r1, r4, r0
  4032ce:	4630      	mov	r0, r6
  4032d0:	f000 f80a 	bl	4032e8 <_sbrk_r>
  4032d4:	3001      	adds	r0, #1
  4032d6:	d0cd      	beq.n	403274 <_malloc_r+0x48>
  4032d8:	6025      	str	r5, [r4, #0]
  4032da:	e7d9      	b.n	403290 <_malloc_r+0x64>
  4032dc:	bd70      	pop	{r4, r5, r6, pc}
  4032de:	bf00      	nop
  4032e0:	2000054c 	.word	0x2000054c
  4032e4:	20000550 	.word	0x20000550

004032e8 <_sbrk_r>:
  4032e8:	b538      	push	{r3, r4, r5, lr}
  4032ea:	4c06      	ldr	r4, [pc, #24]	; (403304 <_sbrk_r+0x1c>)
  4032ec:	2300      	movs	r3, #0
  4032ee:	4605      	mov	r5, r0
  4032f0:	4608      	mov	r0, r1
  4032f2:	6023      	str	r3, [r4, #0]
  4032f4:	f7ff fa8c 	bl	402810 <_sbrk>
  4032f8:	1c43      	adds	r3, r0, #1
  4032fa:	d102      	bne.n	403302 <_sbrk_r+0x1a>
  4032fc:	6823      	ldr	r3, [r4, #0]
  4032fe:	b103      	cbz	r3, 403302 <_sbrk_r+0x1a>
  403300:	602b      	str	r3, [r5, #0]
  403302:	bd38      	pop	{r3, r4, r5, pc}
  403304:	2000058c 	.word	0x2000058c

00403308 <siprintf>:
  403308:	b40e      	push	{r1, r2, r3}
  40330a:	b500      	push	{lr}
  40330c:	b09c      	sub	sp, #112	; 0x70
  40330e:	f44f 7102 	mov.w	r1, #520	; 0x208
  403312:	ab1d      	add	r3, sp, #116	; 0x74
  403314:	f8ad 1014 	strh.w	r1, [sp, #20]
  403318:	9002      	str	r0, [sp, #8]
  40331a:	9006      	str	r0, [sp, #24]
  40331c:	f06f 4100 	mvn.w	r1, #2147483648	; 0x80000000
  403320:	480a      	ldr	r0, [pc, #40]	; (40334c <siprintf+0x44>)
  403322:	9104      	str	r1, [sp, #16]
  403324:	9107      	str	r1, [sp, #28]
  403326:	f64f 71ff 	movw	r1, #65535	; 0xffff
  40332a:	f853 2b04 	ldr.w	r2, [r3], #4
  40332e:	f8ad 1016 	strh.w	r1, [sp, #22]
  403332:	6800      	ldr	r0, [r0, #0]
  403334:	9301      	str	r3, [sp, #4]
  403336:	a902      	add	r1, sp, #8
  403338:	f000 f868 	bl	40340c <_svfiprintf_r>
  40333c:	9b02      	ldr	r3, [sp, #8]
  40333e:	2200      	movs	r2, #0
  403340:	701a      	strb	r2, [r3, #0]
  403342:	b01c      	add	sp, #112	; 0x70
  403344:	f85d eb04 	ldr.w	lr, [sp], #4
  403348:	b003      	add	sp, #12
  40334a:	4770      	bx	lr
  40334c:	200001a0 	.word	0x200001a0

00403350 <__malloc_lock>:
  403350:	4770      	bx	lr

00403352 <__malloc_unlock>:
  403352:	4770      	bx	lr

00403354 <__ssputs_r>:
  403354:	e92d 47f0 	stmdb	sp!, {r4, r5, r6, r7, r8, r9, sl, lr}
  403358:	688e      	ldr	r6, [r1, #8]
  40335a:	429e      	cmp	r6, r3
  40335c:	4682      	mov	sl, r0
  40335e:	460c      	mov	r4, r1
  403360:	4691      	mov	r9, r2
  403362:	4698      	mov	r8, r3
  403364:	d835      	bhi.n	4033d2 <__ssputs_r+0x7e>
  403366:	898a      	ldrh	r2, [r1, #12]
  403368:	f412 6f90 	tst.w	r2, #1152	; 0x480
  40336c:	d031      	beq.n	4033d2 <__ssputs_r+0x7e>
  40336e:	6825      	ldr	r5, [r4, #0]
  403370:	6909      	ldr	r1, [r1, #16]
  403372:	1a6f      	subs	r7, r5, r1
  403374:	6965      	ldr	r5, [r4, #20]
  403376:	2302      	movs	r3, #2
  403378:	eb05 0545 	add.w	r5, r5, r5, lsl #1
  40337c:	fb95 f5f3 	sdiv	r5, r5, r3
  403380:	f108 0301 	add.w	r3, r8, #1
  403384:	443b      	add	r3, r7
  403386:	429d      	cmp	r5, r3
  403388:	bf38      	it	cc
  40338a:	461d      	movcc	r5, r3
  40338c:	0553      	lsls	r3, r2, #21
  40338e:	d531      	bpl.n	4033f4 <__ssputs_r+0xa0>
  403390:	4629      	mov	r1, r5
  403392:	f7ff ff4b 	bl	40322c <_malloc_r>
  403396:	4606      	mov	r6, r0
  403398:	b950      	cbnz	r0, 4033b0 <__ssputs_r+0x5c>
  40339a:	230c      	movs	r3, #12
  40339c:	f8ca 3000 	str.w	r3, [sl]
  4033a0:	89a3      	ldrh	r3, [r4, #12]
  4033a2:	f043 0340 	orr.w	r3, r3, #64	; 0x40
  4033a6:	81a3      	strh	r3, [r4, #12]
  4033a8:	f04f 30ff 	mov.w	r0, #4294967295
  4033ac:	e8bd 87f0 	ldmia.w	sp!, {r4, r5, r6, r7, r8, r9, sl, pc}
  4033b0:	463a      	mov	r2, r7
  4033b2:	6921      	ldr	r1, [r4, #16]
  4033b4:	f7ff fee0 	bl	403178 <memcpy>
  4033b8:	89a3      	ldrh	r3, [r4, #12]
  4033ba:	f423 6390 	bic.w	r3, r3, #1152	; 0x480
  4033be:	f043 0380 	orr.w	r3, r3, #128	; 0x80
  4033c2:	81a3      	strh	r3, [r4, #12]
  4033c4:	6126      	str	r6, [r4, #16]
  4033c6:	6165      	str	r5, [r4, #20]
  4033c8:	443e      	add	r6, r7
  4033ca:	1bed      	subs	r5, r5, r7
  4033cc:	6026      	str	r6, [r4, #0]
  4033ce:	60a5      	str	r5, [r4, #8]
  4033d0:	4646      	mov	r6, r8
  4033d2:	4546      	cmp	r6, r8
  4033d4:	bf28      	it	cs
  4033d6:	4646      	movcs	r6, r8
  4033d8:	4632      	mov	r2, r6
  4033da:	4649      	mov	r1, r9
  4033dc:	6820      	ldr	r0, [r4, #0]
  4033de:	f000 faef 	bl	4039c0 <memmove>
  4033e2:	68a3      	ldr	r3, [r4, #8]
  4033e4:	1b9b      	subs	r3, r3, r6
  4033e6:	60a3      	str	r3, [r4, #8]
  4033e8:	6823      	ldr	r3, [r4, #0]
  4033ea:	441e      	add	r6, r3
  4033ec:	6026      	str	r6, [r4, #0]
  4033ee:	2000      	movs	r0, #0
  4033f0:	e8bd 87f0 	ldmia.w	sp!, {r4, r5, r6, r7, r8, r9, sl, pc}
  4033f4:	462a      	mov	r2, r5
  4033f6:	f000 fafd 	bl	4039f4 <_realloc_r>
  4033fa:	4606      	mov	r6, r0
  4033fc:	2800      	cmp	r0, #0
  4033fe:	d1e1      	bne.n	4033c4 <__ssputs_r+0x70>
  403400:	6921      	ldr	r1, [r4, #16]
  403402:	4650      	mov	r0, sl
  403404:	f7ff fec4 	bl	403190 <_free_r>
  403408:	e7c7      	b.n	40339a <__ssputs_r+0x46>
	...

0040340c <_svfiprintf_r>:
  40340c:	e92d 4ff0 	stmdb	sp!, {r4, r5, r6, r7, r8, r9, sl, fp, lr}
  403410:	b09d      	sub	sp, #116	; 0x74
  403412:	4680      	mov	r8, r0
  403414:	9303      	str	r3, [sp, #12]
  403416:	898b      	ldrh	r3, [r1, #12]
  403418:	061c      	lsls	r4, r3, #24
  40341a:	460d      	mov	r5, r1
  40341c:	4616      	mov	r6, r2
  40341e:	d50f      	bpl.n	403440 <_svfiprintf_r+0x34>
  403420:	690b      	ldr	r3, [r1, #16]
  403422:	b96b      	cbnz	r3, 403440 <_svfiprintf_r+0x34>
  403424:	2140      	movs	r1, #64	; 0x40
  403426:	f7ff ff01 	bl	40322c <_malloc_r>
  40342a:	6028      	str	r0, [r5, #0]
  40342c:	6128      	str	r0, [r5, #16]
  40342e:	b928      	cbnz	r0, 40343c <_svfiprintf_r+0x30>
  403430:	230c      	movs	r3, #12
  403432:	f8c8 3000 	str.w	r3, [r8]
  403436:	f04f 30ff 	mov.w	r0, #4294967295
  40343a:	e0c5      	b.n	4035c8 <_svfiprintf_r+0x1bc>
  40343c:	2340      	movs	r3, #64	; 0x40
  40343e:	616b      	str	r3, [r5, #20]
  403440:	2300      	movs	r3, #0
  403442:	9309      	str	r3, [sp, #36]	; 0x24
  403444:	2320      	movs	r3, #32
  403446:	f88d 3029 	strb.w	r3, [sp, #41]	; 0x29
  40344a:	2330      	movs	r3, #48	; 0x30
  40344c:	f88d 302a 	strb.w	r3, [sp, #42]	; 0x2a
  403450:	f04f 0b01 	mov.w	fp, #1
  403454:	4637      	mov	r7, r6
  403456:	463c      	mov	r4, r7
  403458:	f814 3b01 	ldrb.w	r3, [r4], #1
  40345c:	2b00      	cmp	r3, #0
  40345e:	d13c      	bne.n	4034da <_svfiprintf_r+0xce>
  403460:	ebb7 0a06 	subs.w	sl, r7, r6
  403464:	d00b      	beq.n	40347e <_svfiprintf_r+0x72>
  403466:	4653      	mov	r3, sl
  403468:	4632      	mov	r2, r6
  40346a:	4629      	mov	r1, r5
  40346c:	4640      	mov	r0, r8
  40346e:	f7ff ff71 	bl	403354 <__ssputs_r>
  403472:	3001      	adds	r0, #1
  403474:	f000 80a3 	beq.w	4035be <_svfiprintf_r+0x1b2>
  403478:	9b09      	ldr	r3, [sp, #36]	; 0x24
  40347a:	4453      	add	r3, sl
  40347c:	9309      	str	r3, [sp, #36]	; 0x24
  40347e:	783b      	ldrb	r3, [r7, #0]
  403480:	2b00      	cmp	r3, #0
  403482:	f000 809c 	beq.w	4035be <_svfiprintf_r+0x1b2>
  403486:	2300      	movs	r3, #0
  403488:	f04f 32ff 	mov.w	r2, #4294967295
  40348c:	9304      	str	r3, [sp, #16]
  40348e:	9307      	str	r3, [sp, #28]
  403490:	9205      	str	r2, [sp, #20]
  403492:	9306      	str	r3, [sp, #24]
  403494:	f88d 3053 	strb.w	r3, [sp, #83]	; 0x53
  403498:	931a      	str	r3, [sp, #104]	; 0x68
  40349a:	2205      	movs	r2, #5
  40349c:	7821      	ldrb	r1, [r4, #0]
  40349e:	4850      	ldr	r0, [pc, #320]	; (4035e0 <_svfiprintf_r+0x1d4>)
  4034a0:	f000 fa3e 	bl	403920 <memchr>
  4034a4:	1c67      	adds	r7, r4, #1
  4034a6:	9b04      	ldr	r3, [sp, #16]
  4034a8:	b9d8      	cbnz	r0, 4034e2 <_svfiprintf_r+0xd6>
  4034aa:	06d9      	lsls	r1, r3, #27
  4034ac:	bf44      	itt	mi
  4034ae:	2220      	movmi	r2, #32
  4034b0:	f88d 2053 	strbmi.w	r2, [sp, #83]	; 0x53
  4034b4:	071a      	lsls	r2, r3, #28
  4034b6:	bf44      	itt	mi
  4034b8:	222b      	movmi	r2, #43	; 0x2b
  4034ba:	f88d 2053 	strbmi.w	r2, [sp, #83]	; 0x53
  4034be:	7822      	ldrb	r2, [r4, #0]
  4034c0:	2a2a      	cmp	r2, #42	; 0x2a
  4034c2:	d016      	beq.n	4034f2 <_svfiprintf_r+0xe6>
  4034c4:	9a07      	ldr	r2, [sp, #28]
  4034c6:	2100      	movs	r1, #0
  4034c8:	200a      	movs	r0, #10
  4034ca:	4627      	mov	r7, r4
  4034cc:	3401      	adds	r4, #1
  4034ce:	783b      	ldrb	r3, [r7, #0]
  4034d0:	3b30      	subs	r3, #48	; 0x30
  4034d2:	2b09      	cmp	r3, #9
  4034d4:	d951      	bls.n	40357a <_svfiprintf_r+0x16e>
  4034d6:	b1c9      	cbz	r1, 40350c <_svfiprintf_r+0x100>
  4034d8:	e011      	b.n	4034fe <_svfiprintf_r+0xf2>
  4034da:	2b25      	cmp	r3, #37	; 0x25
  4034dc:	d0c0      	beq.n	403460 <_svfiprintf_r+0x54>
  4034de:	4627      	mov	r7, r4
  4034e0:	e7b9      	b.n	403456 <_svfiprintf_r+0x4a>
  4034e2:	4a3f      	ldr	r2, [pc, #252]	; (4035e0 <_svfiprintf_r+0x1d4>)
  4034e4:	1a80      	subs	r0, r0, r2
  4034e6:	fa0b f000 	lsl.w	r0, fp, r0
  4034ea:	4318      	orrs	r0, r3
  4034ec:	9004      	str	r0, [sp, #16]
  4034ee:	463c      	mov	r4, r7
  4034f0:	e7d3      	b.n	40349a <_svfiprintf_r+0x8e>
  4034f2:	9a03      	ldr	r2, [sp, #12]
  4034f4:	1d11      	adds	r1, r2, #4
  4034f6:	6812      	ldr	r2, [r2, #0]
  4034f8:	9103      	str	r1, [sp, #12]
  4034fa:	2a00      	cmp	r2, #0
  4034fc:	db01      	blt.n	403502 <_svfiprintf_r+0xf6>
  4034fe:	9207      	str	r2, [sp, #28]
  403500:	e004      	b.n	40350c <_svfiprintf_r+0x100>
  403502:	4252      	negs	r2, r2
  403504:	f043 0302 	orr.w	r3, r3, #2
  403508:	9207      	str	r2, [sp, #28]
  40350a:	9304      	str	r3, [sp, #16]
  40350c:	783b      	ldrb	r3, [r7, #0]
  40350e:	2b2e      	cmp	r3, #46	; 0x2e
  403510:	d10e      	bne.n	403530 <_svfiprintf_r+0x124>
  403512:	787b      	ldrb	r3, [r7, #1]
  403514:	2b2a      	cmp	r3, #42	; 0x2a
  403516:	f107 0101 	add.w	r1, r7, #1
  40351a:	d132      	bne.n	403582 <_svfiprintf_r+0x176>
  40351c:	9b03      	ldr	r3, [sp, #12]
  40351e:	1d1a      	adds	r2, r3, #4
  403520:	681b      	ldr	r3, [r3, #0]
  403522:	9203      	str	r2, [sp, #12]
  403524:	2b00      	cmp	r3, #0
  403526:	bfb8      	it	lt
  403528:	f04f 33ff 	movlt.w	r3, #4294967295
  40352c:	3702      	adds	r7, #2
  40352e:	9305      	str	r3, [sp, #20]
  403530:	4c2c      	ldr	r4, [pc, #176]	; (4035e4 <_svfiprintf_r+0x1d8>)
  403532:	7839      	ldrb	r1, [r7, #0]
  403534:	2203      	movs	r2, #3
  403536:	4620      	mov	r0, r4
  403538:	f000 f9f2 	bl	403920 <memchr>
  40353c:	b138      	cbz	r0, 40354e <_svfiprintf_r+0x142>
  40353e:	2340      	movs	r3, #64	; 0x40
  403540:	1b00      	subs	r0, r0, r4
  403542:	fa03 f000 	lsl.w	r0, r3, r0
  403546:	9b04      	ldr	r3, [sp, #16]
  403548:	4303      	orrs	r3, r0
  40354a:	9304      	str	r3, [sp, #16]
  40354c:	3701      	adds	r7, #1
  40354e:	7839      	ldrb	r1, [r7, #0]
  403550:	4825      	ldr	r0, [pc, #148]	; (4035e8 <_svfiprintf_r+0x1dc>)
  403552:	f88d 1028 	strb.w	r1, [sp, #40]	; 0x28
  403556:	2206      	movs	r2, #6
  403558:	1c7e      	adds	r6, r7, #1
  40355a:	f000 f9e1 	bl	403920 <memchr>
  40355e:	2800      	cmp	r0, #0
  403560:	d035      	beq.n	4035ce <_svfiprintf_r+0x1c2>
  403562:	4b22      	ldr	r3, [pc, #136]	; (4035ec <_svfiprintf_r+0x1e0>)
  403564:	b9fb      	cbnz	r3, 4035a6 <_svfiprintf_r+0x19a>
  403566:	9b03      	ldr	r3, [sp, #12]
  403568:	3307      	adds	r3, #7
  40356a:	f023 0307 	bic.w	r3, r3, #7
  40356e:	3308      	adds	r3, #8
  403570:	9303      	str	r3, [sp, #12]
  403572:	9b09      	ldr	r3, [sp, #36]	; 0x24
  403574:	444b      	add	r3, r9
  403576:	9309      	str	r3, [sp, #36]	; 0x24
  403578:	e76c      	b.n	403454 <_svfiprintf_r+0x48>
  40357a:	fb00 3202 	mla	r2, r0, r2, r3
  40357e:	2101      	movs	r1, #1
  403580:	e7a3      	b.n	4034ca <_svfiprintf_r+0xbe>
  403582:	2300      	movs	r3, #0
  403584:	9305      	str	r3, [sp, #20]
  403586:	4618      	mov	r0, r3
  403588:	240a      	movs	r4, #10
  40358a:	460f      	mov	r7, r1
  40358c:	3101      	adds	r1, #1
  40358e:	783a      	ldrb	r2, [r7, #0]
  403590:	3a30      	subs	r2, #48	; 0x30
  403592:	2a09      	cmp	r2, #9
  403594:	d903      	bls.n	40359e <_svfiprintf_r+0x192>
  403596:	2b00      	cmp	r3, #0
  403598:	d0ca      	beq.n	403530 <_svfiprintf_r+0x124>
  40359a:	9005      	str	r0, [sp, #20]
  40359c:	e7c8      	b.n	403530 <_svfiprintf_r+0x124>
  40359e:	fb04 2000 	mla	r0, r4, r0, r2
  4035a2:	2301      	movs	r3, #1
  4035a4:	e7f1      	b.n	40358a <_svfiprintf_r+0x17e>
  4035a6:	ab03      	add	r3, sp, #12
  4035a8:	9300      	str	r3, [sp, #0]
  4035aa:	462a      	mov	r2, r5
  4035ac:	4b10      	ldr	r3, [pc, #64]	; (4035f0 <_svfiprintf_r+0x1e4>)
  4035ae:	a904      	add	r1, sp, #16
  4035b0:	4640      	mov	r0, r8
  4035b2:	f3af 8000 	nop.w
  4035b6:	f1b0 3fff 	cmp.w	r0, #4294967295
  4035ba:	4681      	mov	r9, r0
  4035bc:	d1d9      	bne.n	403572 <_svfiprintf_r+0x166>
  4035be:	89ab      	ldrh	r3, [r5, #12]
  4035c0:	065b      	lsls	r3, r3, #25
  4035c2:	f53f af38 	bmi.w	403436 <_svfiprintf_r+0x2a>
  4035c6:	9809      	ldr	r0, [sp, #36]	; 0x24
  4035c8:	b01d      	add	sp, #116	; 0x74
  4035ca:	e8bd 8ff0 	ldmia.w	sp!, {r4, r5, r6, r7, r8, r9, sl, fp, pc}
  4035ce:	ab03      	add	r3, sp, #12
  4035d0:	9300      	str	r3, [sp, #0]
  4035d2:	462a      	mov	r2, r5
  4035d4:	4b06      	ldr	r3, [pc, #24]	; (4035f0 <_svfiprintf_r+0x1e4>)
  4035d6:	a904      	add	r1, sp, #16
  4035d8:	4640      	mov	r0, r8
  4035da:	f000 f881 	bl	4036e0 <_printf_i>
  4035de:	e7ea      	b.n	4035b6 <_svfiprintf_r+0x1aa>
  4035e0:	00403acc 	.word	0x00403acc
  4035e4:	00403ad2 	.word	0x00403ad2
  4035e8:	00403ad6 	.word	0x00403ad6
  4035ec:	00000000 	.word	0x00000000
  4035f0:	00403355 	.word	0x00403355

004035f4 <_printf_common>:
  4035f4:	e92d 47f0 	stmdb	sp!, {r4, r5, r6, r7, r8, r9, sl, lr}
  4035f8:	4691      	mov	r9, r2
  4035fa:	461f      	mov	r7, r3
  4035fc:	688a      	ldr	r2, [r1, #8]
  4035fe:	690b      	ldr	r3, [r1, #16]
  403600:	f8dd 8020 	ldr.w	r8, [sp, #32]
  403604:	4293      	cmp	r3, r2
  403606:	bfb8      	it	lt
  403608:	4613      	movlt	r3, r2
  40360a:	f8c9 3000 	str.w	r3, [r9]
  40360e:	f891 2043 	ldrb.w	r2, [r1, #67]	; 0x43
  403612:	4606      	mov	r6, r0
  403614:	460c      	mov	r4, r1
  403616:	b112      	cbz	r2, 40361e <_printf_common+0x2a>
  403618:	3301      	adds	r3, #1
  40361a:	f8c9 3000 	str.w	r3, [r9]
  40361e:	6823      	ldr	r3, [r4, #0]
  403620:	0699      	lsls	r1, r3, #26
  403622:	bf42      	ittt	mi
  403624:	f8d9 3000 	ldrmi.w	r3, [r9]
  403628:	3302      	addmi	r3, #2
  40362a:	f8c9 3000 	strmi.w	r3, [r9]
  40362e:	6825      	ldr	r5, [r4, #0]
  403630:	f015 0506 	ands.w	r5, r5, #6
  403634:	d107      	bne.n	403646 <_printf_common+0x52>
  403636:	f104 0a19 	add.w	sl, r4, #25
  40363a:	68e3      	ldr	r3, [r4, #12]
  40363c:	f8d9 2000 	ldr.w	r2, [r9]
  403640:	1a9b      	subs	r3, r3, r2
  403642:	429d      	cmp	r5, r3
  403644:	db29      	blt.n	40369a <_printf_common+0xa6>
  403646:	f894 3043 	ldrb.w	r3, [r4, #67]	; 0x43
  40364a:	6822      	ldr	r2, [r4, #0]
  40364c:	3300      	adds	r3, #0
  40364e:	bf18      	it	ne
  403650:	2301      	movne	r3, #1
  403652:	0692      	lsls	r2, r2, #26
  403654:	d42e      	bmi.n	4036b4 <_printf_common+0xc0>
  403656:	f104 0243 	add.w	r2, r4, #67	; 0x43
  40365a:	4639      	mov	r1, r7
  40365c:	4630      	mov	r0, r6
  40365e:	47c0      	blx	r8
  403660:	3001      	adds	r0, #1
  403662:	d021      	beq.n	4036a8 <_printf_common+0xb4>
  403664:	6823      	ldr	r3, [r4, #0]
  403666:	68e5      	ldr	r5, [r4, #12]
  403668:	f8d9 2000 	ldr.w	r2, [r9]
  40366c:	f003 0306 	and.w	r3, r3, #6
  403670:	2b04      	cmp	r3, #4
  403672:	bf08      	it	eq
  403674:	1aad      	subeq	r5, r5, r2
  403676:	68a3      	ldr	r3, [r4, #8]
  403678:	6922      	ldr	r2, [r4, #16]
  40367a:	bf0c      	ite	eq
  40367c:	ea25 75e5 	biceq.w	r5, r5, r5, asr #31
  403680:	2500      	movne	r5, #0
  403682:	4293      	cmp	r3, r2
  403684:	bfc4      	itt	gt
  403686:	1a9b      	subgt	r3, r3, r2
  403688:	18ed      	addgt	r5, r5, r3
  40368a:	f04f 0900 	mov.w	r9, #0
  40368e:	341a      	adds	r4, #26
  403690:	454d      	cmp	r5, r9
  403692:	d11b      	bne.n	4036cc <_printf_common+0xd8>
  403694:	2000      	movs	r0, #0
  403696:	e8bd 87f0 	ldmia.w	sp!, {r4, r5, r6, r7, r8, r9, sl, pc}
  40369a:	2301      	movs	r3, #1
  40369c:	4652      	mov	r2, sl
  40369e:	4639      	mov	r1, r7
  4036a0:	4630      	mov	r0, r6
  4036a2:	47c0      	blx	r8
  4036a4:	3001      	adds	r0, #1
  4036a6:	d103      	bne.n	4036b0 <_printf_common+0xbc>
  4036a8:	f04f 30ff 	mov.w	r0, #4294967295
  4036ac:	e8bd 87f0 	ldmia.w	sp!, {r4, r5, r6, r7, r8, r9, sl, pc}
  4036b0:	3501      	adds	r5, #1
  4036b2:	e7c2      	b.n	40363a <_printf_common+0x46>
  4036b4:	18e1      	adds	r1, r4, r3
  4036b6:	1c5a      	adds	r2, r3, #1
  4036b8:	2030      	movs	r0, #48	; 0x30
  4036ba:	f881 0043 	strb.w	r0, [r1, #67]	; 0x43
  4036be:	4422      	add	r2, r4
  4036c0:	f894 1045 	ldrb.w	r1, [r4, #69]	; 0x45
  4036c4:	f882 1043 	strb.w	r1, [r2, #67]	; 0x43
  4036c8:	3302      	adds	r3, #2
  4036ca:	e7c4      	b.n	403656 <_printf_common+0x62>
  4036cc:	2301      	movs	r3, #1
  4036ce:	4622      	mov	r2, r4
  4036d0:	4639      	mov	r1, r7
  4036d2:	4630      	mov	r0, r6
  4036d4:	47c0      	blx	r8
  4036d6:	3001      	adds	r0, #1
  4036d8:	d0e6      	beq.n	4036a8 <_printf_common+0xb4>
  4036da:	f109 0901 	add.w	r9, r9, #1
  4036de:	e7d7      	b.n	403690 <_printf_common+0x9c>

004036e0 <_printf_i>:
  4036e0:	e92d 43f0 	stmdb	sp!, {r4, r5, r6, r7, r8, r9, lr}
  4036e4:	4617      	mov	r7, r2
  4036e6:	7e0a      	ldrb	r2, [r1, #24]
  4036e8:	b085      	sub	sp, #20
  4036ea:	2a6e      	cmp	r2, #110	; 0x6e
  4036ec:	4698      	mov	r8, r3
  4036ee:	4606      	mov	r6, r0
  4036f0:	460c      	mov	r4, r1
  4036f2:	9b0c      	ldr	r3, [sp, #48]	; 0x30
  4036f4:	f101 0e43 	add.w	lr, r1, #67	; 0x43
  4036f8:	f000 80bc 	beq.w	403874 <_printf_i+0x194>
  4036fc:	d81a      	bhi.n	403734 <_printf_i+0x54>
  4036fe:	2a63      	cmp	r2, #99	; 0x63
  403700:	d02e      	beq.n	403760 <_printf_i+0x80>
  403702:	d80a      	bhi.n	40371a <_printf_i+0x3a>
  403704:	2a00      	cmp	r2, #0
  403706:	f000 80c8 	beq.w	40389a <_printf_i+0x1ba>
  40370a:	2a58      	cmp	r2, #88	; 0x58
  40370c:	f000 808a 	beq.w	403824 <_printf_i+0x144>
  403710:	f104 0542 	add.w	r5, r4, #66	; 0x42
  403714:	f884 2042 	strb.w	r2, [r4, #66]	; 0x42
  403718:	e02a      	b.n	403770 <_printf_i+0x90>
  40371a:	2a64      	cmp	r2, #100	; 0x64
  40371c:	d001      	beq.n	403722 <_printf_i+0x42>
  40371e:	2a69      	cmp	r2, #105	; 0x69
  403720:	d1f6      	bne.n	403710 <_printf_i+0x30>
  403722:	6821      	ldr	r1, [r4, #0]
  403724:	681a      	ldr	r2, [r3, #0]
  403726:	f011 0f80 	tst.w	r1, #128	; 0x80
  40372a:	d023      	beq.n	403774 <_printf_i+0x94>
  40372c:	1d11      	adds	r1, r2, #4
  40372e:	6019      	str	r1, [r3, #0]
  403730:	6813      	ldr	r3, [r2, #0]
  403732:	e027      	b.n	403784 <_printf_i+0xa4>
  403734:	2a73      	cmp	r2, #115	; 0x73
  403736:	f000 80b4 	beq.w	4038a2 <_printf_i+0x1c2>
  40373a:	d808      	bhi.n	40374e <_printf_i+0x6e>
  40373c:	2a6f      	cmp	r2, #111	; 0x6f
  40373e:	d02a      	beq.n	403796 <_printf_i+0xb6>
  403740:	2a70      	cmp	r2, #112	; 0x70
  403742:	d1e5      	bne.n	403710 <_printf_i+0x30>
  403744:	680a      	ldr	r2, [r1, #0]
  403746:	f042 0220 	orr.w	r2, r2, #32
  40374a:	600a      	str	r2, [r1, #0]
  40374c:	e003      	b.n	403756 <_printf_i+0x76>
  40374e:	2a75      	cmp	r2, #117	; 0x75
  403750:	d021      	beq.n	403796 <_printf_i+0xb6>
  403752:	2a78      	cmp	r2, #120	; 0x78
  403754:	d1dc      	bne.n	403710 <_printf_i+0x30>
  403756:	2278      	movs	r2, #120	; 0x78
  403758:	f884 2045 	strb.w	r2, [r4, #69]	; 0x45
  40375c:	496e      	ldr	r1, [pc, #440]	; (403918 <_printf_i+0x238>)
  40375e:	e064      	b.n	40382a <_printf_i+0x14a>
  403760:	681a      	ldr	r2, [r3, #0]
  403762:	f101 0542 	add.w	r5, r1, #66	; 0x42
  403766:	1d11      	adds	r1, r2, #4
  403768:	6019      	str	r1, [r3, #0]
  40376a:	6813      	ldr	r3, [r2, #0]
  40376c:	f884 3042 	strb.w	r3, [r4, #66]	; 0x42
  403770:	2301      	movs	r3, #1
  403772:	e0a3      	b.n	4038bc <_printf_i+0x1dc>
  403774:	f011 0f40 	tst.w	r1, #64	; 0x40
  403778:	f102 0104 	add.w	r1, r2, #4
  40377c:	6019      	str	r1, [r3, #0]
  40377e:	d0d7      	beq.n	403730 <_printf_i+0x50>
  403780:	f9b2 3000 	ldrsh.w	r3, [r2]
  403784:	2b00      	cmp	r3, #0
  403786:	da03      	bge.n	403790 <_printf_i+0xb0>
  403788:	222d      	movs	r2, #45	; 0x2d
  40378a:	425b      	negs	r3, r3
  40378c:	f884 2043 	strb.w	r2, [r4, #67]	; 0x43
  403790:	4962      	ldr	r1, [pc, #392]	; (40391c <_printf_i+0x23c>)
  403792:	220a      	movs	r2, #10
  403794:	e017      	b.n	4037c6 <_printf_i+0xe6>
  403796:	6820      	ldr	r0, [r4, #0]
  403798:	6819      	ldr	r1, [r3, #0]
  40379a:	f010 0f80 	tst.w	r0, #128	; 0x80
  40379e:	d003      	beq.n	4037a8 <_printf_i+0xc8>
  4037a0:	1d08      	adds	r0, r1, #4
  4037a2:	6018      	str	r0, [r3, #0]
  4037a4:	680b      	ldr	r3, [r1, #0]
  4037a6:	e006      	b.n	4037b6 <_printf_i+0xd6>
  4037a8:	f010 0f40 	tst.w	r0, #64	; 0x40
  4037ac:	f101 0004 	add.w	r0, r1, #4
  4037b0:	6018      	str	r0, [r3, #0]
  4037b2:	d0f7      	beq.n	4037a4 <_printf_i+0xc4>
  4037b4:	880b      	ldrh	r3, [r1, #0]
  4037b6:	4959      	ldr	r1, [pc, #356]	; (40391c <_printf_i+0x23c>)
  4037b8:	2a6f      	cmp	r2, #111	; 0x6f
  4037ba:	bf14      	ite	ne
  4037bc:	220a      	movne	r2, #10
  4037be:	2208      	moveq	r2, #8
  4037c0:	2000      	movs	r0, #0
  4037c2:	f884 0043 	strb.w	r0, [r4, #67]	; 0x43
  4037c6:	6865      	ldr	r5, [r4, #4]
  4037c8:	60a5      	str	r5, [r4, #8]
  4037ca:	2d00      	cmp	r5, #0
  4037cc:	f2c0 809c 	blt.w	403908 <_printf_i+0x228>
  4037d0:	6820      	ldr	r0, [r4, #0]
  4037d2:	f020 0004 	bic.w	r0, r0, #4
  4037d6:	6020      	str	r0, [r4, #0]
  4037d8:	2b00      	cmp	r3, #0
  4037da:	d13f      	bne.n	40385c <_printf_i+0x17c>
  4037dc:	2d00      	cmp	r5, #0
  4037de:	f040 8095 	bne.w	40390c <_printf_i+0x22c>
  4037e2:	4675      	mov	r5, lr
  4037e4:	2a08      	cmp	r2, #8
  4037e6:	d10b      	bne.n	403800 <_printf_i+0x120>
  4037e8:	6823      	ldr	r3, [r4, #0]
  4037ea:	07da      	lsls	r2, r3, #31
  4037ec:	d508      	bpl.n	403800 <_printf_i+0x120>
  4037ee:	6923      	ldr	r3, [r4, #16]
  4037f0:	6862      	ldr	r2, [r4, #4]
  4037f2:	429a      	cmp	r2, r3
  4037f4:	bfde      	ittt	le
  4037f6:	2330      	movle	r3, #48	; 0x30
  4037f8:	f805 3c01 	strble.w	r3, [r5, #-1]
  4037fc:	f105 35ff 	addle.w	r5, r5, #4294967295
  403800:	ebae 0305 	sub.w	r3, lr, r5
  403804:	6123      	str	r3, [r4, #16]
  403806:	f8cd 8000 	str.w	r8, [sp]
  40380a:	463b      	mov	r3, r7
  40380c:	aa03      	add	r2, sp, #12
  40380e:	4621      	mov	r1, r4
  403810:	4630      	mov	r0, r6
  403812:	f7ff feef 	bl	4035f4 <_printf_common>
  403816:	3001      	adds	r0, #1
  403818:	d155      	bne.n	4038c6 <_printf_i+0x1e6>
  40381a:	f04f 30ff 	mov.w	r0, #4294967295
  40381e:	b005      	add	sp, #20
  403820:	e8bd 83f0 	ldmia.w	sp!, {r4, r5, r6, r7, r8, r9, pc}
  403824:	f881 2045 	strb.w	r2, [r1, #69]	; 0x45
  403828:	493c      	ldr	r1, [pc, #240]	; (40391c <_printf_i+0x23c>)
  40382a:	6822      	ldr	r2, [r4, #0]
  40382c:	6818      	ldr	r0, [r3, #0]
  40382e:	f012 0f80 	tst.w	r2, #128	; 0x80
  403832:	f100 0504 	add.w	r5, r0, #4
  403836:	601d      	str	r5, [r3, #0]
  403838:	d001      	beq.n	40383e <_printf_i+0x15e>
  40383a:	6803      	ldr	r3, [r0, #0]
  40383c:	e002      	b.n	403844 <_printf_i+0x164>
  40383e:	0655      	lsls	r5, r2, #25
  403840:	d5fb      	bpl.n	40383a <_printf_i+0x15a>
  403842:	8803      	ldrh	r3, [r0, #0]
  403844:	07d0      	lsls	r0, r2, #31
  403846:	bf44      	itt	mi
  403848:	f042 0220 	orrmi.w	r2, r2, #32
  40384c:	6022      	strmi	r2, [r4, #0]
  40384e:	b91b      	cbnz	r3, 403858 <_printf_i+0x178>
  403850:	6822      	ldr	r2, [r4, #0]
  403852:	f022 0220 	bic.w	r2, r2, #32
  403856:	6022      	str	r2, [r4, #0]
  403858:	2210      	movs	r2, #16
  40385a:	e7b1      	b.n	4037c0 <_printf_i+0xe0>
  40385c:	4675      	mov	r5, lr
  40385e:	fbb3 f0f2 	udiv	r0, r3, r2
  403862:	fb02 3310 	mls	r3, r2, r0, r3
  403866:	5ccb      	ldrb	r3, [r1, r3]
  403868:	f805 3d01 	strb.w	r3, [r5, #-1]!
  40386c:	4603      	mov	r3, r0
  40386e:	2800      	cmp	r0, #0
  403870:	d1f5      	bne.n	40385e <_printf_i+0x17e>
  403872:	e7b7      	b.n	4037e4 <_printf_i+0x104>
  403874:	6808      	ldr	r0, [r1, #0]
  403876:	681a      	ldr	r2, [r3, #0]
  403878:	6949      	ldr	r1, [r1, #20]
  40387a:	f010 0f80 	tst.w	r0, #128	; 0x80
  40387e:	d004      	beq.n	40388a <_printf_i+0x1aa>
  403880:	1d10      	adds	r0, r2, #4
  403882:	6018      	str	r0, [r3, #0]
  403884:	6813      	ldr	r3, [r2, #0]
  403886:	6019      	str	r1, [r3, #0]
  403888:	e007      	b.n	40389a <_printf_i+0x1ba>
  40388a:	f010 0f40 	tst.w	r0, #64	; 0x40
  40388e:	f102 0004 	add.w	r0, r2, #4
  403892:	6018      	str	r0, [r3, #0]
  403894:	6813      	ldr	r3, [r2, #0]
  403896:	d0f6      	beq.n	403886 <_printf_i+0x1a6>
  403898:	8019      	strh	r1, [r3, #0]
  40389a:	2300      	movs	r3, #0
  40389c:	6123      	str	r3, [r4, #16]
  40389e:	4675      	mov	r5, lr
  4038a0:	e7b1      	b.n	403806 <_printf_i+0x126>
  4038a2:	681a      	ldr	r2, [r3, #0]
  4038a4:	1d11      	adds	r1, r2, #4
  4038a6:	6019      	str	r1, [r3, #0]
  4038a8:	6815      	ldr	r5, [r2, #0]
  4038aa:	6862      	ldr	r2, [r4, #4]
  4038ac:	2100      	movs	r1, #0
  4038ae:	4628      	mov	r0, r5
  4038b0:	f000 f836 	bl	403920 <memchr>
  4038b4:	b108      	cbz	r0, 4038ba <_printf_i+0x1da>
  4038b6:	1b40      	subs	r0, r0, r5
  4038b8:	6060      	str	r0, [r4, #4]
  4038ba:	6863      	ldr	r3, [r4, #4]
  4038bc:	6123      	str	r3, [r4, #16]
  4038be:	2300      	movs	r3, #0
  4038c0:	f884 3043 	strb.w	r3, [r4, #67]	; 0x43
  4038c4:	e79f      	b.n	403806 <_printf_i+0x126>
  4038c6:	6923      	ldr	r3, [r4, #16]
  4038c8:	462a      	mov	r2, r5
  4038ca:	4639      	mov	r1, r7
  4038cc:	4630      	mov	r0, r6
  4038ce:	47c0      	blx	r8
  4038d0:	3001      	adds	r0, #1
  4038d2:	d0a2      	beq.n	40381a <_printf_i+0x13a>
  4038d4:	6823      	ldr	r3, [r4, #0]
  4038d6:	079b      	lsls	r3, r3, #30
  4038d8:	d507      	bpl.n	4038ea <_printf_i+0x20a>
  4038da:	2500      	movs	r5, #0
  4038dc:	f104 0919 	add.w	r9, r4, #25
  4038e0:	68e3      	ldr	r3, [r4, #12]
  4038e2:	9a03      	ldr	r2, [sp, #12]
  4038e4:	1a9b      	subs	r3, r3, r2
  4038e6:	429d      	cmp	r5, r3
  4038e8:	db05      	blt.n	4038f6 <_printf_i+0x216>
  4038ea:	68e0      	ldr	r0, [r4, #12]
  4038ec:	9b03      	ldr	r3, [sp, #12]
  4038ee:	4298      	cmp	r0, r3
  4038f0:	bfb8      	it	lt
  4038f2:	4618      	movlt	r0, r3
  4038f4:	e793      	b.n	40381e <_printf_i+0x13e>
  4038f6:	2301      	movs	r3, #1
  4038f8:	464a      	mov	r2, r9
  4038fa:	4639      	mov	r1, r7
  4038fc:	4630      	mov	r0, r6
  4038fe:	47c0      	blx	r8
  403900:	3001      	adds	r0, #1
  403902:	d08a      	beq.n	40381a <_printf_i+0x13a>
  403904:	3501      	adds	r5, #1
  403906:	e7eb      	b.n	4038e0 <_printf_i+0x200>
  403908:	2b00      	cmp	r3, #0
  40390a:	d1a7      	bne.n	40385c <_printf_i+0x17c>
  40390c:	780b      	ldrb	r3, [r1, #0]
  40390e:	f884 3042 	strb.w	r3, [r4, #66]	; 0x42
  403912:	f104 0542 	add.w	r5, r4, #66	; 0x42
  403916:	e765      	b.n	4037e4 <_printf_i+0x104>
  403918:	00403aee 	.word	0x00403aee
  40391c:	00403add 	.word	0x00403add

00403920 <memchr>:
  403920:	f001 01ff 	and.w	r1, r1, #255	; 0xff
  403924:	2a10      	cmp	r2, #16
  403926:	db2b      	blt.n	403980 <memchr+0x60>
  403928:	f010 0f07 	tst.w	r0, #7
  40392c:	d008      	beq.n	403940 <memchr+0x20>
  40392e:	f810 3b01 	ldrb.w	r3, [r0], #1
  403932:	3a01      	subs	r2, #1
  403934:	428b      	cmp	r3, r1
  403936:	d02d      	beq.n	403994 <memchr+0x74>
  403938:	f010 0f07 	tst.w	r0, #7
  40393c:	b342      	cbz	r2, 403990 <memchr+0x70>
  40393e:	d1f6      	bne.n	40392e <memchr+0xe>
  403940:	b4f0      	push	{r4, r5, r6, r7}
  403942:	ea41 2101 	orr.w	r1, r1, r1, lsl #8
  403946:	ea41 4101 	orr.w	r1, r1, r1, lsl #16
  40394a:	f022 0407 	bic.w	r4, r2, #7
  40394e:	f07f 0700 	mvns.w	r7, #0
  403952:	2300      	movs	r3, #0
  403954:	e8f0 5602 	ldrd	r5, r6, [r0], #8
  403958:	3c08      	subs	r4, #8
  40395a:	ea85 0501 	eor.w	r5, r5, r1
  40395e:	ea86 0601 	eor.w	r6, r6, r1
  403962:	fa85 f547 	uadd8	r5, r5, r7
  403966:	faa3 f587 	sel	r5, r3, r7
  40396a:	fa86 f647 	uadd8	r6, r6, r7
  40396e:	faa5 f687 	sel	r6, r5, r7
  403972:	b98e      	cbnz	r6, 403998 <memchr+0x78>
  403974:	d1ee      	bne.n	403954 <memchr+0x34>
  403976:	bcf0      	pop	{r4, r5, r6, r7}
  403978:	f001 01ff 	and.w	r1, r1, #255	; 0xff
  40397c:	f002 0207 	and.w	r2, r2, #7
  403980:	b132      	cbz	r2, 403990 <memchr+0x70>
  403982:	f810 3b01 	ldrb.w	r3, [r0], #1
  403986:	3a01      	subs	r2, #1
  403988:	ea83 0301 	eor.w	r3, r3, r1
  40398c:	b113      	cbz	r3, 403994 <memchr+0x74>
  40398e:	d1f8      	bne.n	403982 <memchr+0x62>
  403990:	2000      	movs	r0, #0
  403992:	4770      	bx	lr
  403994:	3801      	subs	r0, #1
  403996:	4770      	bx	lr
  403998:	2d00      	cmp	r5, #0
  40399a:	bf06      	itte	eq
  40399c:	4635      	moveq	r5, r6
  40399e:	3803      	subeq	r0, #3
  4039a0:	3807      	subne	r0, #7
  4039a2:	f015 0f01 	tst.w	r5, #1
  4039a6:	d107      	bne.n	4039b8 <memchr+0x98>
  4039a8:	3001      	adds	r0, #1
  4039aa:	f415 7f80 	tst.w	r5, #256	; 0x100
  4039ae:	bf02      	ittt	eq
  4039b0:	3001      	addeq	r0, #1
  4039b2:	f415 3fc0 	tsteq.w	r5, #98304	; 0x18000
  4039b6:	3001      	addeq	r0, #1
  4039b8:	bcf0      	pop	{r4, r5, r6, r7}
  4039ba:	3801      	subs	r0, #1
  4039bc:	4770      	bx	lr
  4039be:	bf00      	nop

004039c0 <memmove>:
  4039c0:	4288      	cmp	r0, r1
  4039c2:	b510      	push	{r4, lr}
  4039c4:	eb01 0302 	add.w	r3, r1, r2
  4039c8:	d803      	bhi.n	4039d2 <memmove+0x12>
  4039ca:	1e42      	subs	r2, r0, #1
  4039cc:	4299      	cmp	r1, r3
  4039ce:	d10c      	bne.n	4039ea <memmove+0x2a>
  4039d0:	bd10      	pop	{r4, pc}
  4039d2:	4298      	cmp	r0, r3
  4039d4:	d2f9      	bcs.n	4039ca <memmove+0xa>
  4039d6:	1881      	adds	r1, r0, r2
  4039d8:	1ad2      	subs	r2, r2, r3
  4039da:	42d3      	cmn	r3, r2
  4039dc:	d100      	bne.n	4039e0 <memmove+0x20>
  4039de:	bd10      	pop	{r4, pc}
  4039e0:	f813 4d01 	ldrb.w	r4, [r3, #-1]!
  4039e4:	f801 4d01 	strb.w	r4, [r1, #-1]!
  4039e8:	e7f7      	b.n	4039da <memmove+0x1a>
  4039ea:	f811 4b01 	ldrb.w	r4, [r1], #1
  4039ee:	f802 4f01 	strb.w	r4, [r2, #1]!
  4039f2:	e7eb      	b.n	4039cc <memmove+0xc>

004039f4 <_realloc_r>:
  4039f4:	b5f8      	push	{r3, r4, r5, r6, r7, lr}
  4039f6:	4607      	mov	r7, r0
  4039f8:	4614      	mov	r4, r2
  4039fa:	460e      	mov	r6, r1
  4039fc:	b921      	cbnz	r1, 403a08 <_realloc_r+0x14>
  4039fe:	4611      	mov	r1, r2
  403a00:	e8bd 40f8 	ldmia.w	sp!, {r3, r4, r5, r6, r7, lr}
  403a04:	f7ff bc12 	b.w	40322c <_malloc_r>
  403a08:	b922      	cbnz	r2, 403a14 <_realloc_r+0x20>
  403a0a:	f7ff fbc1 	bl	403190 <_free_r>
  403a0e:	4625      	mov	r5, r4
  403a10:	4628      	mov	r0, r5
  403a12:	bdf8      	pop	{r3, r4, r5, r6, r7, pc}
  403a14:	f000 f814 	bl	403a40 <_malloc_usable_size_r>
  403a18:	4284      	cmp	r4, r0
  403a1a:	d90f      	bls.n	403a3c <_realloc_r+0x48>
  403a1c:	4621      	mov	r1, r4
  403a1e:	4638      	mov	r0, r7
  403a20:	f7ff fc04 	bl	40322c <_malloc_r>
  403a24:	4605      	mov	r5, r0
  403a26:	2800      	cmp	r0, #0
  403a28:	d0f2      	beq.n	403a10 <_realloc_r+0x1c>
  403a2a:	4631      	mov	r1, r6
  403a2c:	4622      	mov	r2, r4
  403a2e:	f7ff fba3 	bl	403178 <memcpy>
  403a32:	4631      	mov	r1, r6
  403a34:	4638      	mov	r0, r7
  403a36:	f7ff fbab 	bl	403190 <_free_r>
  403a3a:	e7e9      	b.n	403a10 <_realloc_r+0x1c>
  403a3c:	4635      	mov	r5, r6
  403a3e:	e7e7      	b.n	403a10 <_realloc_r+0x1c>

00403a40 <_malloc_usable_size_r>:
  403a40:	f851 0c04 	ldr.w	r0, [r1, #-4]
  403a44:	2800      	cmp	r0, #0
  403a46:	f1a0 0004 	sub.w	r0, r0, #4
  403a4a:	bfbc      	itt	lt
  403a4c:	580b      	ldrlt	r3, [r1, r0]
  403a4e:	18c0      	addlt	r0, r0, r3
  403a50:	4770      	bx	lr
  403a52:	0584      	.short	0x0584
  403a54:	0000      	.short	0x0000
  403a56:	00          	.byte	0x00
  403a57:	48          	.byte	0x48
  403a58:	6f696c65 	.word	0x6f696c65
  403a5c:	6c252073 	.word	0x6c252073
  403a60:	0064      	.short	0x0064
  403a62:	534d      	.short	0x534d
  403a64:	30315446 	.word	0x30315446
  403a68:	00003030 	.word	0x00003030

00403a6c <__sf_fake_stderr>:
	...

00403a8c <__sf_fake_stdin>:
	...

00403aac <__sf_fake_stdout>:
	...
  403acc:	2b302d23 6c680020 6665004c 47464567     #-0+ .hlL.efgEFG
  403adc:	32313000 36353433 41393837 45444342     .0123456789ABCDE
  403aec:	31300046 35343332 39383736 64636261     F.0123456789abcd
  403afc:	00006665                                ef..

00403b00 <_init>:
  403b00:	b5f8      	push	{r3, r4, r5, r6, r7, lr}
  403b02:	bf00      	nop
  403b04:	bcf8      	pop	{r3, r4, r5, r6, r7}
  403b06:	bc08      	pop	{r3}
  403b08:	469e      	mov	lr, r3
  403b0a:	4770      	bx	lr

00403b0c <__init_array_start>:
  403b0c:	004000f1 	.word	0x004000f1

00403b10 <_fini>:
  403b10:	b5f8      	push	{r3, r4, r5, r6, r7, lr}
  403b12:	bf00      	nop
  403b14:	bcf8      	pop	{r3, r4, r5, r6, r7}
  403b16:	bc08      	pop	{r3}
  403b18:	469e      	mov	lr, r3
  403b1a:	4770      	bx	lr
  403b1c:	0000      	movs	r0, r0
	...

00403b20 <__efc_write_fmr_veneer>:
  403b20:	f85f f000 	ldr.w	pc, [pc]	; 403b24 <__efc_write_fmr_veneer+0x4>
  403b24:	2000005d 	.word	0x2000005d

00403b28 <__efc_perform_fcr_veneer>:
  403b28:	f85f f000 	ldr.w	pc, [pc]	; 403b2c <__efc_perform_fcr_veneer+0x4>
  403b2c:	20000061 	.word	0x20000061

00403b30 <__efc_perform_read_sequence_veneer>:
  403b30:	f85f f000 	ldr.w	pc, [pc]	; 403b34 <__efc_perform_read_sequence_veneer+0x4>
  403b34:	20000001 	.word	0x20000001

00403b38 <__fini_array_start>:
  403b38:	004000cd 	.word	0x004000cd

Disassembly of section .relocate:

20000000 <efc_perform_read_sequence>:
20000000:	b537      	push	{r0, r1, r2, r4, r5, lr}
20000002:	b33b      	cbz	r3, 20000054 <efc_perform_read_sequence+0x54>
20000004:	6804      	ldr	r4, [r0, #0]
20000006:	b2c9      	uxtb	r1, r1
20000008:	f444 3480 	orr.w	r4, r4, #65536	; 0x10000
2000000c:	f041 41b4 	orr.w	r1, r1, #1509949440	; 0x5a000000
20000010:	6004      	str	r4, [r0, #0]
20000012:	6041      	str	r1, [r0, #4]
20000014:	6881      	ldr	r1, [r0, #8]
20000016:	9101      	str	r1, [sp, #4]
20000018:	9901      	ldr	r1, [sp, #4]
2000001a:	07c9      	lsls	r1, r1, #31
2000001c:	d4fa      	bmi.n	20000014 <efc_perform_read_sequence+0x14>
2000001e:	9906      	ldr	r1, [sp, #24]
20000020:	4c0d      	ldr	r4, [pc, #52]	; (20000058 <efc_perform_read_sequence+0x58>)
20000022:	eb03 0181 	add.w	r1, r3, r1, lsl #2
20000026:	428b      	cmp	r3, r1
20000028:	d10f      	bne.n	2000004a <efc_perform_read_sequence+0x4a>
2000002a:	b2d2      	uxtb	r2, r2
2000002c:	f042 42b4 	orr.w	r2, r2, #1509949440	; 0x5a000000
20000030:	6042      	str	r2, [r0, #4]
20000032:	6883      	ldr	r3, [r0, #8]
20000034:	9301      	str	r3, [sp, #4]
20000036:	9b01      	ldr	r3, [sp, #4]
20000038:	07db      	lsls	r3, r3, #31
2000003a:	d5fa      	bpl.n	20000032 <efc_perform_read_sequence+0x32>
2000003c:	6803      	ldr	r3, [r0, #0]
2000003e:	f423 3380 	bic.w	r3, r3, #65536	; 0x10000
20000042:	6003      	str	r3, [r0, #0]
20000044:	2000      	movs	r0, #0
20000046:	b003      	add	sp, #12
20000048:	bd30      	pop	{r4, r5, pc}
2000004a:	f854 5f04 	ldr.w	r5, [r4, #4]!
2000004e:	f843 5b04 	str.w	r5, [r3], #4
20000052:	e7e8      	b.n	20000026 <efc_perform_read_sequence+0x26>
20000054:	2002      	movs	r0, #2
20000056:	e7f6      	b.n	20000046 <efc_perform_read_sequence+0x46>
20000058:	003ffffc 	.word	0x003ffffc

2000005c <efc_write_fmr>:
2000005c:	6001      	str	r1, [r0, #0]
2000005e:	4770      	bx	lr

20000060 <efc_perform_fcr>:
20000060:	b082      	sub	sp, #8
20000062:	6041      	str	r1, [r0, #4]
20000064:	6883      	ldr	r3, [r0, #8]
20000066:	9301      	str	r3, [sp, #4]
20000068:	9b01      	ldr	r3, [sp, #4]
2000006a:	07db      	lsls	r3, r3, #31
2000006c:	d5fa      	bpl.n	20000064 <efc_perform_fcr+0x4>
2000006e:	9801      	ldr	r0, [sp, #4]
20000070:	f000 000e 	and.w	r0, r0, #14
20000074:	b002      	add	sp, #8
20000076:	4770      	bx	lr

20000078 <udi_api_vendor>:
20000078:	015d 0040 0149 0040 0139 0040 013d 0040     ].@.I.@.9.@.=.@.
20000088:	0000 0000                                   ....

2000008c <udc_string_desc>:
2000008c:	0300 0000 0000 0000 0000 0000 0000 0000     ................
	...

200000b0 <udc_string_desc_languageid>:
200000b0:	0304 0409                                   ....

200000b4 <udc_string_manufacturer_name>:
200000b4:	6947 6c74 2065 694d 6b6b 6c65 6573 006e     Gitle Mikkelsen.

200000c4 <udc_string_product_name>:
200000c4:	6548 696c 736f 4c20 7361 7265 4420 4341     Helios Laser DAC
200000d4:	0000 0000                                   ....

200000d8 <udc_config>:
200000d8:	0134 2000 00e4 2000 0000 0000               4.. ... ....

200000e4 <udc_config_lsfs>:
200000e4:	00ec 2000 0148 2000                         ... H.. 

200000ec <udc_desc_fs>:
200000ec:	0209 0045 0101 8000 094b 0004 0000 ffff     ..E.....K.......
200000fc:	00ff 0409 0100 ff06 ffff 0700 8305 2003     ............... 
2000010c:	0100 0507 0306 0020 0701 8105 4002 0000     ...... ......@..
2000011c:	0507 0202 0040 0700 8405 0101 0100 0507     ....@...........
2000012c:	0105 0001 0001 0000                         ........

20000134 <udc_device_desc>:
20000134:	0112 0200 0000 0800 1209 e500 0200 0201     ................
20000144:	0100 0000                                   ....

20000148 <udi_apis>:
20000148:	0078 2000                                   x.. 

2000014c <ul_flash_in_wait_mode>:
2000014c:	0000 0020                                   .. .

20000150 <g_interrupt_enabled>:
20000150:	0001 0000                                   ....

20000154 <SystemCoreClock>:
20000154:	0900 003d                                   ..=.

20000158 <extra_strings_desc.9220>:
20000158:	0300 0000 0000 0000 0000 0000 0000 0000     ................
20000168:	0000 0000                                   ....

2000016c <msft_compatible>:
2000016c:	0028 0000 0100 0004 0001 0000 0000 0000     (...............
2000017c:	0000 4957 554e 4253 0000 0000 0000 0000     ..WINUSB........
	...

20000194 <newNotRepeat>:
20000194:	0101                                             .

20000195 <notRepeat>:
20000195:	0001 2000                                        ...

20000198 <outputSpeed>:
20000198:	4e20 0000                                    N..

2000019c <sdkVersion>:
2000019c:	0004 0000                                   ....

200001a0 <_impure_ptr>:
200001a0:	01a4 2000                                   ... 

200001a4 <impure_data>:
200001a4:	0000 0000 3a8c 0040 3aac 0040 3a6c 0040     .....:@..:@.l:@.
	...
