
lasdac_mainfirmware.elf:     file format elf32-littlearm

Sections:
Idx Name          Size      VMA       LMA       File off  Algn
  0 .text         00003b2c  00400000  00400000  00010000  2**4
                  CONTENTS, ALLOC, LOAD, READONLY, CODE
  1 .relocate     00000204  20000000  00403b2c  00020000  2**2
                  CONTENTS, ALLOC, LOAD, CODE
  2 .bss          0000038c  20000204  00403d30  00020204  2**2
                  ALLOC
  3 .stack        00001000  20000590  004040bc  00020204  2**0
                  ALLOC
  4 .ARM.attributes 0000002a  00000000  00000000  00020204  2**0
                  CONTENTS, READONLY
  5 .comment      00000059  00000000  00000000  0002022e  2**0
                  CONTENTS, READONLY
  6 .debug_frame  00000464  00000000  00000000  00020288  2**2
                  CONTENTS, READONLY, DEBUGGING

Disassembly of section .text:

00400000 <_sfixed>:
  400000:	20001590 	.word	0x20001590
  400004:	00402695 	.word	0x00402695
  400008:	00402691 	.word	0x00402691
  40000c:	00402691 	.word	0x00402691
  400010:	00402691 	.word	0x00402691
  400014:	00402691 	.word	0x00402691
  400018:	00402691 	.word	0x00402691
	...
  40002c:	00402691 	.word	0x00402691
  400030:	00402691 	.word	0x00402691
  400034:	00000000 	.word	0x00000000
  400038:	00402691 	.word	0x00402691
  40003c:	00402cfd 	.word	0x00402cfd
  400040:	00402691 	.word	0x00402691
  400044:	00402691 	.word	0x00402691
  400048:	00402691 	.word	0x00402691
  40004c:	00402691 	.word	0x00402691
  400050:	00402691 	.word	0x00402691
  400054:	00402691 	.word	0x00402691
  400058:	00402691 	.word	0x00402691
  40005c:	00000000 	.word	0x00000000
  400060:	00402691 	.word	0x00402691
  400064:	00402691 	.word	0x00402691
  400068:	00000000 	.word	0x00000000
  40006c:	004007a1 	.word	0x004007a1
  400070:	004007ad 	.word	0x004007ad
  400074:	00000000 	.word	0x00000000
  400078:	00402691 	.word	0x00402691
  40007c:	00402691 	.word	0x00402691
	...
  400088:	00402691 	.word	0x00402691
  40008c:	00402691 	.word	0x00402691
  400090:	00402691 	.word	0x00402691
  400094:	00402691 	.word	0x00402691
  400098:	00402691 	.word	0x00402691
  40009c:	00402925 	.word	0x00402925
  4000a0:	00402691 	.word	0x00402691
  4000a4:	00402691 	.word	0x00402691
	...
  4000b4:	00402691 	.word	0x00402691
  4000b8:	00402691 	.word	0x00402691
  4000bc:	00402691 	.word	0x00402691
  4000c0:	00402691 	.word	0x00402691
  4000c4:	00402691 	.word	0x00402691
  4000c8:	00400ecd 	.word	0x00400ecd

004000cc <__do_global_dtors_aux>:
  4000cc:	b510      	push	{r4, lr}
  4000ce:	4c05      	ldr	r4, [pc, #20]	; (4000e4 <__do_global_dtors_aux+0x18>)
  4000d0:	7823      	ldrb	r3, [r4, #0]
  4000d2:	b933      	cbnz	r3, 4000e2 <__do_global_dtors_aux+0x16>
  4000d4:	4b04      	ldr	r3, [pc, #16]	; (4000e8 <__do_global_dtors_aux+0x1c>)
  4000d6:	b113      	cbz	r3, 4000de <__do_global_dtors_aux+0x12>
  4000d8:	4804      	ldr	r0, [pc, #16]	; (4000ec <__do_global_dtors_aux+0x20>)
  4000da:	f3af 8000 	nop.w
  4000de:	2301      	movs	r3, #1
  4000e0:	7023      	strb	r3, [r4, #0]
  4000e2:	bd10      	pop	{r4, pc}
  4000e4:	20000204 	.word	0x20000204
  4000e8:	00000000 	.word	0x00000000
  4000ec:	00403b2c 	.word	0x00403b2c

004000f0 <frame_dummy>:
  4000f0:	4b08      	ldr	r3, [pc, #32]	; (400114 <frame_dummy+0x24>)
  4000f2:	b510      	push	{r4, lr}
  4000f4:	b11b      	cbz	r3, 4000fe <frame_dummy+0xe>
  4000f6:	4908      	ldr	r1, [pc, #32]	; (400118 <frame_dummy+0x28>)
  4000f8:	4808      	ldr	r0, [pc, #32]	; (40011c <frame_dummy+0x2c>)
  4000fa:	f3af 8000 	nop.w
  4000fe:	4808      	ldr	r0, [pc, #32]	; (400120 <frame_dummy+0x30>)
  400100:	6803      	ldr	r3, [r0, #0]
  400102:	b903      	cbnz	r3, 400106 <frame_dummy+0x16>
  400104:	bd10      	pop	{r4, pc}
  400106:	4b07      	ldr	r3, [pc, #28]	; (400124 <frame_dummy+0x34>)
  400108:	2b00      	cmp	r3, #0
  40010a:	d0fb      	beq.n	400104 <frame_dummy+0x14>
  40010c:	e8bd 4010 	ldmia.w	sp!, {r4, lr}
  400110:	4718      	bx	r3
  400112:	bf00      	nop
  400114:	00000000 	.word	0x00000000
  400118:	20000208 	.word	0x20000208
  40011c:	00403b2c 	.word	0x00403b2c
  400120:	00403b2c 	.word	0x00403b2c
  400124:	00000000 	.word	0x00000000

00400128 <udi_vendor_setup>:
  400128:	2000      	movs	r0, #0
  40012a:	4770      	bx	lr

0040012c <udi_vendor_getsetting>:
  40012c:	4b01      	ldr	r3, [pc, #4]	; (400134 <udi_vendor_getsetting+0x8>)
  40012e:	7818      	ldrb	r0, [r3, #0]
  400130:	4770      	bx	lr
  400132:	bf00      	nop
  400134:	20000220 	.word	0x20000220

00400138 <udi_vendor_disable>:
  400138:	4b03      	ldr	r3, [pc, #12]	; (400148 <udi_vendor_disable+0x10>)
  40013a:	781b      	ldrb	r3, [r3, #0]
  40013c:	2b01      	cmp	r3, #1
  40013e:	d101      	bne.n	400144 <udi_vendor_disable+0xc>
  400140:	f002 bce0 	b.w	402b04 <callback_vendor_disable>
  400144:	4770      	bx	lr
  400146:	bf00      	nop
  400148:	20000220 	.word	0x20000220

0040014c <udi_vendor_enable>:
  40014c:	b508      	push	{r3, lr}
  40014e:	f000 f8c9 	bl	4002e4 <udc_get_interface_desc>
  400152:	78c3      	ldrb	r3, [r0, #3]
  400154:	4a05      	ldr	r2, [pc, #20]	; (40016c <udi_vendor_enable+0x20>)
  400156:	2b01      	cmp	r3, #1
  400158:	7013      	strb	r3, [r2, #0]
  40015a:	d105      	bne.n	400168 <udi_vendor_enable+0x1c>
  40015c:	f002 fcbc 	bl	402ad8 <callback_vendor_enable>
  400160:	3000      	adds	r0, #0
  400162:	bf18      	it	ne
  400164:	2001      	movne	r0, #1
  400166:	bd08      	pop	{r3, pc}
  400168:	2001      	movs	r0, #1
  40016a:	bd08      	pop	{r3, pc}
  40016c:	20000220 	.word	0x20000220

00400170 <udi_vendor_interrupt_in_run>:
  400170:	b507      	push	{r0, r1, r2, lr}
  400172:	460b      	mov	r3, r1
  400174:	9200      	str	r2, [sp, #0]
  400176:	2100      	movs	r1, #0
  400178:	4602      	mov	r2, r0
  40017a:	2083      	movs	r0, #131	; 0x83
  40017c:	f001 fce0 	bl	401b40 <udd_ep_run>
  400180:	b003      	add	sp, #12
  400182:	f85d fb04 	ldr.w	pc, [sp], #4

00400186 <udi_vendor_interrupt_out_run>:
  400186:	b507      	push	{r0, r1, r2, lr}
  400188:	460b      	mov	r3, r1
  40018a:	9200      	str	r2, [sp, #0]
  40018c:	2100      	movs	r1, #0
  40018e:	4602      	mov	r2, r0
  400190:	2006      	movs	r0, #6
  400192:	f001 fcd5 	bl	401b40 <udd_ep_run>
  400196:	b003      	add	sp, #12
  400198:	f85d fb04 	ldr.w	pc, [sp], #4

0040019c <udi_vendor_bulk_out_run>:
  40019c:	b507      	push	{r0, r1, r2, lr}
  40019e:	460b      	mov	r3, r1
  4001a0:	9200      	str	r2, [sp, #0]
  4001a2:	2100      	movs	r1, #0
  4001a4:	4602      	mov	r2, r0
  4001a6:	2002      	movs	r0, #2
  4001a8:	f001 fcca 	bl	401b40 <udd_ep_run>
  4001ac:	b003      	add	sp, #12
  4001ae:	f85d fb04 	ldr.w	pc, [sp], #4
	...

004001b4 <udc_valid_address>:
  4001b4:	4b02      	ldr	r3, [pc, #8]	; (4001c0 <udc_valid_address+0xc>)
  4001b6:	7898      	ldrb	r0, [r3, #2]
  4001b8:	f000 007f 	and.w	r0, r0, #127	; 0x7f
  4001bc:	f001 bb20 	b.w	401800 <udd_set_address>
  4001c0:	20000560 	.word	0x20000560

004001c4 <udc_update_iface_desc>:
  4001c4:	b570      	push	{r4, r5, r6, lr}
  4001c6:	4b13      	ldr	r3, [pc, #76]	; (400214 <udc_update_iface_desc+0x50>)
  4001c8:	781b      	ldrb	r3, [r3, #0]
  4001ca:	b90b      	cbnz	r3, 4001d0 <udc_update_iface_desc+0xc>
  4001cc:	2000      	movs	r0, #0
  4001ce:	bd70      	pop	{r4, r5, r6, pc}
  4001d0:	4b11      	ldr	r3, [pc, #68]	; (400218 <udc_update_iface_desc+0x54>)
  4001d2:	681b      	ldr	r3, [r3, #0]
  4001d4:	681b      	ldr	r3, [r3, #0]
  4001d6:	791a      	ldrb	r2, [r3, #4]
  4001d8:	4282      	cmp	r2, r0
  4001da:	d9f7      	bls.n	4001cc <udc_update_iface_desc+0x8>
  4001dc:	4a0f      	ldr	r2, [pc, #60]	; (40021c <udc_update_iface_desc+0x58>)
  4001de:	6013      	str	r3, [r2, #0]
  4001e0:	885d      	ldrh	r5, [r3, #2]
  4001e2:	2400      	movs	r4, #0
  4001e4:	441d      	add	r5, r3
  4001e6:	429d      	cmp	r5, r3
  4001e8:	d910      	bls.n	40020c <udc_update_iface_desc+0x48>
  4001ea:	785e      	ldrb	r6, [r3, #1]
  4001ec:	2e04      	cmp	r6, #4
  4001ee:	d109      	bne.n	400204 <udc_update_iface_desc+0x40>
  4001f0:	789e      	ldrb	r6, [r3, #2]
  4001f2:	4286      	cmp	r6, r0
  4001f4:	d106      	bne.n	400204 <udc_update_iface_desc+0x40>
  4001f6:	78de      	ldrb	r6, [r3, #3]
  4001f8:	428e      	cmp	r6, r1
  4001fa:	d103      	bne.n	400204 <udc_update_iface_desc+0x40>
  4001fc:	b104      	cbz	r4, 400200 <udc_update_iface_desc+0x3c>
  4001fe:	6013      	str	r3, [r2, #0]
  400200:	2001      	movs	r0, #1
  400202:	bd70      	pop	{r4, r5, r6, pc}
  400204:	781c      	ldrb	r4, [r3, #0]
  400206:	4423      	add	r3, r4
  400208:	2401      	movs	r4, #1
  40020a:	e7ec      	b.n	4001e6 <udc_update_iface_desc+0x22>
  40020c:	2c00      	cmp	r4, #0
  40020e:	d0dd      	beq.n	4001cc <udc_update_iface_desc+0x8>
  400210:	6013      	str	r3, [r2, #0]
  400212:	e7db      	b.n	4001cc <udc_update_iface_desc+0x8>
  400214:	20000230 	.word	0x20000230
  400218:	20000224 	.word	0x20000224
  40021c:	20000234 	.word	0x20000234

00400220 <udc_next_desc_in_iface.constprop.3>:
  400220:	4b08      	ldr	r3, [pc, #32]	; (400244 <udc_next_desc_in_iface.constprop.3+0x24>)
  400222:	681b      	ldr	r3, [r3, #0]
  400224:	681a      	ldr	r2, [r3, #0]
  400226:	8853      	ldrh	r3, [r2, #2]
  400228:	441a      	add	r2, r3
  40022a:	7803      	ldrb	r3, [r0, #0]
  40022c:	4418      	add	r0, r3
  40022e:	4290      	cmp	r0, r2
  400230:	d205      	bcs.n	40023e <udc_next_desc_in_iface.constprop.3+0x1e>
  400232:	7843      	ldrb	r3, [r0, #1]
  400234:	2b04      	cmp	r3, #4
  400236:	d002      	beq.n	40023e <udc_next_desc_in_iface.constprop.3+0x1e>
  400238:	2b05      	cmp	r3, #5
  40023a:	d1f6      	bne.n	40022a <udc_next_desc_in_iface.constprop.3+0xa>
  40023c:	e000      	b.n	400240 <udc_next_desc_in_iface.constprop.3+0x20>
  40023e:	2000      	movs	r0, #0
  400240:	4770      	bx	lr
  400242:	bf00      	nop
  400244:	20000224 	.word	0x20000224

00400248 <udc_iface_enable>:
  400248:	b570      	push	{r4, r5, r6, lr}
  40024a:	4605      	mov	r5, r0
  40024c:	f7ff ffba 	bl	4001c4 <udc_update_iface_desc>
  400250:	b1b8      	cbz	r0, 400282 <udc_iface_enable+0x3a>
  400252:	4b0d      	ldr	r3, [pc, #52]	; (400288 <udc_iface_enable+0x40>)
  400254:	681c      	ldr	r4, [r3, #0]
  400256:	4620      	mov	r0, r4
  400258:	f7ff ffe2 	bl	400220 <udc_next_desc_in_iface.constprop.3>
  40025c:	4604      	mov	r4, r0
  40025e:	b138      	cbz	r0, 400270 <udc_iface_enable+0x28>
  400260:	8882      	ldrh	r2, [r0, #4]
  400262:	78c1      	ldrb	r1, [r0, #3]
  400264:	7880      	ldrb	r0, [r0, #2]
  400266:	f001 faf9 	bl	40185c <udd_ep_alloc>
  40026a:	2800      	cmp	r0, #0
  40026c:	d1f3      	bne.n	400256 <udc_iface_enable+0xe>
  40026e:	e008      	b.n	400282 <udc_iface_enable+0x3a>
  400270:	4b06      	ldr	r3, [pc, #24]	; (40028c <udc_iface_enable+0x44>)
  400272:	681b      	ldr	r3, [r3, #0]
  400274:	685b      	ldr	r3, [r3, #4]
  400276:	f853 3025 	ldr.w	r3, [r3, r5, lsl #2]
  40027a:	e8bd 4070 	ldmia.w	sp!, {r4, r5, r6, lr}
  40027e:	681b      	ldr	r3, [r3, #0]
  400280:	4718      	bx	r3
  400282:	2000      	movs	r0, #0
  400284:	bd70      	pop	{r4, r5, r6, pc}
  400286:	bf00      	nop
  400288:	20000234 	.word	0x20000234
  40028c:	20000224 	.word	0x20000224

00400290 <udc_iface_disable>:
  400290:	b570      	push	{r4, r5, r6, lr}
  400292:	2100      	movs	r1, #0
  400294:	4604      	mov	r4, r0
  400296:	f7ff ff95 	bl	4001c4 <udc_update_iface_desc>
  40029a:	b908      	cbnz	r0, 4002a0 <udc_iface_disable+0x10>
  40029c:	2500      	movs	r5, #0
  40029e:	e01a      	b.n	4002d6 <udc_iface_disable+0x46>
  4002a0:	4b0e      	ldr	r3, [pc, #56]	; (4002dc <udc_iface_disable+0x4c>)
  4002a2:	681b      	ldr	r3, [r3, #0]
  4002a4:	685b      	ldr	r3, [r3, #4]
  4002a6:	f853 6024 	ldr.w	r6, [r3, r4, lsl #2]
  4002aa:	68f3      	ldr	r3, [r6, #12]
  4002ac:	4798      	blx	r3
  4002ae:	4601      	mov	r1, r0
  4002b0:	4620      	mov	r0, r4
  4002b2:	f7ff ff87 	bl	4001c4 <udc_update_iface_desc>
  4002b6:	4605      	mov	r5, r0
  4002b8:	2800      	cmp	r0, #0
  4002ba:	d0ef      	beq.n	40029c <udc_iface_disable+0xc>
  4002bc:	4b08      	ldr	r3, [pc, #32]	; (4002e0 <udc_iface_disable+0x50>)
  4002be:	681c      	ldr	r4, [r3, #0]
  4002c0:	4620      	mov	r0, r4
  4002c2:	f7ff ffad 	bl	400220 <udc_next_desc_in_iface.constprop.3>
  4002c6:	4604      	mov	r4, r0
  4002c8:	b118      	cbz	r0, 4002d2 <udc_iface_disable+0x42>
  4002ca:	7880      	ldrb	r0, [r0, #2]
  4002cc:	f001 fb3a 	bl	401944 <udd_ep_free>
  4002d0:	e7f6      	b.n	4002c0 <udc_iface_disable+0x30>
  4002d2:	6873      	ldr	r3, [r6, #4]
  4002d4:	4798      	blx	r3
  4002d6:	4628      	mov	r0, r5
  4002d8:	bd70      	pop	{r4, r5, r6, pc}
  4002da:	bf00      	nop
  4002dc:	20000224 	.word	0x20000224
  4002e0:	20000234 	.word	0x20000234

004002e4 <udc_get_interface_desc>:
  4002e4:	4b01      	ldr	r3, [pc, #4]	; (4002ec <udc_get_interface_desc+0x8>)
  4002e6:	6818      	ldr	r0, [r3, #0]
  4002e8:	4770      	bx	lr
  4002ea:	bf00      	nop
  4002ec:	20000234 	.word	0x20000234

004002f0 <udc_start>:
  4002f0:	f001 ba52 	b.w	401798 <udd_enable>

004002f4 <udc_reset>:
  4002f4:	b570      	push	{r4, r5, r6, lr}
  4002f6:	4b0b      	ldr	r3, [pc, #44]	; (400324 <udc_reset+0x30>)
  4002f8:	781a      	ldrb	r2, [r3, #0]
  4002fa:	461c      	mov	r4, r3
  4002fc:	b112      	cbz	r2, 400304 <udc_reset+0x10>
  4002fe:	2500      	movs	r5, #0
  400300:	4e09      	ldr	r6, [pc, #36]	; (400328 <udc_reset+0x34>)
  400302:	e004      	b.n	40030e <udc_reset+0x1a>
  400304:	4a09      	ldr	r2, [pc, #36]	; (40032c <udc_reset+0x38>)
  400306:	2300      	movs	r3, #0
  400308:	7023      	strb	r3, [r4, #0]
  40030a:	8013      	strh	r3, [r2, #0]
  40030c:	bd70      	pop	{r4, r5, r6, pc}
  40030e:	6833      	ldr	r3, [r6, #0]
  400310:	681b      	ldr	r3, [r3, #0]
  400312:	791b      	ldrb	r3, [r3, #4]
  400314:	b2e8      	uxtb	r0, r5
  400316:	4283      	cmp	r3, r0
  400318:	f105 0501 	add.w	r5, r5, #1
  40031c:	d9f2      	bls.n	400304 <udc_reset+0x10>
  40031e:	f7ff ffb7 	bl	400290 <udc_iface_disable>
  400322:	e7f4      	b.n	40030e <udc_reset+0x1a>
  400324:	20000230 	.word	0x20000230
  400328:	20000224 	.word	0x20000224
  40032c:	2000022c 	.word	0x2000022c

00400330 <udc_sof_notify>:
  400330:	b538      	push	{r3, r4, r5, lr}
  400332:	4b0a      	ldr	r3, [pc, #40]	; (40035c <udc_sof_notify+0x2c>)
  400334:	781b      	ldrb	r3, [r3, #0]
  400336:	b17b      	cbz	r3, 400358 <udc_sof_notify+0x28>
  400338:	4d09      	ldr	r5, [pc, #36]	; (400360 <udc_sof_notify+0x30>)
  40033a:	2400      	movs	r4, #0
  40033c:	682a      	ldr	r2, [r5, #0]
  40033e:	6813      	ldr	r3, [r2, #0]
  400340:	7919      	ldrb	r1, [r3, #4]
  400342:	b2e3      	uxtb	r3, r4
  400344:	4299      	cmp	r1, r3
  400346:	d907      	bls.n	400358 <udc_sof_notify+0x28>
  400348:	6852      	ldr	r2, [r2, #4]
  40034a:	f852 3023 	ldr.w	r3, [r2, r3, lsl #2]
  40034e:	691b      	ldr	r3, [r3, #16]
  400350:	b103      	cbz	r3, 400354 <udc_sof_notify+0x24>
  400352:	4798      	blx	r3
  400354:	3401      	adds	r4, #1
  400356:	e7f1      	b.n	40033c <udc_sof_notify+0xc>
  400358:	bd38      	pop	{r3, r4, r5, pc}
  40035a:	bf00      	nop
  40035c:	20000230 	.word	0x20000230
  400360:	20000224 	.word	0x20000224

00400364 <udc_process_setup>:
  400364:	b5f8      	push	{r3, r4, r5, r6, r7, lr}
  400366:	4a9c      	ldr	r2, [pc, #624]	; (4005d8 <udc_process_setup+0x274>)
  400368:	2300      	movs	r3, #0
  40036a:	8193      	strh	r3, [r2, #12]
  40036c:	6113      	str	r3, [r2, #16]
  40036e:	6153      	str	r3, [r2, #20]
  400370:	7813      	ldrb	r3, [r2, #0]
  400372:	b25d      	sxtb	r5, r3
  400374:	2d00      	cmp	r5, #0
  400376:	4614      	mov	r4, r2
  400378:	da03      	bge.n	400382 <udc_process_setup+0x1e>
  40037a:	88d0      	ldrh	r0, [r2, #6]
  40037c:	2800      	cmp	r0, #0
  40037e:	f000 8199 	beq.w	4006b4 <udc_process_setup+0x350>
  400382:	f013 0160 	ands.w	r1, r3, #96	; 0x60
  400386:	f040 814d 	bne.w	400624 <udc_process_setup+0x2c0>
  40038a:	2d00      	cmp	r5, #0
  40038c:	f280 80a7 	bge.w	4004de <udc_process_setup+0x17a>
  400390:	88e5      	ldrh	r5, [r4, #6]
  400392:	4e91      	ldr	r6, [pc, #580]	; (4005d8 <udc_process_setup+0x274>)
  400394:	2d00      	cmp	r5, #0
  400396:	f000 8145 	beq.w	400624 <udc_process_setup+0x2c0>
  40039a:	f013 031f 	ands.w	r3, r3, #31
  40039e:	d167      	bne.n	400470 <udc_process_setup+0x10c>
  4003a0:	7873      	ldrb	r3, [r6, #1]
  4003a2:	2b06      	cmp	r3, #6
  4003a4:	d00a      	beq.n	4003bc <udc_process_setup+0x58>
  4003a6:	2b08      	cmp	r3, #8
  4003a8:	d05a      	beq.n	400460 <udc_process_setup+0xfc>
  4003aa:	2b00      	cmp	r3, #0
  4003ac:	f040 813a 	bne.w	400624 <udc_process_setup+0x2c0>
  4003b0:	2d02      	cmp	r5, #2
  4003b2:	f040 8137 	bne.w	400624 <udc_process_setup+0x2c0>
  4003b6:	4629      	mov	r1, r5
  4003b8:	4888      	ldr	r0, [pc, #544]	; (4005dc <udc_process_setup+0x278>)
  4003ba:	e056      	b.n	40046a <udc_process_setup+0x106>
  4003bc:	8873      	ldrh	r3, [r6, #2]
  4003be:	0a1d      	lsrs	r5, r3, #8
  4003c0:	2d02      	cmp	r5, #2
  4003c2:	d00c      	beq.n	4003de <udc_process_setup+0x7a>
  4003c4:	d806      	bhi.n	4003d4 <udc_process_setup+0x70>
  4003c6:	2d01      	cmp	r5, #1
  4003c8:	f040 812c 	bne.w	400624 <udc_process_setup+0x2c0>
  4003cc:	4b84      	ldr	r3, [pc, #528]	; (4005e0 <udc_process_setup+0x27c>)
  4003ce:	6818      	ldr	r0, [r3, #0]
  4003d0:	7801      	ldrb	r1, [r0, #0]
  4003d2:	e03b      	b.n	40044c <udc_process_setup+0xe8>
  4003d4:	2d03      	cmp	r5, #3
  4003d6:	d019      	beq.n	40040c <udc_process_setup+0xa8>
  4003d8:	2d0f      	cmp	r5, #15
  4003da:	d010      	beq.n	4003fe <udc_process_setup+0x9a>
  4003dc:	e122      	b.n	400624 <udc_process_setup+0x2c0>
  4003de:	4a80      	ldr	r2, [pc, #512]	; (4005e0 <udc_process_setup+0x27c>)
  4003e0:	6811      	ldr	r1, [r2, #0]
  4003e2:	7c49      	ldrb	r1, [r1, #17]
  4003e4:	b2db      	uxtb	r3, r3
  4003e6:	4299      	cmp	r1, r3
  4003e8:	f240 811c 	bls.w	400624 <udc_process_setup+0x2c0>
  4003ec:	6852      	ldr	r2, [r2, #4]
  4003ee:	f852 0033 	ldr.w	r0, [r2, r3, lsl #3]
  4003f2:	8841      	ldrh	r1, [r0, #2]
  4003f4:	f001 fa2c 	bl	401850 <udd_set_setup_payload>
  4003f8:	68b3      	ldr	r3, [r6, #8]
  4003fa:	705d      	strb	r5, [r3, #1]
  4003fc:	e028      	b.n	400450 <udc_process_setup+0xec>
  4003fe:	4b78      	ldr	r3, [pc, #480]	; (4005e0 <udc_process_setup+0x27c>)
  400400:	6898      	ldr	r0, [r3, #8]
  400402:	2800      	cmp	r0, #0
  400404:	f000 810e 	beq.w	400624 <udc_process_setup+0x2c0>
  400408:	8841      	ldrh	r1, [r0, #2]
  40040a:	e01f      	b.n	40044c <udc_process_setup+0xe8>
  40040c:	b2db      	uxtb	r3, r3
  40040e:	2b01      	cmp	r3, #1
  400410:	d00c      	beq.n	40042c <udc_process_setup+0xc8>
  400412:	d304      	bcc.n	40041e <udc_process_setup+0xba>
  400414:	2b02      	cmp	r3, #2
  400416:	d105      	bne.n	400424 <udc_process_setup+0xc0>
  400418:	2110      	movs	r1, #16
  40041a:	4a72      	ldr	r2, [pc, #456]	; (4005e4 <udc_process_setup+0x280>)
  40041c:	e008      	b.n	400430 <udc_process_setup+0xcc>
  40041e:	2104      	movs	r1, #4
  400420:	4871      	ldr	r0, [pc, #452]	; (4005e8 <udc_process_setup+0x284>)
  400422:	e013      	b.n	40044c <udc_process_setup+0xe8>
  400424:	f002 fe1e 	bl	403064 <msft_string_handle>
  400428:	b990      	cbnz	r0, 400450 <udc_process_setup+0xec>
  40042a:	e0fb      	b.n	400624 <udc_process_setup+0x2c0>
  40042c:	4a6f      	ldr	r2, [pc, #444]	; (4005ec <udc_process_setup+0x288>)
  40042e:	210f      	movs	r1, #15
  400430:	4d6f      	ldr	r5, [pc, #444]	; (4005f0 <udc_process_setup+0x28c>)
  400432:	4613      	mov	r3, r2
  400434:	f813 0b01 	ldrb.w	r0, [r3], #1
  400438:	f825 0b02 	strh.w	r0, [r5], #2
  40043c:	1a98      	subs	r0, r3, r2
  40043e:	b2c0      	uxtb	r0, r0
  400440:	4281      	cmp	r1, r0
  400442:	d8f7      	bhi.n	400434 <udc_process_setup+0xd0>
  400444:	0049      	lsls	r1, r1, #1
  400446:	486b      	ldr	r0, [pc, #428]	; (4005f4 <udc_process_setup+0x290>)
  400448:	3102      	adds	r1, #2
  40044a:	7001      	strb	r1, [r0, #0]
  40044c:	f001 fa00 	bl	401850 <udd_set_setup_payload>
  400450:	88e3      	ldrh	r3, [r4, #6]
  400452:	89a2      	ldrh	r2, [r4, #12]
  400454:	429a      	cmp	r2, r3
  400456:	f240 8127 	bls.w	4006a8 <udc_process_setup+0x344>
  40045a:	4a5f      	ldr	r2, [pc, #380]	; (4005d8 <udc_process_setup+0x274>)
  40045c:	8193      	strh	r3, [r2, #12]
  40045e:	e123      	b.n	4006a8 <udc_process_setup+0x344>
  400460:	2d01      	cmp	r5, #1
  400462:	f040 80df 	bne.w	400624 <udc_process_setup+0x2c0>
  400466:	4864      	ldr	r0, [pc, #400]	; (4005f8 <udc_process_setup+0x294>)
  400468:	4629      	mov	r1, r5
  40046a:	f001 f9f1 	bl	401850 <udd_set_setup_payload>
  40046e:	e11b      	b.n	4006a8 <udc_process_setup+0x344>
  400470:	2b01      	cmp	r3, #1
  400472:	d122      	bne.n	4004ba <udc_process_setup+0x156>
  400474:	7873      	ldrb	r3, [r6, #1]
  400476:	2b0a      	cmp	r3, #10
  400478:	f040 80d4 	bne.w	400624 <udc_process_setup+0x2c0>
  40047c:	2d01      	cmp	r5, #1
  40047e:	f040 80d1 	bne.w	400624 <udc_process_setup+0x2c0>
  400482:	4b5d      	ldr	r3, [pc, #372]	; (4005f8 <udc_process_setup+0x294>)
  400484:	781b      	ldrb	r3, [r3, #0]
  400486:	2b00      	cmp	r3, #0
  400488:	f000 80cc 	beq.w	400624 <udc_process_setup+0x2c0>
  40048c:	4b5b      	ldr	r3, [pc, #364]	; (4005fc <udc_process_setup+0x298>)
  40048e:	7935      	ldrb	r5, [r6, #4]
  400490:	681e      	ldr	r6, [r3, #0]
  400492:	6833      	ldr	r3, [r6, #0]
  400494:	791b      	ldrb	r3, [r3, #4]
  400496:	42ab      	cmp	r3, r5
  400498:	f240 80c4 	bls.w	400624 <udc_process_setup+0x2c0>
  40049c:	4628      	mov	r0, r5
  40049e:	f7ff fe91 	bl	4001c4 <udc_update_iface_desc>
  4004a2:	2800      	cmp	r0, #0
  4004a4:	f000 80be 	beq.w	400624 <udc_process_setup+0x2c0>
  4004a8:	6873      	ldr	r3, [r6, #4]
  4004aa:	f853 3025 	ldr.w	r3, [r3, r5, lsl #2]
  4004ae:	68db      	ldr	r3, [r3, #12]
  4004b0:	4798      	blx	r3
  4004b2:	4b53      	ldr	r3, [pc, #332]	; (400600 <udc_process_setup+0x29c>)
  4004b4:	2101      	movs	r1, #1
  4004b6:	7018      	strb	r0, [r3, #0]
  4004b8:	e00f      	b.n	4004da <udc_process_setup+0x176>
  4004ba:	2b02      	cmp	r3, #2
  4004bc:	f040 80b2 	bne.w	400624 <udc_process_setup+0x2c0>
  4004c0:	7873      	ldrb	r3, [r6, #1]
  4004c2:	2b00      	cmp	r3, #0
  4004c4:	f040 80ae 	bne.w	400624 <udc_process_setup+0x2c0>
  4004c8:	2d02      	cmp	r5, #2
  4004ca:	f040 80ab 	bne.w	400624 <udc_process_setup+0x2c0>
  4004ce:	7930      	ldrb	r0, [r6, #4]
  4004d0:	f001 fa64 	bl	40199c <udd_ep_is_halted>
  4004d4:	4b4b      	ldr	r3, [pc, #300]	; (400604 <udc_process_setup+0x2a0>)
  4004d6:	4629      	mov	r1, r5
  4004d8:	8018      	strh	r0, [r3, #0]
  4004da:	4618      	mov	r0, r3
  4004dc:	e7c5      	b.n	40046a <udc_process_setup+0x106>
  4004de:	f013 031f 	ands.w	r3, r3, #31
  4004e2:	d14f      	bne.n	400584 <udc_process_setup+0x220>
  4004e4:	7863      	ldrb	r3, [r4, #1]
  4004e6:	3b01      	subs	r3, #1
  4004e8:	2b08      	cmp	r3, #8
  4004ea:	f200 809b 	bhi.w	400624 <udc_process_setup+0x2c0>
  4004ee:	e8df f003 	tbb	[pc, r3]
  4004f2:	990d      	.short	0x990d
  4004f4:	99059999 	.word	0x99059999
  4004f8:	9999      	.short	0x9999
  4004fa:	1c          	.byte	0x1c
  4004fb:	00          	.byte	0x00
  4004fc:	88e3      	ldrh	r3, [r4, #6]
  4004fe:	2b00      	cmp	r3, #0
  400500:	f040 8090 	bne.w	400624 <udc_process_setup+0x2c0>
  400504:	4b34      	ldr	r3, [pc, #208]	; (4005d8 <udc_process_setup+0x274>)
  400506:	4a40      	ldr	r2, [pc, #256]	; (400608 <udc_process_setup+0x2a4>)
  400508:	611a      	str	r2, [r3, #16]
  40050a:	e0cd      	b.n	4006a8 <udc_process_setup+0x344>
  40050c:	88e3      	ldrh	r3, [r4, #6]
  40050e:	2b00      	cmp	r3, #0
  400510:	f040 8088 	bne.w	400624 <udc_process_setup+0x2c0>
  400514:	4b30      	ldr	r3, [pc, #192]	; (4005d8 <udc_process_setup+0x274>)
  400516:	885b      	ldrh	r3, [r3, #2]
  400518:	2b01      	cmp	r3, #1
  40051a:	f040 8083 	bne.w	400624 <udc_process_setup+0x2c0>
  40051e:	4a2f      	ldr	r2, [pc, #188]	; (4005dc <udc_process_setup+0x278>)
  400520:	8813      	ldrh	r3, [r2, #0]
  400522:	f023 0302 	bic.w	r3, r3, #2
  400526:	8013      	strh	r3, [r2, #0]
  400528:	e0be      	b.n	4006a8 <udc_process_setup+0x344>
  40052a:	88e5      	ldrh	r5, [r4, #6]
  40052c:	4f2a      	ldr	r7, [pc, #168]	; (4005d8 <udc_process_setup+0x274>)
  40052e:	2d00      	cmp	r5, #0
  400530:	d178      	bne.n	400624 <udc_process_setup+0x2c0>
  400532:	f001 f981 	bl	401838 <udd_getaddress>
  400536:	2800      	cmp	r0, #0
  400538:	d074      	beq.n	400624 <udc_process_setup+0x2c0>
  40053a:	4e29      	ldr	r6, [pc, #164]	; (4005e0 <udc_process_setup+0x27c>)
  40053c:	78ba      	ldrb	r2, [r7, #2]
  40053e:	6833      	ldr	r3, [r6, #0]
  400540:	7c5b      	ldrb	r3, [r3, #17]
  400542:	429a      	cmp	r2, r3
  400544:	dc6e      	bgt.n	400624 <udc_process_setup+0x2c0>
  400546:	f7ff fed5 	bl	4002f4 <udc_reset>
  40054a:	78bb      	ldrb	r3, [r7, #2]
  40054c:	4a2a      	ldr	r2, [pc, #168]	; (4005f8 <udc_process_setup+0x294>)
  40054e:	7013      	strb	r3, [r2, #0]
  400550:	2b00      	cmp	r3, #0
  400552:	f000 80a9 	beq.w	4006a8 <udc_process_setup+0x344>
  400556:	6871      	ldr	r1, [r6, #4]
  400558:	4a28      	ldr	r2, [pc, #160]	; (4005fc <udc_process_setup+0x298>)
  40055a:	f103 5300 	add.w	r3, r3, #536870912	; 0x20000000
  40055e:	3b01      	subs	r3, #1
  400560:	eb01 03c3 	add.w	r3, r1, r3, lsl #3
  400564:	6013      	str	r3, [r2, #0]
  400566:	4616      	mov	r6, r2
  400568:	6833      	ldr	r3, [r6, #0]
  40056a:	681b      	ldr	r3, [r3, #0]
  40056c:	791b      	ldrb	r3, [r3, #4]
  40056e:	b2e8      	uxtb	r0, r5
  400570:	4283      	cmp	r3, r0
  400572:	f240 8099 	bls.w	4006a8 <udc_process_setup+0x344>
  400576:	2100      	movs	r1, #0
  400578:	f7ff fe66 	bl	400248 <udc_iface_enable>
  40057c:	3501      	adds	r5, #1
  40057e:	2800      	cmp	r0, #0
  400580:	d1f2      	bne.n	400568 <udc_process_setup+0x204>
  400582:	e04f      	b.n	400624 <udc_process_setup+0x2c0>
  400584:	2b01      	cmp	r3, #1
  400586:	d116      	bne.n	4005b6 <udc_process_setup+0x252>
  400588:	7862      	ldrb	r2, [r4, #1]
  40058a:	4b13      	ldr	r3, [pc, #76]	; (4005d8 <udc_process_setup+0x274>)
  40058c:	2a0b      	cmp	r2, #11
  40058e:	d149      	bne.n	400624 <udc_process_setup+0x2c0>
  400590:	88da      	ldrh	r2, [r3, #6]
  400592:	2a00      	cmp	r2, #0
  400594:	d146      	bne.n	400624 <udc_process_setup+0x2c0>
  400596:	4a18      	ldr	r2, [pc, #96]	; (4005f8 <udc_process_setup+0x294>)
  400598:	7812      	ldrb	r2, [r2, #0]
  40059a:	2a00      	cmp	r2, #0
  40059c:	d042      	beq.n	400624 <udc_process_setup+0x2c0>
  40059e:	791d      	ldrb	r5, [r3, #4]
  4005a0:	885e      	ldrh	r6, [r3, #2]
  4005a2:	4628      	mov	r0, r5
  4005a4:	f7ff fe74 	bl	400290 <udc_iface_disable>
  4005a8:	2800      	cmp	r0, #0
  4005aa:	d03b      	beq.n	400624 <udc_process_setup+0x2c0>
  4005ac:	b2f1      	uxtb	r1, r6
  4005ae:	4628      	mov	r0, r5
  4005b0:	f7ff fe4a 	bl	400248 <udc_iface_enable>
  4005b4:	e034      	b.n	400620 <udc_process_setup+0x2bc>
  4005b6:	2b02      	cmp	r3, #2
  4005b8:	d134      	bne.n	400624 <udc_process_setup+0x2c0>
  4005ba:	7863      	ldrb	r3, [r4, #1]
  4005bc:	4d06      	ldr	r5, [pc, #24]	; (4005d8 <udc_process_setup+0x274>)
  4005be:	2b01      	cmp	r3, #1
  4005c0:	d002      	beq.n	4005c8 <udc_process_setup+0x264>
  4005c2:	2b03      	cmp	r3, #3
  4005c4:	d022      	beq.n	40060c <udc_process_setup+0x2a8>
  4005c6:	e02d      	b.n	400624 <udc_process_setup+0x2c0>
  4005c8:	88eb      	ldrh	r3, [r5, #6]
  4005ca:	bb5b      	cbnz	r3, 400624 <udc_process_setup+0x2c0>
  4005cc:	886b      	ldrh	r3, [r5, #2]
  4005ce:	bb4b      	cbnz	r3, 400624 <udc_process_setup+0x2c0>
  4005d0:	7928      	ldrb	r0, [r5, #4]
  4005d2:	f001 fa53 	bl	401a7c <udd_ep_clear_halt>
  4005d6:	e023      	b.n	400620 <udc_process_setup+0x2bc>
  4005d8:	20000560 	.word	0x20000560
  4005dc:	2000022c 	.word	0x2000022c
  4005e0:	200000e4 	.word	0x200000e4
  4005e4:	20000090 	.word	0x20000090
  4005e8:	200000d8 	.word	0x200000d8
  4005ec:	200000a1 	.word	0x200000a1
  4005f0:	200000b6 	.word	0x200000b6
  4005f4:	200000b4 	.word	0x200000b4
  4005f8:	20000230 	.word	0x20000230
  4005fc:	20000224 	.word	0x20000224
  400600:	20000228 	.word	0x20000228
  400604:	2000022a 	.word	0x2000022a
  400608:	004001b5 	.word	0x004001b5
  40060c:	88eb      	ldrh	r3, [r5, #6]
  40060e:	b94b      	cbnz	r3, 400624 <udc_process_setup+0x2c0>
  400610:	886b      	ldrh	r3, [r5, #2]
  400612:	b93b      	cbnz	r3, 400624 <udc_process_setup+0x2c0>
  400614:	7928      	ldrb	r0, [r5, #4]
  400616:	f001 fb11 	bl	401c3c <udd_ep_abort>
  40061a:	7928      	ldrb	r0, [r5, #4]
  40061c:	f001 f9de 	bl	4019dc <udd_ep_set_halt>
  400620:	2800      	cmp	r0, #0
  400622:	d141      	bne.n	4006a8 <udc_process_setup+0x344>
  400624:	7823      	ldrb	r3, [r4, #0]
  400626:	f003 031f 	and.w	r3, r3, #31
  40062a:	2b01      	cmp	r3, #1
  40062c:	d11d      	bne.n	40066a <udc_process_setup+0x306>
  40062e:	4b22      	ldr	r3, [pc, #136]	; (4006b8 <udc_process_setup+0x354>)
  400630:	781b      	ldrb	r3, [r3, #0]
  400632:	2b00      	cmp	r3, #0
  400634:	d03a      	beq.n	4006ac <udc_process_setup+0x348>
  400636:	4b21      	ldr	r3, [pc, #132]	; (4006bc <udc_process_setup+0x358>)
  400638:	791d      	ldrb	r5, [r3, #4]
  40063a:	4b21      	ldr	r3, [pc, #132]	; (4006c0 <udc_process_setup+0x35c>)
  40063c:	681e      	ldr	r6, [r3, #0]
  40063e:	6833      	ldr	r3, [r6, #0]
  400640:	791b      	ldrb	r3, [r3, #4]
  400642:	42ab      	cmp	r3, r5
  400644:	d932      	bls.n	4006ac <udc_process_setup+0x348>
  400646:	2100      	movs	r1, #0
  400648:	4628      	mov	r0, r5
  40064a:	f7ff fdbb 	bl	4001c4 <udc_update_iface_desc>
  40064e:	b160      	cbz	r0, 40066a <udc_process_setup+0x306>
  400650:	6873      	ldr	r3, [r6, #4]
  400652:	f853 6025 	ldr.w	r6, [r3, r5, lsl #2]
  400656:	68f3      	ldr	r3, [r6, #12]
  400658:	4798      	blx	r3
  40065a:	4601      	mov	r1, r0
  40065c:	4628      	mov	r0, r5
  40065e:	f7ff fdb1 	bl	4001c4 <udc_update_iface_desc>
  400662:	b110      	cbz	r0, 40066a <udc_process_setup+0x306>
  400664:	68b3      	ldr	r3, [r6, #8]
  400666:	4798      	blx	r3
  400668:	b9f0      	cbnz	r0, 4006a8 <udc_process_setup+0x344>
  40066a:	7823      	ldrb	r3, [r4, #0]
  40066c:	f003 031f 	and.w	r3, r3, #31
  400670:	2b02      	cmp	r3, #2
  400672:	d11b      	bne.n	4006ac <udc_process_setup+0x348>
  400674:	4b10      	ldr	r3, [pc, #64]	; (4006b8 <udc_process_setup+0x354>)
  400676:	781b      	ldrb	r3, [r3, #0]
  400678:	b1c3      	cbz	r3, 4006ac <udc_process_setup+0x348>
  40067a:	4f11      	ldr	r7, [pc, #68]	; (4006c0 <udc_process_setup+0x35c>)
  40067c:	2500      	movs	r5, #0
  40067e:	683b      	ldr	r3, [r7, #0]
  400680:	681a      	ldr	r2, [r3, #0]
  400682:	7912      	ldrb	r2, [r2, #4]
  400684:	b2ec      	uxtb	r4, r5
  400686:	42a2      	cmp	r2, r4
  400688:	d910      	bls.n	4006ac <udc_process_setup+0x348>
  40068a:	685b      	ldr	r3, [r3, #4]
  40068c:	f853 6024 	ldr.w	r6, [r3, r4, lsl #2]
  400690:	68f3      	ldr	r3, [r6, #12]
  400692:	4798      	blx	r3
  400694:	4601      	mov	r1, r0
  400696:	4620      	mov	r0, r4
  400698:	f7ff fd94 	bl	4001c4 <udc_update_iface_desc>
  40069c:	b130      	cbz	r0, 4006ac <udc_process_setup+0x348>
  40069e:	68b3      	ldr	r3, [r6, #8]
  4006a0:	4798      	blx	r3
  4006a2:	3501      	adds	r5, #1
  4006a4:	2800      	cmp	r0, #0
  4006a6:	d0ea      	beq.n	40067e <udc_process_setup+0x31a>
  4006a8:	2001      	movs	r0, #1
  4006aa:	bdf8      	pop	{r3, r4, r5, r6, r7, pc}
  4006ac:	e8bd 40f8 	ldmia.w	sp!, {r3, r4, r5, r6, r7, lr}
  4006b0:	f002 bd06 	b.w	4030c0 <usb_device_specific_request>
  4006b4:	bdf8      	pop	{r3, r4, r5, r6, r7, pc}
  4006b6:	bf00      	nop
  4006b8:	20000230 	.word	0x20000230
  4006bc:	20000560 	.word	0x20000560
  4006c0:	20000224 	.word	0x20000224

004006c4 <efc_get_result>:
  4006c4:	68c0      	ldr	r0, [r0, #12]
  4006c6:	4770      	bx	lr

004006c8 <efc_init>:
  4006c8:	b508      	push	{r3, lr}
  4006ca:	0212      	lsls	r2, r2, #8
  4006cc:	f402 6270 	and.w	r2, r2, #3840	; 0xf00
  4006d0:	f041 6180 	orr.w	r1, r1, #67108864	; 0x4000000
  4006d4:	4311      	orrs	r1, r2
  4006d6:	f003 fa1f 	bl	403b18 <__efc_write_fmr_veneer>
  4006da:	2000      	movs	r0, #0
  4006dc:	bd08      	pop	{r3, pc}
	...

004006e0 <efc_perform_command>:
  4006e0:	b538      	push	{r3, r4, r5, lr}
  4006e2:	f1a1 030e 	sub.w	r3, r1, #14
  4006e6:	2b01      	cmp	r3, #1
  4006e8:	d919      	bls.n	40071e <efc_perform_command+0x3e>
  4006ea:	f3ef 8410 	mrs	r4, PRIMASK
  4006ee:	b672      	cpsid	i
  4006f0:	f3bf 8f5f 	dmb	sy
  4006f4:	0212      	lsls	r2, r2, #8
  4006f6:	f022 427f 	bic.w	r2, r2, #4278190080	; 0xff000000
  4006fa:	f022 02ff 	bic.w	r2, r2, #255	; 0xff
  4006fe:	4d09      	ldr	r5, [pc, #36]	; (400724 <efc_perform_command+0x44>)
  400700:	f042 42b4 	orr.w	r2, r2, #1509949440	; 0x5a000000
  400704:	b2c9      	uxtb	r1, r1
  400706:	2300      	movs	r3, #0
  400708:	4311      	orrs	r1, r2
  40070a:	702b      	strb	r3, [r5, #0]
  40070c:	f003 f9f4 	bl	403af8 <__efc_perform_fcr_veneer>
  400710:	b93c      	cbnz	r4, 400722 <efc_perform_command+0x42>
  400712:	2301      	movs	r3, #1
  400714:	702b      	strb	r3, [r5, #0]
  400716:	f3bf 8f5f 	dmb	sy
  40071a:	b662      	cpsie	i
  40071c:	bd38      	pop	{r3, r4, r5, pc}
  40071e:	f04f 30ff 	mov.w	r0, #4294967295
  400722:	bd38      	pop	{r3, r4, r5, pc}
  400724:	20000154 	.word	0x20000154

00400728 <pio_handler_process>:
  400728:	e92d 41f0 	stmdb	sp!, {r4, r5, r6, r7, r8, lr}
  40072c:	4606      	mov	r6, r0
  40072e:	4688      	mov	r8, r1
  400730:	f001 fcc6 	bl	4020c0 <pio_get_interrupt_status>
  400734:	4605      	mov	r5, r0
  400736:	4630      	mov	r0, r6
  400738:	f001 fcc4 	bl	4020c4 <pio_get_interrupt_mask>
  40073c:	4005      	ands	r5, r0
  40073e:	d104      	bne.n	40074a <pio_handler_process+0x22>
  400740:	4b14      	ldr	r3, [pc, #80]	; (400794 <pio_handler_process+0x6c>)
  400742:	681b      	ldr	r3, [r3, #0]
  400744:	b9cb      	cbnz	r3, 40077a <pio_handler_process+0x52>
  400746:	e8bd 81f0 	ldmia.w	sp!, {r4, r5, r6, r7, r8, pc}
  40074a:	4c13      	ldr	r4, [pc, #76]	; (400798 <pio_handler_process+0x70>)
  40074c:	f104 0760 	add.w	r7, r4, #96	; 0x60
  400750:	f854 3c0c 	ldr.w	r3, [r4, #-12]
  400754:	4543      	cmp	r3, r8
  400756:	d117      	bne.n	400788 <pio_handler_process+0x60>
  400758:	f854 1c08 	ldr.w	r1, [r4, #-8]
  40075c:	4229      	tst	r1, r5
  40075e:	d013      	beq.n	400788 <pio_handler_process+0x60>
  400760:	6823      	ldr	r3, [r4, #0]
  400762:	4640      	mov	r0, r8
  400764:	4798      	blx	r3
  400766:	f854 3c08 	ldr.w	r3, [r4, #-8]
  40076a:	42a7      	cmp	r7, r4
  40076c:	ea25 0503 	bic.w	r5, r5, r3
  400770:	d0e6      	beq.n	400740 <pio_handler_process+0x18>
  400772:	3410      	adds	r4, #16
  400774:	2d00      	cmp	r5, #0
  400776:	d0e3      	beq.n	400740 <pio_handler_process+0x18>
  400778:	e7ea      	b.n	400750 <pio_handler_process+0x28>
  40077a:	4b08      	ldr	r3, [pc, #32]	; (40079c <pio_handler_process+0x74>)
  40077c:	681b      	ldr	r3, [r3, #0]
  40077e:	b13b      	cbz	r3, 400790 <pio_handler_process+0x68>
  400780:	4630      	mov	r0, r6
  400782:	e8bd 41f0 	ldmia.w	sp!, {r4, r5, r6, r7, r8, lr}
  400786:	4718      	bx	r3
  400788:	42a7      	cmp	r7, r4
  40078a:	d0d9      	beq.n	400740 <pio_handler_process+0x18>
  40078c:	3410      	adds	r4, #16
  40078e:	e7df      	b.n	400750 <pio_handler_process+0x28>
  400790:	e8bd 81f0 	ldmia.w	sp!, {r4, r5, r6, r7, r8, pc}
  400794:	20000578 	.word	0x20000578
  400798:	20000248 	.word	0x20000248
  40079c:	20000238 	.word	0x20000238

004007a0 <PIOA_Handler>:
  4007a0:	210b      	movs	r1, #11
  4007a2:	4801      	ldr	r0, [pc, #4]	; (4007a8 <PIOA_Handler+0x8>)
  4007a4:	f7ff bfc0 	b.w	400728 <pio_handler_process>
  4007a8:	400e0e00 	.word	0x400e0e00

004007ac <PIOB_Handler>:
  4007ac:	210c      	movs	r1, #12
  4007ae:	4801      	ldr	r0, [pc, #4]	; (4007b4 <PIOB_Handler+0x8>)
  4007b0:	f7ff bfba 	b.w	400728 <pio_handler_process>
  4007b4:	400e1000 	.word	0x400e1000

004007b8 <spi_enable_clock>:
  4007b8:	2015      	movs	r0, #21
  4007ba:	f001 bd7d 	b.w	4022b8 <pmc_enable_periph_clk>

004007be <spi_set_peripheral_chip_select_value>:
  4007be:	6843      	ldr	r3, [r0, #4]
  4007c0:	f423 2370 	bic.w	r3, r3, #983040	; 0xf0000
  4007c4:	6043      	str	r3, [r0, #4]
  4007c6:	6843      	ldr	r3, [r0, #4]
  4007c8:	0409      	lsls	r1, r1, #16
  4007ca:	f401 2170 	and.w	r1, r1, #983040	; 0xf0000
  4007ce:	430b      	orrs	r3, r1
  4007d0:	6043      	str	r3, [r0, #4]
  4007d2:	4770      	bx	lr

004007d4 <spi_set_delay_between_chip_select>:
  4007d4:	6843      	ldr	r3, [r0, #4]
  4007d6:	f023 437f 	bic.w	r3, r3, #4278190080	; 0xff000000
  4007da:	6043      	str	r3, [r0, #4]
  4007dc:	6843      	ldr	r3, [r0, #4]
  4007de:	ea43 6101 	orr.w	r1, r3, r1, lsl #24
  4007e2:	6041      	str	r1, [r0, #4]
  4007e4:	4770      	bx	lr

004007e6 <spi_write>:
  4007e6:	b530      	push	{r4, r5, lr}
  4007e8:	f643 2499 	movw	r4, #15001	; 0x3a99
  4007ec:	6905      	ldr	r5, [r0, #16]
  4007ee:	07ad      	lsls	r5, r5, #30
  4007f0:	d403      	bmi.n	4007fa <spi_write+0x14>
  4007f2:	3c01      	subs	r4, #1
  4007f4:	d1fa      	bne.n	4007ec <spi_write+0x6>
  4007f6:	2001      	movs	r0, #1
  4007f8:	bd30      	pop	{r4, r5, pc}
  4007fa:	6844      	ldr	r4, [r0, #4]
  4007fc:	07a4      	lsls	r4, r4, #30
  4007fe:	d506      	bpl.n	40080e <spi_write+0x28>
  400800:	0412      	lsls	r2, r2, #16
  400802:	f402 2270 	and.w	r2, r2, #983040	; 0xf0000
  400806:	4311      	orrs	r1, r2
  400808:	b10b      	cbz	r3, 40080e <spi_write+0x28>
  40080a:	f041 7180 	orr.w	r1, r1, #16777216	; 0x1000000
  40080e:	60c1      	str	r1, [r0, #12]
  400810:	2000      	movs	r0, #0
  400812:	bd30      	pop	{r4, r5, pc}

00400814 <spi_set_clock_polarity>:
  400814:	0089      	lsls	r1, r1, #2
  400816:	4401      	add	r1, r0
  400818:	6b0b      	ldr	r3, [r1, #48]	; 0x30
  40081a:	b112      	cbz	r2, 400822 <spi_set_clock_polarity+0xe>
  40081c:	f043 0301 	orr.w	r3, r3, #1
  400820:	e001      	b.n	400826 <spi_set_clock_polarity+0x12>
  400822:	f023 0301 	bic.w	r3, r3, #1
  400826:	630b      	str	r3, [r1, #48]	; 0x30
  400828:	4770      	bx	lr

0040082a <spi_set_clock_phase>:
  40082a:	0089      	lsls	r1, r1, #2
  40082c:	4401      	add	r1, r0
  40082e:	6b0b      	ldr	r3, [r1, #48]	; 0x30
  400830:	b112      	cbz	r2, 400838 <spi_set_clock_phase+0xe>
  400832:	f043 0302 	orr.w	r3, r3, #2
  400836:	e001      	b.n	40083c <spi_set_clock_phase+0x12>
  400838:	f023 0302 	bic.w	r3, r3, #2
  40083c:	630b      	str	r3, [r1, #48]	; 0x30
  40083e:	4770      	bx	lr

00400840 <spi_configure_cs_behavior>:
  400840:	2a04      	cmp	r2, #4
  400842:	d109      	bne.n	400858 <spi_configure_cs_behavior+0x18>
  400844:	eb00 0181 	add.w	r1, r0, r1, lsl #2
  400848:	6b0b      	ldr	r3, [r1, #48]	; 0x30
  40084a:	f023 0308 	bic.w	r3, r3, #8
  40084e:	630b      	str	r3, [r1, #48]	; 0x30
  400850:	6b0b      	ldr	r3, [r1, #48]	; 0x30
  400852:	f043 0304 	orr.w	r3, r3, #4
  400856:	e011      	b.n	40087c <spi_configure_cs_behavior+0x3c>
  400858:	b94a      	cbnz	r2, 40086e <spi_configure_cs_behavior+0x2e>
  40085a:	eb00 0181 	add.w	r1, r0, r1, lsl #2
  40085e:	6b0b      	ldr	r3, [r1, #48]	; 0x30
  400860:	f023 0308 	bic.w	r3, r3, #8
  400864:	630b      	str	r3, [r1, #48]	; 0x30
  400866:	6b0b      	ldr	r3, [r1, #48]	; 0x30
  400868:	f023 0304 	bic.w	r3, r3, #4
  40086c:	e006      	b.n	40087c <spi_configure_cs_behavior+0x3c>
  40086e:	2a08      	cmp	r2, #8
  400870:	d105      	bne.n	40087e <spi_configure_cs_behavior+0x3e>
  400872:	eb00 0181 	add.w	r1, r0, r1, lsl #2
  400876:	6b0b      	ldr	r3, [r1, #48]	; 0x30
  400878:	f043 0308 	orr.w	r3, r3, #8
  40087c:	630b      	str	r3, [r1, #48]	; 0x30
  40087e:	4770      	bx	lr

00400880 <spi_set_bits_per_transfer>:
  400880:	eb00 0181 	add.w	r1, r0, r1, lsl #2
  400884:	6b0b      	ldr	r3, [r1, #48]	; 0x30
  400886:	f023 03f0 	bic.w	r3, r3, #240	; 0xf0
  40088a:	630b      	str	r3, [r1, #48]	; 0x30
  40088c:	6b0b      	ldr	r3, [r1, #48]	; 0x30
  40088e:	431a      	orrs	r2, r3
  400890:	630a      	str	r2, [r1, #48]	; 0x30
  400892:	4770      	bx	lr

00400894 <spi_set_baudrate_div>:
  400894:	eb00 0181 	add.w	r1, r0, r1, lsl #2
  400898:	6b0b      	ldr	r3, [r1, #48]	; 0x30
  40089a:	f423 437f 	bic.w	r3, r3, #65280	; 0xff00
  40089e:	630b      	str	r3, [r1, #48]	; 0x30
  4008a0:	6b0b      	ldr	r3, [r1, #48]	; 0x30
  4008a2:	ea43 2202 	orr.w	r2, r3, r2, lsl #8
  4008a6:	630a      	str	r2, [r1, #48]	; 0x30
  4008a8:	4770      	bx	lr

004008aa <spi_set_transfer_delay>:
  4008aa:	b510      	push	{r4, lr}
  4008ac:	eb00 0181 	add.w	r1, r0, r1, lsl #2
  4008b0:	6b08      	ldr	r0, [r1, #48]	; 0x30
  4008b2:	b280      	uxth	r0, r0
  4008b4:	6308      	str	r0, [r1, #48]	; 0x30
  4008b6:	6b0c      	ldr	r4, [r1, #48]	; 0x30
  4008b8:	ea44 6303 	orr.w	r3, r4, r3, lsl #24
  4008bc:	ea43 4202 	orr.w	r2, r3, r2, lsl #16
  4008c0:	630a      	str	r2, [r1, #48]	; 0x30
  4008c2:	bd10      	pop	{r4, pc}

004008c4 <tc_init>:
  4008c4:	b510      	push	{r4, lr}
  4008c6:	0189      	lsls	r1, r1, #6
  4008c8:	1843      	adds	r3, r0, r1
  4008ca:	2402      	movs	r4, #2
  4008cc:	5044      	str	r4, [r0, r1]
  4008ce:	f04f 31ff 	mov.w	r1, #4294967295
  4008d2:	6299      	str	r1, [r3, #40]	; 0x28
  4008d4:	6a19      	ldr	r1, [r3, #32]
  4008d6:	605a      	str	r2, [r3, #4]
  4008d8:	bd10      	pop	{r4, pc}

004008da <tc_start>:
  4008da:	0189      	lsls	r1, r1, #6
  4008dc:	2305      	movs	r3, #5
  4008de:	5043      	str	r3, [r0, r1]
  4008e0:	4770      	bx	lr

004008e2 <tc_stop>:
  4008e2:	0189      	lsls	r1, r1, #6
  4008e4:	2302      	movs	r3, #2
  4008e6:	5043      	str	r3, [r0, r1]
  4008e8:	4770      	bx	lr

004008ea <tc_write_rc>:
  4008ea:	eb00 1181 	add.w	r1, r0, r1, lsl #6
  4008ee:	61ca      	str	r2, [r1, #28]
  4008f0:	4770      	bx	lr

004008f2 <tc_enable_interrupt>:
  4008f2:	eb00 1181 	add.w	r1, r0, r1, lsl #6
  4008f6:	624a      	str	r2, [r1, #36]	; 0x24
  4008f8:	4770      	bx	lr

004008fa <tc_get_status>:
  4008fa:	eb00 1181 	add.w	r1, r0, r1, lsl #6
  4008fe:	6a08      	ldr	r0, [r1, #32]
  400900:	4770      	bx	lr

00400902 <tc_find_mck_divisor>:
  400902:	b5f0      	push	{r4, r5, r6, r7, lr}
  400904:	b087      	sub	sp, #28
  400906:	2402      	movs	r4, #2
  400908:	9401      	str	r4, [sp, #4]
  40090a:	2408      	movs	r4, #8
  40090c:	9402      	str	r4, [sp, #8]
  40090e:	2420      	movs	r4, #32
  400910:	9403      	str	r4, [sp, #12]
  400912:	2480      	movs	r4, #128	; 0x80
  400914:	9404      	str	r4, [sp, #16]
  400916:	9c0c      	ldr	r4, [sp, #48]	; 0x30
  400918:	0be4      	lsrs	r4, r4, #15
  40091a:	9405      	str	r4, [sp, #20]
  40091c:	2400      	movs	r4, #0
  40091e:	ad01      	add	r5, sp, #4
  400920:	f855 5024 	ldr.w	r5, [r5, r4, lsl #2]
  400924:	fbb1 f6f5 	udiv	r6, r1, r5
  400928:	4286      	cmp	r6, r0
  40092a:	ea4f 4716 	mov.w	r7, r6, lsr #16
  40092e:	d304      	bcc.n	40093a <tc_find_mck_divisor+0x38>
  400930:	4287      	cmp	r7, r0
  400932:	d904      	bls.n	40093e <tc_find_mck_divisor+0x3c>
  400934:	3401      	adds	r4, #1
  400936:	2c05      	cmp	r4, #5
  400938:	d1f1      	bne.n	40091e <tc_find_mck_divisor+0x1c>
  40093a:	2000      	movs	r0, #0
  40093c:	e004      	b.n	400948 <tc_find_mck_divisor+0x46>
  40093e:	b102      	cbz	r2, 400942 <tc_find_mck_divisor+0x40>
  400940:	6015      	str	r5, [r2, #0]
  400942:	b103      	cbz	r3, 400946 <tc_find_mck_divisor+0x44>
  400944:	601c      	str	r4, [r3, #0]
  400946:	2001      	movs	r0, #1
  400948:	b007      	add	sp, #28
  40094a:	bdf0      	pop	{r4, r5, r6, r7, pc}

0040094c <cpu_irq_save>:
  40094c:	f3ef 8010 	mrs	r0, PRIMASK
  400950:	b672      	cpsid	i
  400952:	f3bf 8f5f 	dmb	sy
  400956:	4b03      	ldr	r3, [pc, #12]	; (400964 <cpu_irq_save+0x18>)
  400958:	2200      	movs	r2, #0
  40095a:	fab0 f080 	clz	r0, r0
  40095e:	701a      	strb	r2, [r3, #0]
  400960:	0940      	lsrs	r0, r0, #5
  400962:	4770      	bx	lr
  400964:	20000154 	.word	0x20000154

00400968 <udd_ctrl_init>:
  400968:	4a03      	ldr	r2, [pc, #12]	; (400978 <udd_ctrl_init+0x10>)
  40096a:	2300      	movs	r3, #0
  40096c:	6113      	str	r3, [r2, #16]
  40096e:	6153      	str	r3, [r2, #20]
  400970:	8193      	strh	r3, [r2, #12]
  400972:	4a02      	ldr	r2, [pc, #8]	; (40097c <udd_ctrl_init+0x14>)
  400974:	7013      	strb	r3, [r2, #0]
  400976:	4770      	bx	lr
  400978:	20000560 	.word	0x20000560
  40097c:	2000032c 	.word	0x2000032c

00400980 <udd_ctrl_stall_data>:
  400980:	4b0d      	ldr	r3, [pc, #52]	; (4009b8 <udd_ctrl_stall_data+0x38>)
  400982:	2205      	movs	r2, #5
  400984:	701a      	strb	r2, [r3, #0]
  400986:	4a0d      	ldr	r2, [pc, #52]	; (4009bc <udd_ctrl_stall_data+0x3c>)
  400988:	b082      	sub	sp, #8
  40098a:	6b13      	ldr	r3, [r2, #48]	; 0x30
  40098c:	9300      	str	r3, [sp, #0]
  40098e:	9b00      	ldr	r3, [sp, #0]
  400990:	f043 034f 	orr.w	r3, r3, #79	; 0x4f
  400994:	9300      	str	r3, [sp, #0]
  400996:	9b00      	ldr	r3, [sp, #0]
  400998:	f043 0320 	orr.w	r3, r3, #32
  40099c:	9300      	str	r3, [sp, #0]
  40099e:	9b00      	ldr	r3, [sp, #0]
  4009a0:	6313      	str	r3, [r2, #48]	; 0x30
  4009a2:	2300      	movs	r3, #0
  4009a4:	9301      	str	r3, [sp, #4]
  4009a6:	9b01      	ldr	r3, [sp, #4]
  4009a8:	2b13      	cmp	r3, #19
  4009aa:	d803      	bhi.n	4009b4 <udd_ctrl_stall_data+0x34>
  4009ac:	bf00      	nop
  4009ae:	9b01      	ldr	r3, [sp, #4]
  4009b0:	3301      	adds	r3, #1
  4009b2:	e7f7      	b.n	4009a4 <udd_ctrl_stall_data+0x24>
  4009b4:	b002      	add	sp, #8
  4009b6:	4770      	bx	lr
  4009b8:	2000032c 	.word	0x2000032c
  4009bc:	40034000 	.word	0x40034000

004009c0 <udd_ctrl_send_zlp_in>:
  4009c0:	4b0d      	ldr	r3, [pc, #52]	; (4009f8 <udd_ctrl_send_zlp_in+0x38>)
  4009c2:	2203      	movs	r2, #3
  4009c4:	701a      	strb	r2, [r3, #0]
  4009c6:	4a0d      	ldr	r2, [pc, #52]	; (4009fc <udd_ctrl_send_zlp_in+0x3c>)
  4009c8:	b082      	sub	sp, #8
  4009ca:	6b13      	ldr	r3, [r2, #48]	; 0x30
  4009cc:	9300      	str	r3, [sp, #0]
  4009ce:	9b00      	ldr	r3, [sp, #0]
  4009d0:	f043 034f 	orr.w	r3, r3, #79	; 0x4f
  4009d4:	9300      	str	r3, [sp, #0]
  4009d6:	9b00      	ldr	r3, [sp, #0]
  4009d8:	f043 0310 	orr.w	r3, r3, #16
  4009dc:	9300      	str	r3, [sp, #0]
  4009de:	9b00      	ldr	r3, [sp, #0]
  4009e0:	6313      	str	r3, [r2, #48]	; 0x30
  4009e2:	2300      	movs	r3, #0
  4009e4:	9301      	str	r3, [sp, #4]
  4009e6:	9b01      	ldr	r3, [sp, #4]
  4009e8:	2b13      	cmp	r3, #19
  4009ea:	d803      	bhi.n	4009f4 <udd_ctrl_send_zlp_in+0x34>
  4009ec:	bf00      	nop
  4009ee:	9b01      	ldr	r3, [sp, #4]
  4009f0:	3301      	adds	r3, #1
  4009f2:	e7f7      	b.n	4009e4 <udd_ctrl_send_zlp_in+0x24>
  4009f4:	b002      	add	sp, #8
  4009f6:	4770      	bx	lr
  4009f8:	2000032c 	.word	0x2000032c
  4009fc:	40034000 	.word	0x40034000

00400a00 <udd_ctrl_endofrequest>:
  400a00:	4b02      	ldr	r3, [pc, #8]	; (400a0c <udd_ctrl_endofrequest+0xc>)
  400a02:	691b      	ldr	r3, [r3, #16]
  400a04:	b103      	cbz	r3, 400a08 <udd_ctrl_endofrequest+0x8>
  400a06:	4718      	bx	r3
  400a08:	4770      	bx	lr
  400a0a:	bf00      	nop
  400a0c:	20000560 	.word	0x20000560

00400a10 <udd_ep_ack_out_received>:
  400a10:	b57f      	push	{r0, r1, r2, r3, r4, r5, r6, lr}
  400a12:	0082      	lsls	r2, r0, #2
  400a14:	f102 2240 	add.w	r2, r2, #1073758208	; 0x40004000
  400a18:	f502 3240 	add.w	r2, r2, #196608	; 0x30000
  400a1c:	1e43      	subs	r3, r0, #1
  400a1e:	6b14      	ldr	r4, [r2, #48]	; 0x30
  400a20:	6b11      	ldr	r1, [r2, #48]	; 0x30
  400a22:	f014 0f02 	tst.w	r4, #2
  400a26:	4c2d      	ldr	r4, [pc, #180]	; (400adc <udd_ep_ack_out_received+0xcc>)
  400a28:	d00a      	beq.n	400a40 <udd_ep_ack_out_received+0x30>
  400a2a:	f011 0540 	ands.w	r5, r1, #64	; 0x40
  400a2e:	d10f      	bne.n	400a50 <udd_ep_ack_out_received+0x40>
  400a30:	2114      	movs	r1, #20
  400a32:	fb01 4103 	mla	r1, r1, r3, r4
  400a36:	7c4e      	ldrb	r6, [r1, #17]
  400a38:	f365 0683 	bfi	r6, r5, #2, #2
  400a3c:	744e      	strb	r6, [r1, #17]
  400a3e:	e007      	b.n	400a50 <udd_ep_ack_out_received+0x40>
  400a40:	2114      	movs	r1, #20
  400a42:	fb01 4103 	mla	r1, r1, r3, r4
  400a46:	2601      	movs	r6, #1
  400a48:	7c4d      	ldrb	r5, [r1, #17]
  400a4a:	f366 0583 	bfi	r5, r6, #2, #2
  400a4e:	744d      	strb	r5, [r1, #17]
  400a50:	2114      	movs	r1, #20
  400a52:	fb01 4103 	mla	r1, r1, r3, r4
  400a56:	7c49      	ldrb	r1, [r1, #17]
  400a58:	f011 010c 	ands.w	r1, r1, #12
  400a5c:	d11f      	bne.n	400a9e <udd_ep_ack_out_received+0x8e>
  400a5e:	6b15      	ldr	r5, [r2, #48]	; 0x30
  400a60:	9500      	str	r5, [sp, #0]
  400a62:	9d00      	ldr	r5, [sp, #0]
  400a64:	f045 054f 	orr.w	r5, r5, #79	; 0x4f
  400a68:	9500      	str	r5, [sp, #0]
  400a6a:	9d00      	ldr	r5, [sp, #0]
  400a6c:	f025 0502 	bic.w	r5, r5, #2
  400a70:	9500      	str	r5, [sp, #0]
  400a72:	9d00      	ldr	r5, [sp, #0]
  400a74:	6315      	str	r5, [r2, #48]	; 0x30
  400a76:	9101      	str	r1, [sp, #4]
  400a78:	9a01      	ldr	r2, [sp, #4]
  400a7a:	2a13      	cmp	r2, #19
  400a7c:	d804      	bhi.n	400a88 <udd_ep_ack_out_received+0x78>
  400a7e:	bf00      	nop
  400a80:	9a01      	ldr	r2, [sp, #4]
  400a82:	3201      	adds	r2, #1
  400a84:	9201      	str	r2, [sp, #4]
  400a86:	e7f7      	b.n	400a78 <udd_ep_ack_out_received+0x68>
  400a88:	b328      	cbz	r0, 400ad6 <udd_ep_ack_out_received+0xc6>
  400a8a:	2803      	cmp	r0, #3
  400a8c:	d023      	beq.n	400ad6 <udd_ep_ack_out_received+0xc6>
  400a8e:	2214      	movs	r2, #20
  400a90:	fb02 4303 	mla	r3, r2, r3, r4
  400a94:	2101      	movs	r1, #1
  400a96:	7c5a      	ldrb	r2, [r3, #17]
  400a98:	f361 0283 	bfi	r2, r1, #2, #2
  400a9c:	e01a      	b.n	400ad4 <udd_ep_ack_out_received+0xc4>
  400a9e:	6b11      	ldr	r1, [r2, #48]	; 0x30
  400aa0:	9102      	str	r1, [sp, #8]
  400aa2:	9902      	ldr	r1, [sp, #8]
  400aa4:	f041 014f 	orr.w	r1, r1, #79	; 0x4f
  400aa8:	9102      	str	r1, [sp, #8]
  400aaa:	9902      	ldr	r1, [sp, #8]
  400aac:	f021 0140 	bic.w	r1, r1, #64	; 0x40
  400ab0:	9102      	str	r1, [sp, #8]
  400ab2:	9902      	ldr	r1, [sp, #8]
  400ab4:	6311      	str	r1, [r2, #48]	; 0x30
  400ab6:	2200      	movs	r2, #0
  400ab8:	9203      	str	r2, [sp, #12]
  400aba:	9a03      	ldr	r2, [sp, #12]
  400abc:	2a13      	cmp	r2, #19
  400abe:	d803      	bhi.n	400ac8 <udd_ep_ack_out_received+0xb8>
  400ac0:	bf00      	nop
  400ac2:	9a03      	ldr	r2, [sp, #12]
  400ac4:	3201      	adds	r2, #1
  400ac6:	e7f7      	b.n	400ab8 <udd_ep_ack_out_received+0xa8>
  400ac8:	2214      	movs	r2, #20
  400aca:	fb02 4303 	mla	r3, r2, r3, r4
  400ace:	7c5a      	ldrb	r2, [r3, #17]
  400ad0:	f36f 0283 	bfc	r2, #2, #2
  400ad4:	745a      	strb	r2, [r3, #17]
  400ad6:	b004      	add	sp, #16
  400ad8:	bd70      	pop	{r4, r5, r6, pc}
  400ada:	bf00      	nop
  400adc:	200002b0 	.word	0x200002b0

00400ae0 <udd_ep_in_sent>:
  400ae0:	e92d 41f3 	stmdb	sp!, {r0, r1, r4, r5, r6, r7, r8, lr}
  400ae4:	4e61      	ldr	r6, [pc, #388]	; (400c6c <udd_ep_in_sent+0x18c>)
  400ae6:	1e43      	subs	r3, r0, #1
  400ae8:	2214      	movs	r2, #20
  400aea:	fb02 6203 	mla	r2, r2, r3, r6
  400aee:	7c52      	ldrb	r2, [r2, #17]
  400af0:	f3c2 0281 	ubfx	r2, r2, #2, #2
  400af4:	b120      	cbz	r0, 400b00 <udd_ep_in_sent+0x20>
  400af6:	2803      	cmp	r0, #3
  400af8:	bf0c      	ite	eq
  400afa:	2401      	moveq	r4, #1
  400afc:	2402      	movne	r4, #2
  400afe:	e000      	b.n	400b02 <udd_ep_in_sent+0x22>
  400b00:	2401      	movs	r4, #1
  400b02:	4294      	cmp	r4, r2
  400b04:	dc01      	bgt.n	400b0a <udd_ep_in_sent+0x2a>
  400b06:	2001      	movs	r0, #1
  400b08:	e0ac      	b.n	400c64 <udd_ep_in_sent+0x184>
  400b0a:	2214      	movs	r2, #20
  400b0c:	fb02 6203 	mla	r2, r2, r3, r6
  400b10:	68d4      	ldr	r4, [r2, #12]
  400b12:	6895      	ldr	r5, [r2, #8]
  400b14:	42ac      	cmp	r4, r5
  400b16:	d307      	bcc.n	400b28 <udd_ep_in_sent+0x48>
  400b18:	7c57      	ldrb	r7, [r2, #17]
  400b1a:	f007 0740 	and.w	r7, r7, #64	; 0x40
  400b1e:	f007 02ff 	and.w	r2, r7, #255	; 0xff
  400b22:	2f00      	cmp	r7, #0
  400b24:	f000 809d 	beq.w	400c62 <udd_ep_in_sent+0x182>
  400b28:	2214      	movs	r2, #20
  400b2a:	fb02 6c03 	mla	ip, r2, r3, r6
  400b2e:	ebc4 0e05 	rsb	lr, r4, r5
  400b32:	f8bc 5010 	ldrh.w	r5, [ip, #16]
  400b36:	f8dc 7004 	ldr.w	r7, [ip, #4]
  400b3a:	f3c5 0509 	ubfx	r5, r5, #0, #10
  400b3e:	45ae      	cmp	lr, r5
  400b40:	bf38      	it	cc
  400b42:	4675      	movcc	r5, lr
  400b44:	fb02 6203 	mla	r2, r2, r3, r6
  400b48:	4427      	add	r7, r4
  400b4a:	442c      	add	r4, r5
  400b4c:	60d4      	str	r4, [r2, #12]
  400b4e:	ea4f 0280 	mov.w	r2, r0, lsl #2
  400b52:	f102 2240 	add.w	r2, r2, #1073758208	; 0x40004000
  400b56:	bf34      	ite	cc
  400b58:	f04f 0e01 	movcc.w	lr, #1
  400b5c:	f04f 0e00 	movcs.w	lr, #0
  400b60:	f107 0408 	add.w	r4, r7, #8
  400b64:	f105 0808 	add.w	r8, r5, #8
  400b68:	f502 3240 	add.w	r2, r2, #196608	; 0x30000
  400b6c:	ebc4 0c08 	rsb	ip, r4, r8
  400b70:	44bc      	add	ip, r7
  400b72:	f1bc 0f07 	cmp.w	ip, #7
  400b76:	d921      	bls.n	400bbc <udd_ep_in_sent+0xdc>
  400b78:	f814 cc08 	ldrb.w	ip, [r4, #-8]
  400b7c:	f8c2 c050 	str.w	ip, [r2, #80]	; 0x50
  400b80:	f814 cc07 	ldrb.w	ip, [r4, #-7]
  400b84:	f8c2 c050 	str.w	ip, [r2, #80]	; 0x50
  400b88:	f814 cc06 	ldrb.w	ip, [r4, #-6]
  400b8c:	f8c2 c050 	str.w	ip, [r2, #80]	; 0x50
  400b90:	f814 cc05 	ldrb.w	ip, [r4, #-5]
  400b94:	f8c2 c050 	str.w	ip, [r2, #80]	; 0x50
  400b98:	f814 cc04 	ldrb.w	ip, [r4, #-4]
  400b9c:	f8c2 c050 	str.w	ip, [r2, #80]	; 0x50
  400ba0:	f814 cc03 	ldrb.w	ip, [r4, #-3]
  400ba4:	f8c2 c050 	str.w	ip, [r2, #80]	; 0x50
  400ba8:	f814 cc02 	ldrb.w	ip, [r4, #-2]
  400bac:	f8c2 c050 	str.w	ip, [r2, #80]	; 0x50
  400bb0:	f814 cc01 	ldrb.w	ip, [r4, #-1]
  400bb4:	f8c2 c050 	str.w	ip, [r2, #80]	; 0x50
  400bb8:	3408      	adds	r4, #8
  400bba:	e7d7      	b.n	400b6c <udd_ep_in_sent+0x8c>
  400bbc:	08ea      	lsrs	r2, r5, #3
  400bbe:	4c2c      	ldr	r4, [pc, #176]	; (400c70 <udd_ep_in_sent+0x190>)
  400bc0:	eb07 02c2 	add.w	r2, r7, r2, lsl #3
  400bc4:	443d      	add	r5, r7
  400bc6:	42aa      	cmp	r2, r5
  400bc8:	d006      	beq.n	400bd8 <udd_ep_in_sent+0xf8>
  400bca:	f100 0714 	add.w	r7, r0, #20
  400bce:	f812 cb01 	ldrb.w	ip, [r2], #1
  400bd2:	f844 c027 	str.w	ip, [r4, r7, lsl #2]
  400bd6:	e7f6      	b.n	400bc6 <udd_ep_in_sent+0xe6>
  400bd8:	2214      	movs	r2, #20
  400bda:	fb02 6203 	mla	r2, r2, r3, r6
  400bde:	7c54      	ldrb	r4, [r2, #17]
  400be0:	f3c4 0581 	ubfx	r5, r4, #2, #2
  400be4:	3501      	adds	r5, #1
  400be6:	f365 0483 	bfi	r4, r5, #2, #2
  400bea:	7454      	strb	r4, [r2, #17]
  400bec:	b951      	cbnz	r1, 400c04 <udd_ep_in_sent+0x124>
  400bee:	f1be 0f00 	cmp.w	lr, #0
  400bf2:	d021      	beq.n	400c38 <udd_ep_in_sent+0x158>
  400bf4:	2214      	movs	r2, #20
  400bf6:	fb02 6203 	mla	r2, r2, r3, r6
  400bfa:	7c51      	ldrb	r1, [r2, #17]
  400bfc:	f36f 1186 	bfc	r1, #6, #1
  400c00:	7451      	strb	r1, [r2, #17]
  400c02:	e019      	b.n	400c38 <udd_ep_in_sent+0x158>
  400c04:	0080      	lsls	r0, r0, #2
  400c06:	f100 2040 	add.w	r0, r0, #1073758208	; 0x40004000
  400c0a:	f500 3040 	add.w	r0, r0, #196608	; 0x30000
  400c0e:	6b02      	ldr	r2, [r0, #48]	; 0x30
  400c10:	9200      	str	r2, [sp, #0]
  400c12:	9a00      	ldr	r2, [sp, #0]
  400c14:	f042 024f 	orr.w	r2, r2, #79	; 0x4f
  400c18:	9200      	str	r2, [sp, #0]
  400c1a:	9a00      	ldr	r2, [sp, #0]
  400c1c:	f042 0210 	orr.w	r2, r2, #16
  400c20:	9200      	str	r2, [sp, #0]
  400c22:	9a00      	ldr	r2, [sp, #0]
  400c24:	6302      	str	r2, [r0, #48]	; 0x30
  400c26:	2200      	movs	r2, #0
  400c28:	9201      	str	r2, [sp, #4]
  400c2a:	9a01      	ldr	r2, [sp, #4]
  400c2c:	2a13      	cmp	r2, #19
  400c2e:	d8de      	bhi.n	400bee <udd_ep_in_sent+0x10e>
  400c30:	bf00      	nop
  400c32:	9a01      	ldr	r2, [sp, #4]
  400c34:	3201      	adds	r2, #1
  400c36:	e7f7      	b.n	400c28 <udd_ep_in_sent+0x148>
  400c38:	2214      	movs	r2, #20
  400c3a:	fb02 6303 	mla	r3, r2, r3, r6
  400c3e:	68d9      	ldr	r1, [r3, #12]
  400c40:	689a      	ldr	r2, [r3, #8]
  400c42:	4291      	cmp	r1, r2
  400c44:	f4ff af5f 	bcc.w	400b06 <udd_ep_in_sent+0x26>
  400c48:	7c5a      	ldrb	r2, [r3, #17]
  400c4a:	f002 0240 	and.w	r2, r2, #64	; 0x40
  400c4e:	f002 00ff 	and.w	r0, r2, #255	; 0xff
  400c52:	2a00      	cmp	r2, #0
  400c54:	f47f af57 	bne.w	400b06 <udd_ep_in_sent+0x26>
  400c58:	7c5a      	ldrb	r2, [r3, #17]
  400c5a:	f042 0280 	orr.w	r2, r2, #128	; 0x80
  400c5e:	745a      	strb	r2, [r3, #17]
  400c60:	e000      	b.n	400c64 <udd_ep_in_sent+0x184>
  400c62:	4610      	mov	r0, r2
  400c64:	b002      	add	sp, #8
  400c66:	e8bd 81f0 	ldmia.w	sp!, {r4, r5, r6, r7, r8, pc}
  400c6a:	bf00      	nop
  400c6c:	200002b0 	.word	0x200002b0
  400c70:	40034000 	.word	0x40034000

00400c74 <cpu_irq_restore>:
  400c74:	b128      	cbz	r0, 400c82 <cpu_irq_restore+0xe>
  400c76:	4b03      	ldr	r3, [pc, #12]	; (400c84 <cpu_irq_restore+0x10>)
  400c78:	2201      	movs	r2, #1
  400c7a:	701a      	strb	r2, [r3, #0]
  400c7c:	f3bf 8f5f 	dmb	sy
  400c80:	b662      	cpsie	i
  400c82:	4770      	bx	lr
  400c84:	20000154 	.word	0x20000154

00400c88 <sleepmgr_lock_mode>:
  400c88:	b510      	push	{r4, lr}
  400c8a:	4c07      	ldr	r4, [pc, #28]	; (400ca8 <sleepmgr_lock_mode+0x20>)
  400c8c:	5c23      	ldrb	r3, [r4, r0]
  400c8e:	2bff      	cmp	r3, #255	; 0xff
  400c90:	4601      	mov	r1, r0
  400c92:	d100      	bne.n	400c96 <sleepmgr_lock_mode+0xe>
  400c94:	e7fe      	b.n	400c94 <sleepmgr_lock_mode+0xc>
  400c96:	f7ff fe59 	bl	40094c <cpu_irq_save>
  400c9a:	5c63      	ldrb	r3, [r4, r1]
  400c9c:	3301      	adds	r3, #1
  400c9e:	5463      	strb	r3, [r4, r1]
  400ca0:	e8bd 4010 	ldmia.w	sp!, {r4, lr}
  400ca4:	f7ff bfe6 	b.w	400c74 <cpu_irq_restore>
  400ca8:	20000558 	.word	0x20000558

00400cac <sleepmgr_unlock_mode>:
  400cac:	b510      	push	{r4, lr}
  400cae:	4c07      	ldr	r4, [pc, #28]	; (400ccc <sleepmgr_unlock_mode+0x20>)
  400cb0:	5c23      	ldrb	r3, [r4, r0]
  400cb2:	4601      	mov	r1, r0
  400cb4:	b903      	cbnz	r3, 400cb8 <sleepmgr_unlock_mode+0xc>
  400cb6:	e7fe      	b.n	400cb6 <sleepmgr_unlock_mode+0xa>
  400cb8:	f7ff fe48 	bl	40094c <cpu_irq_save>
  400cbc:	5c63      	ldrb	r3, [r4, r1]
  400cbe:	3b01      	subs	r3, #1
  400cc0:	5463      	strb	r3, [r4, r1]
  400cc2:	e8bd 4010 	ldmia.w	sp!, {r4, lr}
  400cc6:	f7ff bfd5 	b.w	400c74 <cpu_irq_restore>
  400cca:	bf00      	nop
  400ccc:	20000558 	.word	0x20000558

00400cd0 <udd_sleep_mode>:
  400cd0:	b538      	push	{r3, r4, r5, lr}
  400cd2:	4c07      	ldr	r4, [pc, #28]	; (400cf0 <udd_sleep_mode+0x20>)
  400cd4:	4605      	mov	r5, r0
  400cd6:	7823      	ldrb	r3, [r4, #0]
  400cd8:	b920      	cbnz	r0, 400ce4 <udd_sleep_mode+0x14>
  400cda:	b13b      	cbz	r3, 400cec <udd_sleep_mode+0x1c>
  400cdc:	2002      	movs	r0, #2
  400cde:	f7ff ffe5 	bl	400cac <sleepmgr_unlock_mode>
  400ce2:	e003      	b.n	400cec <udd_sleep_mode+0x1c>
  400ce4:	b913      	cbnz	r3, 400cec <udd_sleep_mode+0x1c>
  400ce6:	2002      	movs	r0, #2
  400ce8:	f7ff ffce 	bl	400c88 <sleepmgr_lock_mode>
  400cec:	7025      	strb	r5, [r4, #0]
  400cee:	bd38      	pop	{r3, r4, r5, pc}
  400cf0:	20000328 	.word	0x20000328

00400cf4 <udd_ctrl_in_sent>:
  400cf4:	e92d 41f0 	stmdb	sp!, {r4, r5, r6, r7, r8, lr}
  400cf8:	4f5e      	ldr	r7, [pc, #376]	; (400e74 <udd_ctrl_in_sent+0x180>)
  400cfa:	783b      	ldrb	r3, [r7, #0]
  400cfc:	2b03      	cmp	r3, #3
  400cfe:	b08a      	sub	sp, #40	; 0x28
  400d00:	d11a      	bne.n	400d38 <udd_ctrl_in_sent+0x44>
  400d02:	4a5d      	ldr	r2, [pc, #372]	; (400e78 <udd_ctrl_in_sent+0x184>)
  400d04:	6b13      	ldr	r3, [r2, #48]	; 0x30
  400d06:	9300      	str	r3, [sp, #0]
  400d08:	9b00      	ldr	r3, [sp, #0]
  400d0a:	f043 034f 	orr.w	r3, r3, #79	; 0x4f
  400d0e:	9300      	str	r3, [sp, #0]
  400d10:	9b00      	ldr	r3, [sp, #0]
  400d12:	f023 0301 	bic.w	r3, r3, #1
  400d16:	9300      	str	r3, [sp, #0]
  400d18:	9b00      	ldr	r3, [sp, #0]
  400d1a:	6313      	str	r3, [r2, #48]	; 0x30
  400d1c:	2300      	movs	r3, #0
  400d1e:	9301      	str	r3, [sp, #4]
  400d20:	9b01      	ldr	r3, [sp, #4]
  400d22:	2b13      	cmp	r3, #19
  400d24:	d803      	bhi.n	400d2e <udd_ctrl_in_sent+0x3a>
  400d26:	bf00      	nop
  400d28:	9b01      	ldr	r3, [sp, #4]
  400d2a:	3301      	adds	r3, #1
  400d2c:	e7f7      	b.n	400d1e <udd_ctrl_in_sent+0x2a>
  400d2e:	f7ff fe67 	bl	400a00 <udd_ctrl_endofrequest>
  400d32:	f7ff fe19 	bl	400968 <udd_ctrl_init>
  400d36:	e09a      	b.n	400e6e <udd_ctrl_in_sent+0x17a>
  400d38:	4e50      	ldr	r6, [pc, #320]	; (400e7c <udd_ctrl_in_sent+0x188>)
  400d3a:	4d51      	ldr	r5, [pc, #324]	; (400e80 <udd_ctrl_in_sent+0x18c>)
  400d3c:	8831      	ldrh	r1, [r6, #0]
  400d3e:	89ac      	ldrh	r4, [r5, #12]
  400d40:	1a64      	subs	r4, r4, r1
  400d42:	b2a4      	uxth	r4, r4
  400d44:	2c00      	cmp	r4, #0
  400d46:	d128      	bne.n	400d9a <udd_ctrl_in_sent+0xa6>
  400d48:	4a4e      	ldr	r2, [pc, #312]	; (400e84 <udd_ctrl_in_sent+0x190>)
  400d4a:	8813      	ldrh	r3, [r2, #0]
  400d4c:	440b      	add	r3, r1
  400d4e:	b29b      	uxth	r3, r3
  400d50:	8013      	strh	r3, [r2, #0]
  400d52:	88ea      	ldrh	r2, [r5, #6]
  400d54:	429a      	cmp	r2, r3
  400d56:	d002      	beq.n	400d5e <udd_ctrl_in_sent+0x6a>
  400d58:	4b4b      	ldr	r3, [pc, #300]	; (400e88 <udd_ctrl_in_sent+0x194>)
  400d5a:	781b      	ldrb	r3, [r3, #0]
  400d5c:	b1bb      	cbz	r3, 400d8e <udd_ctrl_in_sent+0x9a>
  400d5e:	2304      	movs	r3, #4
  400d60:	4a45      	ldr	r2, [pc, #276]	; (400e78 <udd_ctrl_in_sent+0x184>)
  400d62:	703b      	strb	r3, [r7, #0]
  400d64:	6b13      	ldr	r3, [r2, #48]	; 0x30
  400d66:	9302      	str	r3, [sp, #8]
  400d68:	9b02      	ldr	r3, [sp, #8]
  400d6a:	f043 034f 	orr.w	r3, r3, #79	; 0x4f
  400d6e:	9302      	str	r3, [sp, #8]
  400d70:	9b02      	ldr	r3, [sp, #8]
  400d72:	f023 0301 	bic.w	r3, r3, #1
  400d76:	9302      	str	r3, [sp, #8]
  400d78:	9b02      	ldr	r3, [sp, #8]
  400d7a:	6313      	str	r3, [r2, #48]	; 0x30
  400d7c:	2300      	movs	r3, #0
  400d7e:	9303      	str	r3, [sp, #12]
  400d80:	9b03      	ldr	r3, [sp, #12]
  400d82:	2b13      	cmp	r3, #19
  400d84:	d873      	bhi.n	400e6e <udd_ctrl_in_sent+0x17a>
  400d86:	bf00      	nop
  400d88:	9b03      	ldr	r3, [sp, #12]
  400d8a:	3301      	adds	r3, #1
  400d8c:	e7f7      	b.n	400d7e <udd_ctrl_in_sent+0x8a>
  400d8e:	696b      	ldr	r3, [r5, #20]
  400d90:	b153      	cbz	r3, 400da8 <udd_ctrl_in_sent+0xb4>
  400d92:	4798      	blx	r3
  400d94:	b140      	cbz	r0, 400da8 <udd_ctrl_in_sent+0xb4>
  400d96:	8034      	strh	r4, [r6, #0]
  400d98:	89ac      	ldrh	r4, [r5, #12]
  400d9a:	2c3f      	cmp	r4, #63	; 0x3f
  400d9c:	d904      	bls.n	400da8 <udd_ctrl_in_sent+0xb4>
  400d9e:	4b3a      	ldr	r3, [pc, #232]	; (400e88 <udd_ctrl_in_sent+0x194>)
  400da0:	2200      	movs	r2, #0
  400da2:	701a      	strb	r2, [r3, #0]
  400da4:	2440      	movs	r4, #64	; 0x40
  400da6:	e002      	b.n	400dae <udd_ctrl_in_sent+0xba>
  400da8:	4b37      	ldr	r3, [pc, #220]	; (400e88 <udd_ctrl_in_sent+0x194>)
  400daa:	2201      	movs	r2, #1
  400dac:	701a      	strb	r2, [r3, #0]
  400dae:	f8d5 8008 	ldr.w	r8, [r5, #8]
  400db2:	8835      	ldrh	r5, [r6, #0]
  400db4:	f7ff fdca 	bl	40094c <cpu_irq_save>
  400db8:	492f      	ldr	r1, [pc, #188]	; (400e78 <udd_ctrl_in_sent+0x184>)
  400dba:	6b0b      	ldr	r3, [r1, #48]	; 0x30
  400dbc:	079b      	lsls	r3, r3, #30
  400dbe:	4602      	mov	r2, r0
  400dc0:	d403      	bmi.n	400dca <udd_ctrl_in_sent+0xd6>
  400dc2:	eb08 0305 	add.w	r3, r8, r5
  400dc6:	461f      	mov	r7, r3
  400dc8:	e018      	b.n	400dfc <udd_ctrl_in_sent+0x108>
  400dca:	f7ff ff53 	bl	400c74 <cpu_irq_restore>
  400dce:	2304      	movs	r3, #4
  400dd0:	703b      	strb	r3, [r7, #0]
  400dd2:	6b0b      	ldr	r3, [r1, #48]	; 0x30
  400dd4:	9304      	str	r3, [sp, #16]
  400dd6:	9b04      	ldr	r3, [sp, #16]
  400dd8:	f043 034f 	orr.w	r3, r3, #79	; 0x4f
  400ddc:	9304      	str	r3, [sp, #16]
  400dde:	9b04      	ldr	r3, [sp, #16]
  400de0:	f023 0301 	bic.w	r3, r3, #1
  400de4:	9304      	str	r3, [sp, #16]
  400de6:	9b04      	ldr	r3, [sp, #16]
  400de8:	630b      	str	r3, [r1, #48]	; 0x30
  400dea:	2300      	movs	r3, #0
  400dec:	9305      	str	r3, [sp, #20]
  400dee:	9b05      	ldr	r3, [sp, #20]
  400df0:	2b13      	cmp	r3, #19
  400df2:	d83c      	bhi.n	400e6e <udd_ctrl_in_sent+0x17a>
  400df4:	bf00      	nop
  400df6:	9b05      	ldr	r3, [sp, #20]
  400df8:	3301      	adds	r3, #1
  400dfa:	e7f7      	b.n	400dec <udd_ctrl_in_sent+0xf8>
  400dfc:	1af8      	subs	r0, r7, r3
  400dfe:	b2c0      	uxtb	r0, r0
  400e00:	42a0      	cmp	r0, r4
  400e02:	481d      	ldr	r0, [pc, #116]	; (400e78 <udd_ctrl_in_sent+0x184>)
  400e04:	d203      	bcs.n	400e0e <udd_ctrl_in_sent+0x11a>
  400e06:	f817 0b01 	ldrb.w	r0, [r7], #1
  400e0a:	6508      	str	r0, [r1, #80]	; 0x50
  400e0c:	e7f6      	b.n	400dfc <udd_ctrl_in_sent+0x108>
  400e0e:	442c      	add	r4, r5
  400e10:	8034      	strh	r4, [r6, #0]
  400e12:	6b03      	ldr	r3, [r0, #48]	; 0x30
  400e14:	9306      	str	r3, [sp, #24]
  400e16:	9b06      	ldr	r3, [sp, #24]
  400e18:	f043 034f 	orr.w	r3, r3, #79	; 0x4f
  400e1c:	9306      	str	r3, [sp, #24]
  400e1e:	9b06      	ldr	r3, [sp, #24]
  400e20:	f043 0310 	orr.w	r3, r3, #16
  400e24:	9306      	str	r3, [sp, #24]
  400e26:	9b06      	ldr	r3, [sp, #24]
  400e28:	6303      	str	r3, [r0, #48]	; 0x30
  400e2a:	2300      	movs	r3, #0
  400e2c:	9307      	str	r3, [sp, #28]
  400e2e:	9b07      	ldr	r3, [sp, #28]
  400e30:	2b13      	cmp	r3, #19
  400e32:	d803      	bhi.n	400e3c <udd_ctrl_in_sent+0x148>
  400e34:	bf00      	nop
  400e36:	9b07      	ldr	r3, [sp, #28]
  400e38:	3301      	adds	r3, #1
  400e3a:	e7f7      	b.n	400e2c <udd_ctrl_in_sent+0x138>
  400e3c:	490e      	ldr	r1, [pc, #56]	; (400e78 <udd_ctrl_in_sent+0x184>)
  400e3e:	6b0b      	ldr	r3, [r1, #48]	; 0x30
  400e40:	9308      	str	r3, [sp, #32]
  400e42:	9b08      	ldr	r3, [sp, #32]
  400e44:	f043 034f 	orr.w	r3, r3, #79	; 0x4f
  400e48:	9308      	str	r3, [sp, #32]
  400e4a:	9b08      	ldr	r3, [sp, #32]
  400e4c:	f023 0301 	bic.w	r3, r3, #1
  400e50:	9308      	str	r3, [sp, #32]
  400e52:	9b08      	ldr	r3, [sp, #32]
  400e54:	630b      	str	r3, [r1, #48]	; 0x30
  400e56:	2300      	movs	r3, #0
  400e58:	9309      	str	r3, [sp, #36]	; 0x24
  400e5a:	9b09      	ldr	r3, [sp, #36]	; 0x24
  400e5c:	2b13      	cmp	r3, #19
  400e5e:	d803      	bhi.n	400e68 <udd_ctrl_in_sent+0x174>
  400e60:	bf00      	nop
  400e62:	9b09      	ldr	r3, [sp, #36]	; 0x24
  400e64:	3301      	adds	r3, #1
  400e66:	e7f7      	b.n	400e58 <udd_ctrl_in_sent+0x164>
  400e68:	4610      	mov	r0, r2
  400e6a:	f7ff ff03 	bl	400c74 <cpu_irq_restore>
  400e6e:	b00a      	add	sp, #40	; 0x28
  400e70:	e8bd 81f0 	ldmia.w	sp!, {r4, r5, r6, r7, r8, pc}
  400e74:	2000032c 	.word	0x2000032c
  400e78:	40034000 	.word	0x40034000
  400e7c:	2000032a 	.word	0x2000032a
  400e80:	20000560 	.word	0x20000560
  400e84:	200002ac 	.word	0x200002ac
  400e88:	20000329 	.word	0x20000329

00400e8c <udd_ep_finish_job>:
  400e8c:	b430      	push	{r4, r5}
  400e8e:	7c43      	ldrb	r3, [r0, #17]
  400e90:	06dc      	lsls	r4, r3, #27
  400e92:	460d      	mov	r5, r1
  400e94:	d515      	bpl.n	400ec2 <udd_ep_finish_job+0x36>
  400e96:	6804      	ldr	r4, [r0, #0]
  400e98:	f36f 1304 	bfc	r3, #4, #1
  400e9c:	7443      	strb	r3, [r0, #17]
  400e9e:	b184      	cbz	r4, 400ec2 <udd_ep_finish_job+0x36>
  400ea0:	4909      	ldr	r1, [pc, #36]	; (400ec8 <udd_ep_finish_job+0x3c>)
  400ea2:	f102 030c 	add.w	r3, r2, #12
  400ea6:	f851 3023 	ldr.w	r3, [r1, r3, lsl #2]
  400eaa:	0559      	lsls	r1, r3, #21
  400eac:	f105 33ff 	add.w	r3, r5, #4294967295
  400eb0:	bf48      	it	mi
  400eb2:	f042 0280 	orrmi.w	r2, r2, #128	; 0x80
  400eb6:	6881      	ldr	r1, [r0, #8]
  400eb8:	4258      	negs	r0, r3
  400eba:	4158      	adcs	r0, r3
  400ebc:	4623      	mov	r3, r4
  400ebe:	bc30      	pop	{r4, r5}
  400ec0:	4718      	bx	r3
  400ec2:	bc30      	pop	{r4, r5}
  400ec4:	4770      	bx	lr
  400ec6:	bf00      	nop
  400ec8:	40034000 	.word	0x40034000

00400ecc <UDP_Handler>:
  400ecc:	e92d 4ff0 	stmdb	sp!, {r4, r5, r6, r7, r8, r9, sl, fp, lr}
  400ed0:	b0b3      	sub	sp, #204	; 0xcc
  400ed2:	f001 fba7 	bl	402624 <pmc_is_wakeup_clocks_restored>
  400ed6:	4c87      	ldr	r4, [pc, #540]	; (4010f4 <UDP_Handler+0x228>)
  400ed8:	b950      	cbnz	r0, 400ef0 <UDP_Handler+0x24>
  400eda:	69e3      	ldr	r3, [r4, #28]
  400edc:	f413 7380 	ands.w	r3, r3, #256	; 0x100
  400ee0:	d106      	bne.n	400ef0 <UDP_Handler+0x24>
  400ee2:	b672      	cpsid	i
  400ee4:	f3bf 8f5f 	dmb	sy
  400ee8:	4a83      	ldr	r2, [pc, #524]	; (4010f8 <UDP_Handler+0x22c>)
  400eea:	7013      	strb	r3, [r2, #0]
  400eec:	f000 bc24 	b.w	401738 <UDP_Handler+0x86c>
  400ef0:	2022      	movs	r0, #34	; 0x22
  400ef2:	f001 f9e1 	bl	4022b8 <pmc_enable_periph_clk>
  400ef6:	69a2      	ldr	r2, [r4, #24]
  400ef8:	4b7e      	ldr	r3, [pc, #504]	; (4010f4 <UDP_Handler+0x228>)
  400efa:	0511      	lsls	r1, r2, #20
  400efc:	d509      	bpl.n	400f12 <UDP_Handler+0x46>
  400efe:	69da      	ldr	r2, [r3, #28]
  400f00:	0512      	lsls	r2, r2, #20
  400f02:	d506      	bpl.n	400f12 <UDP_Handler+0x46>
  400f04:	f44f 6200 	mov.w	r2, #2048	; 0x800
  400f08:	621a      	str	r2, [r3, #32]
  400f0a:	f7ff fa11 	bl	400330 <udc_sof_notify>
  400f0e:	f000 bc13 	b.w	401738 <UDP_Handler+0x86c>
  400f12:	4b78      	ldr	r3, [pc, #480]	; (4010f4 <UDP_Handler+0x228>)
  400f14:	69da      	ldr	r2, [r3, #28]
  400f16:	07d7      	lsls	r7, r2, #31
  400f18:	f140 81a7 	bpl.w	40126a <UDP_Handler+0x39e>
  400f1c:	6b1a      	ldr	r2, [r3, #48]	; 0x30
  400f1e:	0756      	lsls	r6, r2, #29
  400f20:	f140 809f 	bpl.w	401062 <UDP_Handler+0x196>
  400f24:	4d75      	ldr	r5, [pc, #468]	; (4010fc <UDP_Handler+0x230>)
  400f26:	782b      	ldrb	r3, [r5, #0]
  400f28:	b11b      	cbz	r3, 400f32 <UDP_Handler+0x66>
  400f2a:	f7ff fd69 	bl	400a00 <udd_ctrl_endofrequest>
  400f2e:	f7ff fd1b 	bl	400968 <udd_ctrl_init>
  400f32:	4b70      	ldr	r3, [pc, #448]	; (4010f4 <UDP_Handler+0x228>)
  400f34:	6b1a      	ldr	r2, [r3, #48]	; 0x30
  400f36:	f3c2 420a 	ubfx	r2, r2, #16, #11
  400f3a:	2a08      	cmp	r2, #8
  400f3c:	d017      	beq.n	400f6e <UDP_Handler+0xa2>
  400f3e:	6b1a      	ldr	r2, [r3, #48]	; 0x30
  400f40:	9204      	str	r2, [sp, #16]
  400f42:	9a04      	ldr	r2, [sp, #16]
  400f44:	f042 024f 	orr.w	r2, r2, #79	; 0x4f
  400f48:	9204      	str	r2, [sp, #16]
  400f4a:	9a04      	ldr	r2, [sp, #16]
  400f4c:	f022 0204 	bic.w	r2, r2, #4
  400f50:	9204      	str	r2, [sp, #16]
  400f52:	9a04      	ldr	r2, [sp, #16]
  400f54:	631a      	str	r2, [r3, #48]	; 0x30
  400f56:	2300      	movs	r3, #0
  400f58:	9305      	str	r3, [sp, #20]
  400f5a:	9b05      	ldr	r3, [sp, #20]
  400f5c:	2b13      	cmp	r3, #19
  400f5e:	d803      	bhi.n	400f68 <UDP_Handler+0x9c>
  400f60:	bf00      	nop
  400f62:	9b05      	ldr	r3, [sp, #20]
  400f64:	3301      	adds	r3, #1
  400f66:	e7f7      	b.n	400f58 <UDP_Handler+0x8c>
  400f68:	f7ff fd0a 	bl	400980 <udd_ctrl_stall_data>
  400f6c:	e3e4      	b.n	401738 <UDP_Handler+0x86c>
  400f6e:	4964      	ldr	r1, [pc, #400]	; (401100 <UDP_Handler+0x234>)
  400f70:	2200      	movs	r2, #0
  400f72:	6d18      	ldr	r0, [r3, #80]	; 0x50
  400f74:	4f62      	ldr	r7, [pc, #392]	; (401100 <UDP_Handler+0x234>)
  400f76:	5450      	strb	r0, [r2, r1]
  400f78:	3201      	adds	r2, #1
  400f7a:	2a08      	cmp	r2, #8
  400f7c:	4c5d      	ldr	r4, [pc, #372]	; (4010f4 <UDP_Handler+0x228>)
  400f7e:	463e      	mov	r6, r7
  400f80:	d1f7      	bne.n	400f72 <UDP_Handler+0xa6>
  400f82:	f7ff f9ef 	bl	400364 <udc_process_setup>
  400f86:	b9a0      	cbnz	r0, 400fb2 <UDP_Handler+0xe6>
  400f88:	6b23      	ldr	r3, [r4, #48]	; 0x30
  400f8a:	9306      	str	r3, [sp, #24]
  400f8c:	9b06      	ldr	r3, [sp, #24]
  400f8e:	f043 034f 	orr.w	r3, r3, #79	; 0x4f
  400f92:	9306      	str	r3, [sp, #24]
  400f94:	9b06      	ldr	r3, [sp, #24]
  400f96:	f023 0304 	bic.w	r3, r3, #4
  400f9a:	9306      	str	r3, [sp, #24]
  400f9c:	9b06      	ldr	r3, [sp, #24]
  400f9e:	6323      	str	r3, [r4, #48]	; 0x30
  400fa0:	9007      	str	r0, [sp, #28]
  400fa2:	9b07      	ldr	r3, [sp, #28]
  400fa4:	2b13      	cmp	r3, #19
  400fa6:	d8df      	bhi.n	400f68 <UDP_Handler+0x9c>
  400fa8:	bf00      	nop
  400faa:	9b07      	ldr	r3, [sp, #28]
  400fac:	3301      	adds	r3, #1
  400fae:	9307      	str	r3, [sp, #28]
  400fb0:	e7f7      	b.n	400fa2 <UDP_Handler+0xd6>
  400fb2:	f997 3000 	ldrsb.w	r3, [r7]
  400fb6:	2b00      	cmp	r3, #0
  400fb8:	6b23      	ldr	r3, [r4, #48]	; 0x30
  400fba:	da31      	bge.n	401020 <UDP_Handler+0x154>
  400fbc:	9308      	str	r3, [sp, #32]
  400fbe:	9b08      	ldr	r3, [sp, #32]
  400fc0:	f043 034f 	orr.w	r3, r3, #79	; 0x4f
  400fc4:	9308      	str	r3, [sp, #32]
  400fc6:	9b08      	ldr	r3, [sp, #32]
  400fc8:	f043 0380 	orr.w	r3, r3, #128	; 0x80
  400fcc:	9308      	str	r3, [sp, #32]
  400fce:	9b08      	ldr	r3, [sp, #32]
  400fd0:	6323      	str	r3, [r4, #48]	; 0x30
  400fd2:	2300      	movs	r3, #0
  400fd4:	9309      	str	r3, [sp, #36]	; 0x24
  400fd6:	9b09      	ldr	r3, [sp, #36]	; 0x24
  400fd8:	2b13      	cmp	r3, #19
  400fda:	d803      	bhi.n	400fe4 <UDP_Handler+0x118>
  400fdc:	bf00      	nop
  400fde:	9b09      	ldr	r3, [sp, #36]	; 0x24
  400fe0:	3301      	adds	r3, #1
  400fe2:	e7f7      	b.n	400fd4 <UDP_Handler+0x108>
  400fe4:	4a43      	ldr	r2, [pc, #268]	; (4010f4 <UDP_Handler+0x228>)
  400fe6:	6b13      	ldr	r3, [r2, #48]	; 0x30
  400fe8:	930a      	str	r3, [sp, #40]	; 0x28
  400fea:	9b0a      	ldr	r3, [sp, #40]	; 0x28
  400fec:	f043 034f 	orr.w	r3, r3, #79	; 0x4f
  400ff0:	930a      	str	r3, [sp, #40]	; 0x28
  400ff2:	9b0a      	ldr	r3, [sp, #40]	; 0x28
  400ff4:	f023 0304 	bic.w	r3, r3, #4
  400ff8:	930a      	str	r3, [sp, #40]	; 0x28
  400ffa:	9b0a      	ldr	r3, [sp, #40]	; 0x28
  400ffc:	6313      	str	r3, [r2, #48]	; 0x30
  400ffe:	2300      	movs	r3, #0
  401000:	930b      	str	r3, [sp, #44]	; 0x2c
  401002:	9b0b      	ldr	r3, [sp, #44]	; 0x2c
  401004:	2b13      	cmp	r3, #19
  401006:	d803      	bhi.n	401010 <UDP_Handler+0x144>
  401008:	bf00      	nop
  40100a:	9b0b      	ldr	r3, [sp, #44]	; 0x2c
  40100c:	3301      	adds	r3, #1
  40100e:	e7f7      	b.n	401000 <UDP_Handler+0x134>
  401010:	4a3c      	ldr	r2, [pc, #240]	; (401104 <UDP_Handler+0x238>)
  401012:	2300      	movs	r3, #0
  401014:	8013      	strh	r3, [r2, #0]
  401016:	4a3c      	ldr	r2, [pc, #240]	; (401108 <UDP_Handler+0x23c>)
  401018:	8013      	strh	r3, [r2, #0]
  40101a:	2302      	movs	r3, #2
  40101c:	702b      	strb	r3, [r5, #0]
  40101e:	e023      	b.n	401068 <UDP_Handler+0x19c>
  401020:	930c      	str	r3, [sp, #48]	; 0x30
  401022:	9b0c      	ldr	r3, [sp, #48]	; 0x30
  401024:	f043 034f 	orr.w	r3, r3, #79	; 0x4f
  401028:	930c      	str	r3, [sp, #48]	; 0x30
  40102a:	9b0c      	ldr	r3, [sp, #48]	; 0x30
  40102c:	f023 0304 	bic.w	r3, r3, #4
  401030:	930c      	str	r3, [sp, #48]	; 0x30
  401032:	9b0c      	ldr	r3, [sp, #48]	; 0x30
  401034:	6323      	str	r3, [r4, #48]	; 0x30
  401036:	2300      	movs	r3, #0
  401038:	930d      	str	r3, [sp, #52]	; 0x34
  40103a:	9b0d      	ldr	r3, [sp, #52]	; 0x34
  40103c:	2b13      	cmp	r3, #19
  40103e:	d803      	bhi.n	401048 <UDP_Handler+0x17c>
  401040:	bf00      	nop
  401042:	9b0d      	ldr	r3, [sp, #52]	; 0x34
  401044:	3301      	adds	r3, #1
  401046:	e7f7      	b.n	401038 <UDP_Handler+0x16c>
  401048:	88f3      	ldrh	r3, [r6, #6]
  40104a:	b913      	cbnz	r3, 401052 <UDP_Handler+0x186>
  40104c:	f7ff fcb8 	bl	4009c0 <udd_ctrl_send_zlp_in>
  401050:	e372      	b.n	401738 <UDP_Handler+0x86c>
  401052:	4a2c      	ldr	r2, [pc, #176]	; (401104 <UDP_Handler+0x238>)
  401054:	2300      	movs	r3, #0
  401056:	8013      	strh	r3, [r2, #0]
  401058:	4a2b      	ldr	r2, [pc, #172]	; (401108 <UDP_Handler+0x23c>)
  40105a:	8013      	strh	r3, [r2, #0]
  40105c:	2301      	movs	r3, #1
  40105e:	702b      	strb	r3, [r5, #0]
  401060:	e36a      	b.n	401738 <UDP_Handler+0x86c>
  401062:	6b1a      	ldr	r2, [r3, #48]	; 0x30
  401064:	07d5      	lsls	r5, r2, #31
  401066:	d502      	bpl.n	40106e <UDP_Handler+0x1a2>
  401068:	f7ff fe44 	bl	400cf4 <udd_ctrl_in_sent>
  40106c:	e364      	b.n	401738 <UDP_Handler+0x86c>
  40106e:	6b1a      	ldr	r2, [r3, #48]	; 0x30
  401070:	f012 0202 	ands.w	r2, r2, #2
  401074:	f000 80e0 	beq.w	401238 <UDP_Handler+0x36c>
  401078:	4a20      	ldr	r2, [pc, #128]	; (4010fc <UDP_Handler+0x230>)
  40107a:	7812      	ldrb	r2, [r2, #0]
  40107c:	2a01      	cmp	r2, #1
  40107e:	d021      	beq.n	4010c4 <UDP_Handler+0x1f8>
  401080:	2a02      	cmp	r2, #2
  401082:	d001      	beq.n	401088 <UDP_Handler+0x1bc>
  401084:	2a04      	cmp	r2, #4
  401086:	d102      	bne.n	40108e <UDP_Handler+0x1c2>
  401088:	f7ff fcba 	bl	400a00 <udd_ctrl_endofrequest>
  40108c:	e001      	b.n	401092 <UDP_Handler+0x1c6>
  40108e:	f7ff fc77 	bl	400980 <udd_ctrl_stall_data>
  401092:	4a18      	ldr	r2, [pc, #96]	; (4010f4 <UDP_Handler+0x228>)
  401094:	6b13      	ldr	r3, [r2, #48]	; 0x30
  401096:	930e      	str	r3, [sp, #56]	; 0x38
  401098:	9b0e      	ldr	r3, [sp, #56]	; 0x38
  40109a:	f043 034f 	orr.w	r3, r3, #79	; 0x4f
  40109e:	930e      	str	r3, [sp, #56]	; 0x38
  4010a0:	9b0e      	ldr	r3, [sp, #56]	; 0x38
  4010a2:	f023 0302 	bic.w	r3, r3, #2
  4010a6:	930e      	str	r3, [sp, #56]	; 0x38
  4010a8:	9b0e      	ldr	r3, [sp, #56]	; 0x38
  4010aa:	6313      	str	r3, [r2, #48]	; 0x30
  4010ac:	2300      	movs	r3, #0
  4010ae:	930f      	str	r3, [sp, #60]	; 0x3c
  4010b0:	9b0f      	ldr	r3, [sp, #60]	; 0x3c
  4010b2:	2b13      	cmp	r3, #19
  4010b4:	d803      	bhi.n	4010be <UDP_Handler+0x1f2>
  4010b6:	bf00      	nop
  4010b8:	9b0f      	ldr	r3, [sp, #60]	; 0x3c
  4010ba:	3301      	adds	r3, #1
  4010bc:	e7f7      	b.n	4010ae <UDP_Handler+0x1e2>
  4010be:	f7ff fc53 	bl	400968 <udd_ctrl_init>
  4010c2:	e339      	b.n	401738 <UDP_Handler+0x86c>
  4010c4:	4e10      	ldr	r6, [pc, #64]	; (401108 <UDP_Handler+0x23c>)
  4010c6:	6b1a      	ldr	r2, [r3, #48]	; 0x30
  4010c8:	480d      	ldr	r0, [pc, #52]	; (401100 <UDP_Handler+0x234>)
  4010ca:	8833      	ldrh	r3, [r6, #0]
  4010cc:	8981      	ldrh	r1, [r0, #12]
  4010ce:	4f09      	ldr	r7, [pc, #36]	; (4010f4 <UDP_Handler+0x228>)
  4010d0:	f3c2 420a 	ubfx	r2, r2, #16, #11
  4010d4:	189c      	adds	r4, r3, r2
  4010d6:	42a1      	cmp	r1, r4
  4010d8:	bfb8      	it	lt
  4010da:	1aca      	sublt	r2, r1, r3
  4010dc:	6881      	ldr	r1, [r0, #8]
  4010de:	4419      	add	r1, r3
  4010e0:	b292      	uxth	r2, r2
  4010e2:	460d      	mov	r5, r1
  4010e4:	1a6c      	subs	r4, r5, r1
  4010e6:	b2e4      	uxtb	r4, r4
  4010e8:	4294      	cmp	r4, r2
  4010ea:	d20f      	bcs.n	40110c <UDP_Handler+0x240>
  4010ec:	6d3c      	ldr	r4, [r7, #80]	; 0x50
  4010ee:	f805 4b01 	strb.w	r4, [r5], #1
  4010f2:	e7f7      	b.n	4010e4 <UDP_Handler+0x218>
  4010f4:	40034000 	.word	0x40034000
  4010f8:	20000154 	.word	0x20000154
  4010fc:	2000032c 	.word	0x2000032c
  401100:	20000560 	.word	0x20000560
  401104:	200002ac 	.word	0x200002ac
  401108:	2000032a 	.word	0x2000032a
  40110c:	4413      	add	r3, r2
  40110e:	b29b      	uxth	r3, r3
  401110:	2a40      	cmp	r2, #64	; 0x40
  401112:	4da1      	ldr	r5, [pc, #644]	; (401398 <UDP_Handler+0x4cc>)
  401114:	8033      	strh	r3, [r6, #0]
  401116:	d106      	bne.n	401126 <UDP_Handler+0x25a>
  401118:	4ea0      	ldr	r6, [pc, #640]	; (40139c <UDP_Handler+0x4d0>)
  40111a:	88c4      	ldrh	r4, [r0, #6]
  40111c:	8832      	ldrh	r2, [r6, #0]
  40111e:	49a0      	ldr	r1, [pc, #640]	; (4013a0 <UDP_Handler+0x4d4>)
  401120:	441a      	add	r2, r3
  401122:	4294      	cmp	r4, r2
  401124:	dc33      	bgt.n	40118e <UDP_Handler+0x2c2>
  401126:	8183      	strh	r3, [r0, #12]
  401128:	6943      	ldr	r3, [r0, #20]
  40112a:	4c9e      	ldr	r4, [pc, #632]	; (4013a4 <UDP_Handler+0x4d8>)
  40112c:	b1cb      	cbz	r3, 401162 <UDP_Handler+0x296>
  40112e:	4798      	blx	r3
  401130:	b9b8      	cbnz	r0, 401162 <UDP_Handler+0x296>
  401132:	f7ff fc25 	bl	400980 <udd_ctrl_stall_data>
  401136:	6b23      	ldr	r3, [r4, #48]	; 0x30
  401138:	9310      	str	r3, [sp, #64]	; 0x40
  40113a:	9b10      	ldr	r3, [sp, #64]	; 0x40
  40113c:	f043 034f 	orr.w	r3, r3, #79	; 0x4f
  401140:	9310      	str	r3, [sp, #64]	; 0x40
  401142:	9b10      	ldr	r3, [sp, #64]	; 0x40
  401144:	f023 0302 	bic.w	r3, r3, #2
  401148:	9310      	str	r3, [sp, #64]	; 0x40
  40114a:	9b10      	ldr	r3, [sp, #64]	; 0x40
  40114c:	6323      	str	r3, [r4, #48]	; 0x30
  40114e:	9011      	str	r0, [sp, #68]	; 0x44
  401150:	9b11      	ldr	r3, [sp, #68]	; 0x44
  401152:	2b13      	cmp	r3, #19
  401154:	f200 82f0 	bhi.w	401738 <UDP_Handler+0x86c>
  401158:	bf00      	nop
  40115a:	9b11      	ldr	r3, [sp, #68]	; 0x44
  40115c:	3301      	adds	r3, #1
  40115e:	9311      	str	r3, [sp, #68]	; 0x44
  401160:	e7f6      	b.n	401150 <UDP_Handler+0x284>
  401162:	6b23      	ldr	r3, [r4, #48]	; 0x30
  401164:	9312      	str	r3, [sp, #72]	; 0x48
  401166:	9b12      	ldr	r3, [sp, #72]	; 0x48
  401168:	f043 034f 	orr.w	r3, r3, #79	; 0x4f
  40116c:	9312      	str	r3, [sp, #72]	; 0x48
  40116e:	9b12      	ldr	r3, [sp, #72]	; 0x48
  401170:	f023 0302 	bic.w	r3, r3, #2
  401174:	9312      	str	r3, [sp, #72]	; 0x48
  401176:	9b12      	ldr	r3, [sp, #72]	; 0x48
  401178:	6323      	str	r3, [r4, #48]	; 0x30
  40117a:	2300      	movs	r3, #0
  40117c:	9313      	str	r3, [sp, #76]	; 0x4c
  40117e:	9b13      	ldr	r3, [sp, #76]	; 0x4c
  401180:	2b13      	cmp	r3, #19
  401182:	f63f af63 	bhi.w	40104c <UDP_Handler+0x180>
  401186:	bf00      	nop
  401188:	9b13      	ldr	r3, [sp, #76]	; 0x4c
  40118a:	3301      	adds	r3, #1
  40118c:	e7f6      	b.n	40117c <UDP_Handler+0x2b0>
  40118e:	898a      	ldrh	r2, [r1, #12]
  401190:	429a      	cmp	r2, r3
  401192:	d13a      	bne.n	40120a <UDP_Handler+0x33e>
  401194:	6949      	ldr	r1, [r1, #20]
  401196:	4c83      	ldr	r4, [pc, #524]	; (4013a4 <UDP_Handler+0x4d8>)
  401198:	b9b9      	cbnz	r1, 4011ca <UDP_Handler+0x2fe>
  40119a:	f7ff fbf1 	bl	400980 <udd_ctrl_stall_data>
  40119e:	6b23      	ldr	r3, [r4, #48]	; 0x30
  4011a0:	9314      	str	r3, [sp, #80]	; 0x50
  4011a2:	9b14      	ldr	r3, [sp, #80]	; 0x50
  4011a4:	f043 034f 	orr.w	r3, r3, #79	; 0x4f
  4011a8:	9314      	str	r3, [sp, #80]	; 0x50
  4011aa:	9b14      	ldr	r3, [sp, #80]	; 0x50
  4011ac:	f023 0302 	bic.w	r3, r3, #2
  4011b0:	9314      	str	r3, [sp, #80]	; 0x50
  4011b2:	9b14      	ldr	r3, [sp, #80]	; 0x50
  4011b4:	6323      	str	r3, [r4, #48]	; 0x30
  4011b6:	9115      	str	r1, [sp, #84]	; 0x54
  4011b8:	9b15      	ldr	r3, [sp, #84]	; 0x54
  4011ba:	2b13      	cmp	r3, #19
  4011bc:	f200 82bc 	bhi.w	401738 <UDP_Handler+0x86c>
  4011c0:	bf00      	nop
  4011c2:	9b15      	ldr	r3, [sp, #84]	; 0x54
  4011c4:	3301      	adds	r3, #1
  4011c6:	9315      	str	r3, [sp, #84]	; 0x54
  4011c8:	e7f6      	b.n	4011b8 <UDP_Handler+0x2ec>
  4011ca:	4788      	blx	r1
  4011cc:	b9b8      	cbnz	r0, 4011fe <UDP_Handler+0x332>
  4011ce:	f7ff fbd7 	bl	400980 <udd_ctrl_stall_data>
  4011d2:	6b23      	ldr	r3, [r4, #48]	; 0x30
  4011d4:	9316      	str	r3, [sp, #88]	; 0x58
  4011d6:	9b16      	ldr	r3, [sp, #88]	; 0x58
  4011d8:	f043 034f 	orr.w	r3, r3, #79	; 0x4f
  4011dc:	9316      	str	r3, [sp, #88]	; 0x58
  4011de:	9b16      	ldr	r3, [sp, #88]	; 0x58
  4011e0:	f023 0302 	bic.w	r3, r3, #2
  4011e4:	9316      	str	r3, [sp, #88]	; 0x58
  4011e6:	9b16      	ldr	r3, [sp, #88]	; 0x58
  4011e8:	6323      	str	r3, [r4, #48]	; 0x30
  4011ea:	9017      	str	r0, [sp, #92]	; 0x5c
  4011ec:	9b17      	ldr	r3, [sp, #92]	; 0x5c
  4011ee:	2b13      	cmp	r3, #19
  4011f0:	f200 82a2 	bhi.w	401738 <UDP_Handler+0x86c>
  4011f4:	bf00      	nop
  4011f6:	9b17      	ldr	r3, [sp, #92]	; 0x5c
  4011f8:	3301      	adds	r3, #1
  4011fa:	9317      	str	r3, [sp, #92]	; 0x5c
  4011fc:	e7f6      	b.n	4011ec <UDP_Handler+0x320>
  4011fe:	8832      	ldrh	r2, [r6, #0]
  401200:	882b      	ldrh	r3, [r5, #0]
  401202:	4413      	add	r3, r2
  401204:	8033      	strh	r3, [r6, #0]
  401206:	2300      	movs	r3, #0
  401208:	802b      	strh	r3, [r5, #0]
  40120a:	4a66      	ldr	r2, [pc, #408]	; (4013a4 <UDP_Handler+0x4d8>)
  40120c:	6b13      	ldr	r3, [r2, #48]	; 0x30
  40120e:	9318      	str	r3, [sp, #96]	; 0x60
  401210:	9b18      	ldr	r3, [sp, #96]	; 0x60
  401212:	f043 034f 	orr.w	r3, r3, #79	; 0x4f
  401216:	9318      	str	r3, [sp, #96]	; 0x60
  401218:	9b18      	ldr	r3, [sp, #96]	; 0x60
  40121a:	f023 0302 	bic.w	r3, r3, #2
  40121e:	9318      	str	r3, [sp, #96]	; 0x60
  401220:	9b18      	ldr	r3, [sp, #96]	; 0x60
  401222:	6313      	str	r3, [r2, #48]	; 0x30
  401224:	2300      	movs	r3, #0
  401226:	9319      	str	r3, [sp, #100]	; 0x64
  401228:	9b19      	ldr	r3, [sp, #100]	; 0x64
  40122a:	2b13      	cmp	r3, #19
  40122c:	f200 8284 	bhi.w	401738 <UDP_Handler+0x86c>
  401230:	bf00      	nop
  401232:	9b19      	ldr	r3, [sp, #100]	; 0x64
  401234:	3301      	adds	r3, #1
  401236:	e7f6      	b.n	401226 <UDP_Handler+0x35a>
  401238:	6b19      	ldr	r1, [r3, #48]	; 0x30
  40123a:	070c      	lsls	r4, r1, #28
  40123c:	d515      	bpl.n	40126a <UDP_Handler+0x39e>
  40123e:	6b19      	ldr	r1, [r3, #48]	; 0x30
  401240:	9102      	str	r1, [sp, #8]
  401242:	9902      	ldr	r1, [sp, #8]
  401244:	f041 014f 	orr.w	r1, r1, #79	; 0x4f
  401248:	9102      	str	r1, [sp, #8]
  40124a:	9902      	ldr	r1, [sp, #8]
  40124c:	f021 0108 	bic.w	r1, r1, #8
  401250:	9102      	str	r1, [sp, #8]
  401252:	9902      	ldr	r1, [sp, #8]
  401254:	6319      	str	r1, [r3, #48]	; 0x30
  401256:	9203      	str	r2, [sp, #12]
  401258:	9b03      	ldr	r3, [sp, #12]
  40125a:	2b13      	cmp	r3, #19
  40125c:	f200 826c 	bhi.w	401738 <UDP_Handler+0x86c>
  401260:	bf00      	nop
  401262:	9b03      	ldr	r3, [sp, #12]
  401264:	3301      	adds	r3, #1
  401266:	9303      	str	r3, [sp, #12]
  401268:	e7f6      	b.n	401258 <UDP_Handler+0x38c>
  40126a:	f8df a13c 	ldr.w	sl, [pc, #316]	; 4013a8 <UDP_Handler+0x4dc>
  40126e:	2301      	movs	r3, #1
  401270:	f04f 0c01 	mov.w	ip, #1
  401274:	f04f 0b14 	mov.w	fp, #20
  401278:	4a4a      	ldr	r2, [pc, #296]	; (4013a4 <UDP_Handler+0x4d8>)
  40127a:	6992      	ldr	r2, [r2, #24]
  40127c:	fa0c f903 	lsl.w	r9, ip, r3
  401280:	ea12 0f09 	tst.w	r2, r9
  401284:	b2de      	uxtb	r6, r3
  401286:	f000 81a8 	beq.w	4015da <UDP_Handler+0x70e>
  40128a:	009c      	lsls	r4, r3, #2
  40128c:	f104 2440 	add.w	r4, r4, #1073758208	; 0x40004000
  401290:	f504 3440 	add.w	r4, r4, #196608	; 0x30000
  401294:	4a44      	ldr	r2, [pc, #272]	; (4013a8 <UDP_Handler+0x4dc>)
  401296:	6b20      	ldr	r0, [r4, #48]	; 0x30
  401298:	fb0b a803 	mla	r8, fp, r3, sl
  40129c:	f010 0e42 	ands.w	lr, r0, #66	; 0x42
  4012a0:	f103 35ff 	add.w	r5, r3, #4294967295
  4012a4:	f04f 0114 	mov.w	r1, #20
  4012a8:	f1a8 0814 	sub.w	r8, r8, #20
  4012ac:	4617      	mov	r7, r2
  4012ae:	d041      	beq.n	401334 <UDP_Handler+0x468>
  4012b0:	fb01 2105 	mla	r1, r1, r5, r2
  4012b4:	6b23      	ldr	r3, [r4, #48]	; 0x30
  4012b6:	f8b1 b010 	ldrh.w	fp, [r1, #16]
  4012ba:	f3c3 4a0a 	ubfx	sl, r3, #16, #11
  4012be:	f3cb 0b09 	ubfx	fp, fp, #0, #10
  4012c2:	f1ba 0f00 	cmp.w	sl, #0
  4012c6:	d019      	beq.n	4012fc <UDP_Handler+0x430>
  4012c8:	68c8      	ldr	r0, [r1, #12]
  4012ca:	688b      	ldr	r3, [r1, #8]
  4012cc:	f04f 0e14 	mov.w	lr, #20
  4012d0:	fb0e 2e05 	mla	lr, lr, r5, r2
  4012d4:	1a1b      	subs	r3, r3, r0
  4012d6:	4553      	cmp	r3, sl
  4012d8:	f8de 2004 	ldr.w	r2, [lr, #4]
  4012dc:	bf88      	it	hi
  4012de:	4653      	movhi	r3, sl
  4012e0:	4402      	add	r2, r0
  4012e2:	4418      	add	r0, r3
  4012e4:	bf8c      	ite	hi
  4012e6:	2100      	movhi	r1, #0
  4012e8:	2101      	movls	r1, #1
  4012ea:	f8ce 000c 	str.w	r0, [lr, #12]
  4012ee:	4413      	add	r3, r2
  4012f0:	429a      	cmp	r2, r3
  4012f2:	d004      	beq.n	4012fe <UDP_Handler+0x432>
  4012f4:	6d20      	ldr	r0, [r4, #80]	; 0x50
  4012f6:	f802 0b01 	strb.w	r0, [r2], #1
  4012fa:	e7f9      	b.n	4012f0 <UDP_Handler+0x424>
  4012fc:	4651      	mov	r1, sl
  4012fe:	4630      	mov	r0, r6
  401300:	9101      	str	r1, [sp, #4]
  401302:	f7ff fb85 	bl	400a10 <udd_ep_ack_out_received>
  401306:	9901      	ldr	r1, [sp, #4]
  401308:	b911      	cbnz	r1, 401310 <UDP_Handler+0x444>
  40130a:	45d3      	cmp	fp, sl
  40130c:	f240 8214 	bls.w	401738 <UDP_Handler+0x86c>
  401310:	6b21      	ldr	r1, [r4, #48]	; 0x30
  401312:	f011 0120 	ands.w	r1, r1, #32
  401316:	f040 820f 	bne.w	401738 <UDP_Handler+0x86c>
  40131a:	4b22      	ldr	r3, [pc, #136]	; (4013a4 <UDP_Handler+0x4d8>)
  40131c:	f8c3 9014 	str.w	r9, [r3, #20]
  401320:	2314      	movs	r3, #20
  401322:	fb03 7505 	mla	r5, r3, r5, r7
  401326:	4632      	mov	r2, r6
  401328:	68eb      	ldr	r3, [r5, #12]
  40132a:	60ab      	str	r3, [r5, #8]
  40132c:	4640      	mov	r0, r8
  40132e:	f7ff fdad 	bl	400e8c <udd_ep_finish_job>
  401332:	e201      	b.n	401738 <UDP_Handler+0x86c>
  401334:	6b20      	ldr	r0, [r4, #48]	; 0x30
  401336:	f010 0001 	ands.w	r0, r0, #1
  40133a:	f000 812d 	beq.w	401598 <UDP_Handler+0x6cc>
  40133e:	fb01 2205 	mla	r2, r1, r5, r2
  401342:	f102 0c10 	add.w	ip, r2, #16
  401346:	f89c 3001 	ldrb.w	r3, [ip, #1]
  40134a:	f3c3 0081 	ubfx	r0, r3, #2, #2
  40134e:	3003      	adds	r0, #3
  401350:	f360 0383 	bfi	r3, r0, #2, #2
  401354:	f88c 3001 	strb.w	r3, [ip, #1]
  401358:	7c53      	ldrb	r3, [r2, #17]
  40135a:	f003 0020 	and.w	r0, r3, #32
  40135e:	f000 01ff 	and.w	r1, r0, #255	; 0xff
  401362:	2800      	cmp	r0, #0
  401364:	d069      	beq.n	40143a <UDP_Handler+0x56e>
  401366:	f013 030c 	ands.w	r3, r3, #12
  40136a:	d035      	beq.n	4013d8 <UDP_Handler+0x50c>
  40136c:	6b23      	ldr	r3, [r4, #48]	; 0x30
  40136e:	931a      	str	r3, [sp, #104]	; 0x68
  401370:	9b1a      	ldr	r3, [sp, #104]	; 0x68
  401372:	f043 034f 	orr.w	r3, r3, #79	; 0x4f
  401376:	931a      	str	r3, [sp, #104]	; 0x68
  401378:	9b1a      	ldr	r3, [sp, #104]	; 0x68
  40137a:	f043 0310 	orr.w	r3, r3, #16
  40137e:	931a      	str	r3, [sp, #104]	; 0x68
  401380:	9b1a      	ldr	r3, [sp, #104]	; 0x68
  401382:	6323      	str	r3, [r4, #48]	; 0x30
  401384:	f8cd e06c 	str.w	lr, [sp, #108]	; 0x6c
  401388:	9b1b      	ldr	r3, [sp, #108]	; 0x6c
  40138a:	2b13      	cmp	r3, #19
  40138c:	d80e      	bhi.n	4013ac <UDP_Handler+0x4e0>
  40138e:	bf00      	nop
  401390:	9b1b      	ldr	r3, [sp, #108]	; 0x6c
  401392:	3301      	adds	r3, #1
  401394:	931b      	str	r3, [sp, #108]	; 0x6c
  401396:	e7f7      	b.n	401388 <UDP_Handler+0x4bc>
  401398:	2000032a 	.word	0x2000032a
  40139c:	200002ac 	.word	0x200002ac
  4013a0:	20000560 	.word	0x20000560
  4013a4:	40034000 	.word	0x40034000
  4013a8:	200002b0 	.word	0x200002b0
  4013ac:	6b23      	ldr	r3, [r4, #48]	; 0x30
  4013ae:	931c      	str	r3, [sp, #112]	; 0x70
  4013b0:	9b1c      	ldr	r3, [sp, #112]	; 0x70
  4013b2:	f043 034f 	orr.w	r3, r3, #79	; 0x4f
  4013b6:	931c      	str	r3, [sp, #112]	; 0x70
  4013b8:	9b1c      	ldr	r3, [sp, #112]	; 0x70
  4013ba:	f023 0301 	bic.w	r3, r3, #1
  4013be:	931c      	str	r3, [sp, #112]	; 0x70
  4013c0:	9b1c      	ldr	r3, [sp, #112]	; 0x70
  4013c2:	6323      	str	r3, [r4, #48]	; 0x30
  4013c4:	2300      	movs	r3, #0
  4013c6:	931d      	str	r3, [sp, #116]	; 0x74
  4013c8:	9b1d      	ldr	r3, [sp, #116]	; 0x74
  4013ca:	2b13      	cmp	r3, #19
  4013cc:	f200 81b4 	bhi.w	401738 <UDP_Handler+0x86c>
  4013d0:	bf00      	nop
  4013d2:	9b1d      	ldr	r3, [sp, #116]	; 0x74
  4013d4:	3301      	adds	r3, #1
  4013d6:	e7f6      	b.n	4013c6 <UDP_Handler+0x4fa>
  4013d8:	6b22      	ldr	r2, [r4, #48]	; 0x30
  4013da:	921e      	str	r2, [sp, #120]	; 0x78
  4013dc:	9a1e      	ldr	r2, [sp, #120]	; 0x78
  4013de:	f042 024f 	orr.w	r2, r2, #79	; 0x4f
  4013e2:	921e      	str	r2, [sp, #120]	; 0x78
  4013e4:	9a1e      	ldr	r2, [sp, #120]	; 0x78
  4013e6:	f022 0201 	bic.w	r2, r2, #1
  4013ea:	921e      	str	r2, [sp, #120]	; 0x78
  4013ec:	9a1e      	ldr	r2, [sp, #120]	; 0x78
  4013ee:	6322      	str	r2, [r4, #48]	; 0x30
  4013f0:	931f      	str	r3, [sp, #124]	; 0x7c
  4013f2:	9b1f      	ldr	r3, [sp, #124]	; 0x7c
  4013f4:	2b13      	cmp	r3, #19
  4013f6:	d803      	bhi.n	401400 <UDP_Handler+0x534>
  4013f8:	bf00      	nop
  4013fa:	9b1f      	ldr	r3, [sp, #124]	; 0x7c
  4013fc:	3301      	adds	r3, #1
  4013fe:	e7f7      	b.n	4013f0 <UDP_Handler+0x524>
  401400:	6b23      	ldr	r3, [r4, #48]	; 0x30
  401402:	9320      	str	r3, [sp, #128]	; 0x80
  401404:	9b20      	ldr	r3, [sp, #128]	; 0x80
  401406:	f043 034f 	orr.w	r3, r3, #79	; 0x4f
  40140a:	9320      	str	r3, [sp, #128]	; 0x80
  40140c:	9b20      	ldr	r3, [sp, #128]	; 0x80
  40140e:	f043 0320 	orr.w	r3, r3, #32
  401412:	9320      	str	r3, [sp, #128]	; 0x80
  401414:	9b20      	ldr	r3, [sp, #128]	; 0x80
  401416:	6323      	str	r3, [r4, #48]	; 0x30
  401418:	2300      	movs	r3, #0
  40141a:	9321      	str	r3, [sp, #132]	; 0x84
  40141c:	9b21      	ldr	r3, [sp, #132]	; 0x84
  40141e:	2b13      	cmp	r3, #19
  401420:	d803      	bhi.n	40142a <UDP_Handler+0x55e>
  401422:	bf00      	nop
  401424:	9b21      	ldr	r3, [sp, #132]	; 0x84
  401426:	3301      	adds	r3, #1
  401428:	e7f7      	b.n	40141a <UDP_Handler+0x54e>
  40142a:	2314      	movs	r3, #20
  40142c:	fb03 7505 	mla	r5, r3, r5, r7
  401430:	7c6b      	ldrb	r3, [r5, #17]
  401432:	f36f 1345 	bfc	r3, #5, #1
  401436:	746b      	strb	r3, [r5, #17]
  401438:	e17e      	b.n	401738 <UDP_Handler+0x86c>
  40143a:	0618      	lsls	r0, r3, #24
  40143c:	d50b      	bpl.n	401456 <UDP_Handler+0x58a>
  40143e:	f89c 3001 	ldrb.w	r3, [ip, #1]
  401442:	f361 13c7 	bfi	r3, r1, #7, #1
  401446:	f88c 3001 	strb.w	r3, [ip, #1]
  40144a:	68d3      	ldr	r3, [r2, #12]
  40144c:	6093      	str	r3, [r2, #8]
  40144e:	4640      	mov	r0, r8
  401450:	4632      	mov	r2, r6
  401452:	f7ff fd1b 	bl	400e8c <udd_ep_finish_job>
  401456:	2314      	movs	r3, #20
  401458:	fb03 7305 	mla	r3, r3, r5, r7
  40145c:	68d9      	ldr	r1, [r3, #12]
  40145e:	689a      	ldr	r2, [r3, #8]
  401460:	4291      	cmp	r1, r2
  401462:	d320      	bcc.n	4014a6 <UDP_Handler+0x5da>
  401464:	7c5b      	ldrb	r3, [r3, #17]
  401466:	f013 014c 	ands.w	r1, r3, #76	; 0x4c
  40146a:	d11c      	bne.n	4014a6 <UDP_Handler+0x5da>
  40146c:	f7ff fa6e 	bl	40094c <cpu_irq_save>
  401470:	4b9d      	ldr	r3, [pc, #628]	; (4016e8 <UDP_Handler+0x81c>)
  401472:	f8c3 9014 	str.w	r9, [r3, #20]
  401476:	f7ff fbfd 	bl	400c74 <cpu_irq_restore>
  40147a:	6b23      	ldr	r3, [r4, #48]	; 0x30
  40147c:	9322      	str	r3, [sp, #136]	; 0x88
  40147e:	9b22      	ldr	r3, [sp, #136]	; 0x88
  401480:	f043 034f 	orr.w	r3, r3, #79	; 0x4f
  401484:	9322      	str	r3, [sp, #136]	; 0x88
  401486:	9b22      	ldr	r3, [sp, #136]	; 0x88
  401488:	f023 0301 	bic.w	r3, r3, #1
  40148c:	9322      	str	r3, [sp, #136]	; 0x88
  40148e:	9b22      	ldr	r3, [sp, #136]	; 0x88
  401490:	6323      	str	r3, [r4, #48]	; 0x30
  401492:	9123      	str	r1, [sp, #140]	; 0x8c
  401494:	9b23      	ldr	r3, [sp, #140]	; 0x8c
  401496:	2b13      	cmp	r3, #19
  401498:	f200 814e 	bhi.w	401738 <UDP_Handler+0x86c>
  40149c:	bf00      	nop
  40149e:	9b23      	ldr	r3, [sp, #140]	; 0x8c
  4014a0:	3301      	adds	r3, #1
  4014a2:	9323      	str	r3, [sp, #140]	; 0x8c
  4014a4:	e7f6      	b.n	401494 <UDP_Handler+0x5c8>
  4014a6:	2e03      	cmp	r6, #3
  4014a8:	d05c      	beq.n	401564 <UDP_Handler+0x698>
  4014aa:	2314      	movs	r3, #20
  4014ac:	fb03 7505 	mla	r5, r3, r5, r7
  4014b0:	f105 0710 	add.w	r7, r5, #16
  4014b4:	787b      	ldrb	r3, [r7, #1]
  4014b6:	f013 0f0c 	tst.w	r3, #12
  4014ba:	d029      	beq.n	401510 <UDP_Handler+0x644>
  4014bc:	6b23      	ldr	r3, [r4, #48]	; 0x30
  4014be:	9324      	str	r3, [sp, #144]	; 0x90
  4014c0:	9b24      	ldr	r3, [sp, #144]	; 0x90
  4014c2:	f043 034f 	orr.w	r3, r3, #79	; 0x4f
  4014c6:	9324      	str	r3, [sp, #144]	; 0x90
  4014c8:	9b24      	ldr	r3, [sp, #144]	; 0x90
  4014ca:	f043 0310 	orr.w	r3, r3, #16
  4014ce:	9324      	str	r3, [sp, #144]	; 0x90
  4014d0:	9b24      	ldr	r3, [sp, #144]	; 0x90
  4014d2:	6323      	str	r3, [r4, #48]	; 0x30
  4014d4:	2300      	movs	r3, #0
  4014d6:	9325      	str	r3, [sp, #148]	; 0x94
  4014d8:	9b25      	ldr	r3, [sp, #148]	; 0x94
  4014da:	2b13      	cmp	r3, #19
  4014dc:	d803      	bhi.n	4014e6 <UDP_Handler+0x61a>
  4014de:	bf00      	nop
  4014e0:	9b25      	ldr	r3, [sp, #148]	; 0x94
  4014e2:	3301      	adds	r3, #1
  4014e4:	e7f7      	b.n	4014d6 <UDP_Handler+0x60a>
  4014e6:	6b23      	ldr	r3, [r4, #48]	; 0x30
  4014e8:	9326      	str	r3, [sp, #152]	; 0x98
  4014ea:	9b26      	ldr	r3, [sp, #152]	; 0x98
  4014ec:	f043 034f 	orr.w	r3, r3, #79	; 0x4f
  4014f0:	9326      	str	r3, [sp, #152]	; 0x98
  4014f2:	9b26      	ldr	r3, [sp, #152]	; 0x98
  4014f4:	f023 0301 	bic.w	r3, r3, #1
  4014f8:	9326      	str	r3, [sp, #152]	; 0x98
  4014fa:	9b26      	ldr	r3, [sp, #152]	; 0x98
  4014fc:	6323      	str	r3, [r4, #48]	; 0x30
  4014fe:	2300      	movs	r3, #0
  401500:	9327      	str	r3, [sp, #156]	; 0x9c
  401502:	9b27      	ldr	r3, [sp, #156]	; 0x9c
  401504:	2b13      	cmp	r3, #19
  401506:	d828      	bhi.n	40155a <UDP_Handler+0x68e>
  401508:	bf00      	nop
  40150a:	9b27      	ldr	r3, [sp, #156]	; 0x9c
  40150c:	3301      	adds	r3, #1
  40150e:	e7f7      	b.n	401500 <UDP_Handler+0x634>
  401510:	2101      	movs	r1, #1
  401512:	4630      	mov	r0, r6
  401514:	f7ff fae4 	bl	400ae0 <udd_ep_in_sent>
  401518:	4601      	mov	r1, r0
  40151a:	b948      	cbnz	r0, 401530 <UDP_Handler+0x664>
  40151c:	787b      	ldrb	r3, [r7, #1]
  40151e:	f360 13c7 	bfi	r3, r0, #7, #1
  401522:	707b      	strb	r3, [r7, #1]
  401524:	68eb      	ldr	r3, [r5, #12]
  401526:	60ab      	str	r3, [r5, #8]
  401528:	4632      	mov	r2, r6
  40152a:	4640      	mov	r0, r8
  40152c:	f7ff fcae 	bl	400e8c <udd_ep_finish_job>
  401530:	6b23      	ldr	r3, [r4, #48]	; 0x30
  401532:	9328      	str	r3, [sp, #160]	; 0xa0
  401534:	9b28      	ldr	r3, [sp, #160]	; 0xa0
  401536:	f043 034f 	orr.w	r3, r3, #79	; 0x4f
  40153a:	9328      	str	r3, [sp, #160]	; 0xa0
  40153c:	9b28      	ldr	r3, [sp, #160]	; 0xa0
  40153e:	f023 0301 	bic.w	r3, r3, #1
  401542:	9328      	str	r3, [sp, #160]	; 0xa0
  401544:	9b28      	ldr	r3, [sp, #160]	; 0xa0
  401546:	6323      	str	r3, [r4, #48]	; 0x30
  401548:	2300      	movs	r3, #0
  40154a:	9329      	str	r3, [sp, #164]	; 0xa4
  40154c:	9b29      	ldr	r3, [sp, #164]	; 0xa4
  40154e:	2b13      	cmp	r3, #19
  401550:	d803      	bhi.n	40155a <UDP_Handler+0x68e>
  401552:	bf00      	nop
  401554:	9b29      	ldr	r3, [sp, #164]	; 0xa4
  401556:	3301      	adds	r3, #1
  401558:	e7f7      	b.n	40154a <UDP_Handler+0x67e>
  40155a:	2100      	movs	r1, #0
  40155c:	4630      	mov	r0, r6
  40155e:	f7ff fabf 	bl	400ae0 <udd_ep_in_sent>
  401562:	e0e9      	b.n	401738 <UDP_Handler+0x86c>
  401564:	2101      	movs	r1, #1
  401566:	4630      	mov	r0, r6
  401568:	f7ff faba 	bl	400ae0 <udd_ep_in_sent>
  40156c:	6b23      	ldr	r3, [r4, #48]	; 0x30
  40156e:	932a      	str	r3, [sp, #168]	; 0xa8
  401570:	9b2a      	ldr	r3, [sp, #168]	; 0xa8
  401572:	f043 034f 	orr.w	r3, r3, #79	; 0x4f
  401576:	932a      	str	r3, [sp, #168]	; 0xa8
  401578:	9b2a      	ldr	r3, [sp, #168]	; 0xa8
  40157a:	f023 0301 	bic.w	r3, r3, #1
  40157e:	932a      	str	r3, [sp, #168]	; 0xa8
  401580:	9b2a      	ldr	r3, [sp, #168]	; 0xa8
  401582:	6323      	str	r3, [r4, #48]	; 0x30
  401584:	2300      	movs	r3, #0
  401586:	932b      	str	r3, [sp, #172]	; 0xac
  401588:	9b2b      	ldr	r3, [sp, #172]	; 0xac
  40158a:	2b13      	cmp	r3, #19
  40158c:	f200 80d4 	bhi.w	401738 <UDP_Handler+0x86c>
  401590:	bf00      	nop
  401592:	9b2b      	ldr	r3, [sp, #172]	; 0xac
  401594:	3301      	adds	r3, #1
  401596:	e7f6      	b.n	401586 <UDP_Handler+0x6ba>
  401598:	6b22      	ldr	r2, [r4, #48]	; 0x30
  40159a:	0711      	lsls	r1, r2, #28
  40159c:	d51d      	bpl.n	4015da <UDP_Handler+0x70e>
  40159e:	6b23      	ldr	r3, [r4, #48]	; 0x30
  4015a0:	932c      	str	r3, [sp, #176]	; 0xb0
  4015a2:	9b2c      	ldr	r3, [sp, #176]	; 0xb0
  4015a4:	f043 034f 	orr.w	r3, r3, #79	; 0x4f
  4015a8:	932c      	str	r3, [sp, #176]	; 0xb0
  4015aa:	9b2c      	ldr	r3, [sp, #176]	; 0xb0
  4015ac:	f023 0308 	bic.w	r3, r3, #8
  4015b0:	932c      	str	r3, [sp, #176]	; 0xb0
  4015b2:	9b2c      	ldr	r3, [sp, #176]	; 0xb0
  4015b4:	6323      	str	r3, [r4, #48]	; 0x30
  4015b6:	902d      	str	r0, [sp, #180]	; 0xb4
  4015b8:	9b2d      	ldr	r3, [sp, #180]	; 0xb4
  4015ba:	2b13      	cmp	r3, #19
  4015bc:	d804      	bhi.n	4015c8 <UDP_Handler+0x6fc>
  4015be:	bf00      	nop
  4015c0:	9b2d      	ldr	r3, [sp, #180]	; 0xb4
  4015c2:	3301      	adds	r3, #1
  4015c4:	932d      	str	r3, [sp, #180]	; 0xb4
  4015c6:	e7f7      	b.n	4015b8 <UDP_Handler+0x6ec>
  4015c8:	6b23      	ldr	r3, [r4, #48]	; 0x30
  4015ca:	f403 63e0 	and.w	r3, r3, #1792	; 0x700
  4015ce:	f5b3 7f80 	cmp.w	r3, #256	; 0x100
  4015d2:	f000 80b1 	beq.w	401738 <UDP_Handler+0x86c>
  4015d6:	6b23      	ldr	r3, [r4, #48]	; 0x30
  4015d8:	e0ae      	b.n	401738 <UDP_Handler+0x86c>
  4015da:	3301      	adds	r3, #1
  4015dc:	2b07      	cmp	r3, #7
  4015de:	f47f ae4b 	bne.w	401278 <UDP_Handler+0x3ac>
  4015e2:	4b41      	ldr	r3, [pc, #260]	; (4016e8 <UDP_Handler+0x81c>)
  4015e4:	699a      	ldr	r2, [r3, #24]
  4015e6:	0492      	lsls	r2, r2, #18
  4015e8:	d502      	bpl.n	4015f0 <UDP_Handler+0x724>
  4015ea:	69da      	ldr	r2, [r3, #28]
  4015ec:	0492      	lsls	r2, r2, #18
  4015ee:	d40d      	bmi.n	40160c <UDP_Handler+0x740>
  4015f0:	699b      	ldr	r3, [r3, #24]
  4015f2:	059b      	lsls	r3, r3, #22
  4015f4:	d503      	bpl.n	4015fe <UDP_Handler+0x732>
  4015f6:	4b3c      	ldr	r3, [pc, #240]	; (4016e8 <UDP_Handler+0x81c>)
  4015f8:	69db      	ldr	r3, [r3, #28]
  4015fa:	059f      	lsls	r7, r3, #22
  4015fc:	d406      	bmi.n	40160c <UDP_Handler+0x740>
  4015fe:	4a3a      	ldr	r2, [pc, #232]	; (4016e8 <UDP_Handler+0x81c>)
  401600:	6993      	ldr	r3, [r2, #24]
  401602:	055e      	lsls	r6, r3, #21
  401604:	d512      	bpl.n	40162c <UDP_Handler+0x760>
  401606:	69d3      	ldr	r3, [r2, #28]
  401608:	055d      	lsls	r5, r3, #21
  40160a:	d50f      	bpl.n	40162c <UDP_Handler+0x760>
  40160c:	4c36      	ldr	r4, [pc, #216]	; (4016e8 <UDP_Handler+0x81c>)
  40160e:	f44f 5318 	mov.w	r3, #9728	; 0x2600
  401612:	6223      	str	r3, [r4, #32]
  401614:	2001      	movs	r0, #1
  401616:	6163      	str	r3, [r4, #20]
  401618:	f7ff fb5a 	bl	400cd0 <udd_sleep_mode>
  40161c:	f44f 7380 	mov.w	r3, #256	; 0x100
  401620:	6223      	str	r3, [r4, #32]
  401622:	6123      	str	r3, [r4, #16]
  401624:	f44f 6300 	mov.w	r3, #2048	; 0x800
  401628:	6123      	str	r3, [r4, #16]
  40162a:	e085      	b.n	401738 <UDP_Handler+0x86c>
  40162c:	6992      	ldr	r2, [r2, #24]
  40162e:	4b2e      	ldr	r3, [pc, #184]	; (4016e8 <UDP_Handler+0x81c>)
  401630:	05d4      	lsls	r4, r2, #23
  401632:	d516      	bpl.n	401662 <UDP_Handler+0x796>
  401634:	69da      	ldr	r2, [r3, #28]
  401636:	05d0      	lsls	r0, r2, #23
  401638:	d513      	bpl.n	401662 <UDP_Handler+0x796>
  40163a:	f44f 7280 	mov.w	r2, #256	; 0x100
  40163e:	621a      	str	r2, [r3, #32]
  401640:	615a      	str	r2, [r3, #20]
  401642:	f44f 5200 	mov.w	r2, #8192	; 0x2000
  401646:	611a      	str	r2, [r3, #16]
  401648:	f44f 7200 	mov.w	r2, #512	; 0x200
  40164c:	611a      	str	r2, [r3, #16]
  40164e:	f44f 6280 	mov.w	r2, #1024	; 0x400
  401652:	611a      	str	r2, [r3, #16]
  401654:	2022      	movs	r0, #34	; 0x22
  401656:	f000 fe4f 	bl	4022f8 <pmc_disable_periph_clk>
  40165a:	2000      	movs	r0, #0
  40165c:	f7ff fb38 	bl	400cd0 <udd_sleep_mode>
  401660:	e06a      	b.n	401738 <UDP_Handler+0x86c>
  401662:	4b21      	ldr	r3, [pc, #132]	; (4016e8 <UDP_Handler+0x81c>)
  401664:	69da      	ldr	r2, [r3, #28]
  401666:	04d1      	lsls	r1, r2, #19
  401668:	d566      	bpl.n	401738 <UDP_Handler+0x86c>
  40166a:	f44f 5280 	mov.w	r2, #4096	; 0x1000
  40166e:	4d1f      	ldr	r5, [pc, #124]	; (4016ec <UDP_Handler+0x820>)
  401670:	621a      	str	r2, [r3, #32]
  401672:	2000      	movs	r0, #0
  401674:	2614      	movs	r6, #20
  401676:	1c44      	adds	r4, r0, #1
  401678:	b2e2      	uxtb	r2, r4
  40167a:	fb06 5000 	mla	r0, r6, r0, r5
  40167e:	2101      	movs	r1, #1
  401680:	f7ff fc04 	bl	400e8c <udd_ep_finish_job>
  401684:	2c06      	cmp	r4, #6
  401686:	4620      	mov	r0, r4
  401688:	d1f5      	bne.n	401676 <UDP_Handler+0x7aa>
  40168a:	f7fe fe33 	bl	4002f4 <udc_reset>
  40168e:	4b16      	ldr	r3, [pc, #88]	; (4016e8 <UDP_Handler+0x81c>)
  401690:	685a      	ldr	r2, [r3, #4]
  401692:	f022 0201 	bic.w	r2, r2, #1
  401696:	605a      	str	r2, [r3, #4]
  401698:	685a      	ldr	r2, [r3, #4]
  40169a:	f022 0202 	bic.w	r2, r2, #2
  40169e:	605a      	str	r2, [r3, #4]
  4016a0:	689a      	ldr	r2, [r3, #8]
  4016a2:	f442 7280 	orr.w	r2, r2, #256	; 0x100
  4016a6:	609a      	str	r2, [r3, #8]
  4016a8:	689a      	ldr	r2, [r3, #8]
  4016aa:	f022 027f 	bic.w	r2, r2, #127	; 0x7f
  4016ae:	609a      	str	r2, [r3, #8]
  4016b0:	6b1a      	ldr	r2, [r3, #48]	; 0x30
  4016b2:	922e      	str	r2, [sp, #184]	; 0xb8
  4016b4:	9a2e      	ldr	r2, [sp, #184]	; 0xb8
  4016b6:	f042 024f 	orr.w	r2, r2, #79	; 0x4f
  4016ba:	922e      	str	r2, [sp, #184]	; 0xb8
  4016bc:	9a2e      	ldr	r2, [sp, #184]	; 0xb8
  4016be:	f422 4207 	bic.w	r2, r2, #34560	; 0x8700
  4016c2:	f022 0280 	bic.w	r2, r2, #128	; 0x80
  4016c6:	922e      	str	r2, [sp, #184]	; 0xb8
  4016c8:	9a2e      	ldr	r2, [sp, #184]	; 0xb8
  4016ca:	f442 4200 	orr.w	r2, r2, #32768	; 0x8000
  4016ce:	922e      	str	r2, [sp, #184]	; 0xb8
  4016d0:	9a2e      	ldr	r2, [sp, #184]	; 0xb8
  4016d2:	631a      	str	r2, [r3, #48]	; 0x30
  4016d4:	2200      	movs	r2, #0
  4016d6:	922f      	str	r2, [sp, #188]	; 0xbc
  4016d8:	9a2f      	ldr	r2, [sp, #188]	; 0xbc
  4016da:	2a13      	cmp	r2, #19
  4016dc:	d808      	bhi.n	4016f0 <UDP_Handler+0x824>
  4016de:	bf00      	nop
  4016e0:	9a2f      	ldr	r2, [sp, #188]	; 0xbc
  4016e2:	3201      	adds	r2, #1
  4016e4:	e7f7      	b.n	4016d6 <UDP_Handler+0x80a>
  4016e6:	bf00      	nop
  4016e8:	40034000 	.word	0x40034000
  4016ec:	200002b0 	.word	0x200002b0
  4016f0:	6b1a      	ldr	r2, [r3, #48]	; 0x30
  4016f2:	9230      	str	r2, [sp, #192]	; 0xc0
  4016f4:	9a30      	ldr	r2, [sp, #192]	; 0xc0
  4016f6:	f042 024f 	orr.w	r2, r2, #79	; 0x4f
  4016fa:	9230      	str	r2, [sp, #192]	; 0xc0
  4016fc:	9a30      	ldr	r2, [sp, #192]	; 0xc0
  4016fe:	f442 4200 	orr.w	r2, r2, #32768	; 0x8000
  401702:	9230      	str	r2, [sp, #192]	; 0xc0
  401704:	9a30      	ldr	r2, [sp, #192]	; 0xc0
  401706:	631a      	str	r2, [r3, #48]	; 0x30
  401708:	2300      	movs	r3, #0
  40170a:	9331      	str	r3, [sp, #196]	; 0xc4
  40170c:	9b31      	ldr	r3, [sp, #196]	; 0xc4
  40170e:	2b13      	cmp	r3, #19
  401710:	d803      	bhi.n	40171a <UDP_Handler+0x84e>
  401712:	bf00      	nop
  401714:	9b31      	ldr	r3, [sp, #196]	; 0xc4
  401716:	3301      	adds	r3, #1
  401718:	e7f7      	b.n	40170a <UDP_Handler+0x83e>
  40171a:	f7ff f917 	bl	40094c <cpu_irq_save>
  40171e:	4908      	ldr	r1, [pc, #32]	; (401740 <UDP_Handler+0x874>)
  401720:	2301      	movs	r3, #1
  401722:	610b      	str	r3, [r1, #16]
  401724:	f7ff faa6 	bl	400c74 <cpu_irq_restore>
  401728:	f7ff f91e 	bl	400968 <udd_ctrl_init>
  40172c:	f44f 7380 	mov.w	r3, #256	; 0x100
  401730:	610b      	str	r3, [r1, #16]
  401732:	f44f 6300 	mov.w	r3, #2048	; 0x800
  401736:	610b      	str	r3, [r1, #16]
  401738:	b033      	add	sp, #204	; 0xcc
  40173a:	e8bd 8ff0 	ldmia.w	sp!, {r4, r5, r6, r7, r8, r9, sl, fp, pc}
  40173e:	bf00      	nop
  401740:	40034000 	.word	0x40034000

00401744 <udd_attach>:
  401744:	b510      	push	{r4, lr}
  401746:	f7ff f901 	bl	40094c <cpu_irq_save>
  40174a:	4604      	mov	r4, r0
  40174c:	2001      	movs	r0, #1
  40174e:	f7ff fabf 	bl	400cd0 <udd_sleep_mode>
  401752:	2022      	movs	r0, #34	; 0x22
  401754:	f000 fdb0 	bl	4022b8 <pmc_enable_periph_clk>
  401758:	4b0e      	ldr	r3, [pc, #56]	; (401794 <udd_attach+0x50>)
  40175a:	6f5a      	ldr	r2, [r3, #116]	; 0x74
  40175c:	f422 7280 	bic.w	r2, r2, #256	; 0x100
  401760:	675a      	str	r2, [r3, #116]	; 0x74
  401762:	6f5a      	ldr	r2, [r3, #116]	; 0x74
  401764:	f442 7200 	orr.w	r2, r2, #512	; 0x200
  401768:	675a      	str	r2, [r3, #116]	; 0x74
  40176a:	f44f 7280 	mov.w	r2, #256	; 0x100
  40176e:	611a      	str	r2, [r3, #16]
  401770:	f44f 5200 	mov.w	r2, #8192	; 0x2000
  401774:	611a      	str	r2, [r3, #16]
  401776:	f44f 7200 	mov.w	r2, #512	; 0x200
  40177a:	611a      	str	r2, [r3, #16]
  40177c:	f44f 6280 	mov.w	r2, #1024	; 0x400
  401780:	611a      	str	r2, [r3, #16]
  401782:	f44f 6200 	mov.w	r2, #2048	; 0x800
  401786:	611a      	str	r2, [r3, #16]
  401788:	4620      	mov	r0, r4
  40178a:	e8bd 4010 	ldmia.w	sp!, {r4, lr}
  40178e:	f7ff ba71 	b.w	400c74 <cpu_irq_restore>
  401792:	bf00      	nop
  401794:	40034000 	.word	0x40034000

00401798 <udd_enable>:
  401798:	b538      	push	{r3, r4, r5, lr}
  40179a:	f7ff f8d7 	bl	40094c <cpu_irq_save>
  40179e:	4604      	mov	r4, r0
  4017a0:	2022      	movs	r0, #34	; 0x22
  4017a2:	f000 fd89 	bl	4022b8 <pmc_enable_periph_clk>
  4017a6:	f000 fbbd 	bl	401f24 <sysclk_enable_usb>
  4017aa:	4b12      	ldr	r3, [pc, #72]	; (4017f4 <udd_enable+0x5c>)
  4017ac:	4812      	ldr	r0, [pc, #72]	; (4017f8 <udd_enable+0x60>)
  4017ae:	2250      	movs	r2, #80	; 0x50
  4017b0:	f883 2322 	strb.w	r2, [r3, #802]	; 0x322
  4017b4:	2204      	movs	r2, #4
  4017b6:	605a      	str	r2, [r3, #4]
  4017b8:	2514      	movs	r5, #20
  4017ba:	2300      	movs	r3, #0
  4017bc:	fb05 0203 	mla	r2, r5, r3, r0
  4017c0:	3301      	adds	r3, #1
  4017c2:	7c51      	ldrb	r1, [r2, #17]
  4017c4:	f001 0183 	and.w	r1, r1, #131	; 0x83
  4017c8:	f36f 11c7 	bfc	r1, #7, #1
  4017cc:	2b06      	cmp	r3, #6
  4017ce:	7451      	strb	r1, [r2, #17]
  4017d0:	d1f4      	bne.n	4017bc <udd_enable+0x24>
  4017d2:	f44f 2080 	mov.w	r0, #262144	; 0x40000
  4017d6:	f000 fdd3 	bl	402380 <pmc_set_fast_startup_input>
  4017da:	4b08      	ldr	r3, [pc, #32]	; (4017fc <udd_enable+0x64>)
  4017dc:	2000      	movs	r0, #0
  4017de:	7018      	strb	r0, [r3, #0]
  4017e0:	f7ff fa52 	bl	400c88 <sleepmgr_lock_mode>
  4017e4:	f7ff ffae 	bl	401744 <udd_attach>
  4017e8:	4620      	mov	r0, r4
  4017ea:	e8bd 4038 	ldmia.w	sp!, {r3, r4, r5, lr}
  4017ee:	f7ff ba41 	b.w	400c74 <cpu_irq_restore>
  4017f2:	bf00      	nop
  4017f4:	e000e100 	.word	0xe000e100
  4017f8:	200002b0 	.word	0x200002b0
  4017fc:	20000328 	.word	0x20000328

00401800 <udd_set_address>:
  401800:	4b0c      	ldr	r3, [pc, #48]	; (401834 <udd_set_address+0x34>)
  401802:	685a      	ldr	r2, [r3, #4]
  401804:	f022 0201 	bic.w	r2, r2, #1
  401808:	605a      	str	r2, [r3, #4]
  40180a:	689a      	ldr	r2, [r3, #8]
  40180c:	f422 7280 	bic.w	r2, r2, #256	; 0x100
  401810:	609a      	str	r2, [r3, #8]
  401812:	b170      	cbz	r0, 401832 <udd_set_address+0x32>
  401814:	689a      	ldr	r2, [r3, #8]
  401816:	f000 007f 	and.w	r0, r0, #127	; 0x7f
  40181a:	f022 027f 	bic.w	r2, r2, #127	; 0x7f
  40181e:	4310      	orrs	r0, r2
  401820:	6098      	str	r0, [r3, #8]
  401822:	689a      	ldr	r2, [r3, #8]
  401824:	f442 7280 	orr.w	r2, r2, #256	; 0x100
  401828:	609a      	str	r2, [r3, #8]
  40182a:	685a      	ldr	r2, [r3, #4]
  40182c:	f042 0201 	orr.w	r2, r2, #1
  401830:	605a      	str	r2, [r3, #4]
  401832:	4770      	bx	lr
  401834:	40034000 	.word	0x40034000

00401838 <udd_getaddress>:
  401838:	4b04      	ldr	r3, [pc, #16]	; (40184c <udd_getaddress+0x14>)
  40183a:	6858      	ldr	r0, [r3, #4]
  40183c:	f010 0001 	ands.w	r0, r0, #1
  401840:	bf1c      	itt	ne
  401842:	6898      	ldrne	r0, [r3, #8]
  401844:	f000 007f 	andne.w	r0, r0, #127	; 0x7f
  401848:	4770      	bx	lr
  40184a:	bf00      	nop
  40184c:	40034000 	.word	0x40034000

00401850 <udd_set_setup_payload>:
  401850:	4b01      	ldr	r3, [pc, #4]	; (401858 <udd_set_setup_payload+0x8>)
  401852:	6098      	str	r0, [r3, #8]
  401854:	8199      	strh	r1, [r3, #12]
  401856:	4770      	bx	lr
  401858:	20000560 	.word	0x20000560

0040185c <udd_ep_alloc>:
  40185c:	b5f7      	push	{r0, r1, r2, r4, r5, r6, r7, lr}
  40185e:	f000 040f 	and.w	r4, r0, #15
  401862:	2c06      	cmp	r4, #6
  401864:	d866      	bhi.n	401934 <udd_ep_alloc+0xd8>
  401866:	00a5      	lsls	r5, r4, #2
  401868:	f105 2540 	add.w	r5, r5, #1073758208	; 0x40004000
  40186c:	f505 3540 	add.w	r5, r5, #196608	; 0x30000
  401870:	6b2b      	ldr	r3, [r5, #48]	; 0x30
  401872:	f413 4300 	ands.w	r3, r3, #32768	; 0x8000
  401876:	d15d      	bne.n	401934 <udd_ep_alloc+0xd8>
  401878:	f001 0603 	and.w	r6, r1, #3
  40187c:	2e01      	cmp	r6, #1
  40187e:	d103      	bne.n	401888 <udd_ep_alloc+0x2c>
  401880:	2c00      	cmp	r4, #0
  401882:	d053      	beq.n	40192c <udd_ep_alloc+0xd0>
  401884:	2c03      	cmp	r4, #3
  401886:	d053      	beq.n	401930 <udd_ep_alloc+0xd4>
  401888:	1f23      	subs	r3, r4, #4
  40188a:	2b01      	cmp	r3, #1
  40188c:	bf94      	ite	ls
  40188e:	f44f 7300 	movls.w	r3, #512	; 0x200
  401892:	2340      	movhi	r3, #64	; 0x40
  401894:	4293      	cmp	r3, r2
  401896:	db4d      	blt.n	401934 <udd_ep_alloc+0xd8>
  401898:	4f28      	ldr	r7, [pc, #160]	; (40193c <udd_ep_alloc+0xe0>)
  40189a:	1e63      	subs	r3, r4, #1
  40189c:	f04f 0e14 	mov.w	lr, #20
  4018a0:	fb0e 7303 	mla	r3, lr, r3, r7
  4018a4:	f103 0610 	add.w	r6, r3, #16
  4018a8:	8a1f      	ldrh	r7, [r3, #16]
  4018aa:	f362 0709 	bfi	r7, r2, #0, #10
  4018ae:	821f      	strh	r7, [r3, #16]
  4018b0:	7c5b      	ldrb	r3, [r3, #17]
  4018b2:	f003 037f 	and.w	r3, r3, #127	; 0x7f
  4018b6:	f020 007f 	bic.w	r0, r0, #127	; 0x7f
  4018ba:	f36f 1345 	bfc	r3, #5, #1
  4018be:	7073      	strb	r3, [r6, #1]
  4018c0:	f000 02ff 	and.w	r2, r0, #255	; 0xff
  4018c4:	b118      	cbz	r0, 4018ce <udd_ep_alloc+0x72>
  4018c6:	b2db      	uxtb	r3, r3
  4018c8:	f36f 0383 	bfc	r3, #2, #2
  4018cc:	7073      	strb	r3, [r6, #1]
  4018ce:	4b1c      	ldr	r3, [pc, #112]	; (401940 <udd_ep_alloc+0xe4>)
  4018d0:	2001      	movs	r0, #1
  4018d2:	6a9e      	ldr	r6, [r3, #40]	; 0x28
  4018d4:	40a0      	lsls	r0, r4
  4018d6:	ea46 0400 	orr.w	r4, r6, r0
  4018da:	629c      	str	r4, [r3, #40]	; 0x28
  4018dc:	6a9c      	ldr	r4, [r3, #40]	; 0x28
  4018de:	ea24 0000 	bic.w	r0, r4, r0
  4018e2:	6298      	str	r0, [r3, #40]	; 0x28
  4018e4:	6b2b      	ldr	r3, [r5, #48]	; 0x30
  4018e6:	9300      	str	r3, [sp, #0]
  4018e8:	9b00      	ldr	r3, [sp, #0]
  4018ea:	f043 034f 	orr.w	r3, r3, #79	; 0x4f
  4018ee:	9300      	str	r3, [sp, #0]
  4018f0:	9b00      	ldr	r3, [sp, #0]
  4018f2:	f423 4307 	bic.w	r3, r3, #34560	; 0x8700
  4018f6:	f023 0380 	bic.w	r3, r3, #128	; 0x80
  4018fa:	9300      	str	r3, [sp, #0]
  4018fc:	b10a      	cbz	r2, 401902 <udd_ep_alloc+0xa6>
  4018fe:	f041 0104 	orr.w	r1, r1, #4
  401902:	0209      	lsls	r1, r1, #8
  401904:	9b00      	ldr	r3, [sp, #0]
  401906:	f401 61e0 	and.w	r1, r1, #1792	; 0x700
  40190a:	f441 4100 	orr.w	r1, r1, #32768	; 0x8000
  40190e:	4319      	orrs	r1, r3
  401910:	9100      	str	r1, [sp, #0]
  401912:	9b00      	ldr	r3, [sp, #0]
  401914:	632b      	str	r3, [r5, #48]	; 0x30
  401916:	2300      	movs	r3, #0
  401918:	9301      	str	r3, [sp, #4]
  40191a:	9b01      	ldr	r3, [sp, #4]
  40191c:	2b13      	cmp	r3, #19
  40191e:	d803      	bhi.n	401928 <udd_ep_alloc+0xcc>
  401920:	bf00      	nop
  401922:	9b01      	ldr	r3, [sp, #4]
  401924:	3301      	adds	r3, #1
  401926:	e7f7      	b.n	401918 <udd_ep_alloc+0xbc>
  401928:	2001      	movs	r0, #1
  40192a:	e004      	b.n	401936 <udd_ep_alloc+0xda>
  40192c:	4620      	mov	r0, r4
  40192e:	e002      	b.n	401936 <udd_ep_alloc+0xda>
  401930:	4618      	mov	r0, r3
  401932:	e000      	b.n	401936 <udd_ep_alloc+0xda>
  401934:	2000      	movs	r0, #0
  401936:	b003      	add	sp, #12
  401938:	bdf0      	pop	{r4, r5, r6, r7, pc}
  40193a:	bf00      	nop
  40193c:	200002b0 	.word	0x200002b0
  401940:	40034000 	.word	0x40034000

00401944 <udd_ep_free>:
  401944:	f000 020f 	and.w	r2, r0, #15
  401948:	2a06      	cmp	r2, #6
  40194a:	b513      	push	{r0, r1, r4, lr}
  40194c:	d821      	bhi.n	401992 <udd_ep_free+0x4e>
  40194e:	0093      	lsls	r3, r2, #2
  401950:	f103 2340 	add.w	r3, r3, #1073758208	; 0x40004000
  401954:	f503 3340 	add.w	r3, r3, #196608	; 0x30000
  401958:	6b19      	ldr	r1, [r3, #48]	; 0x30
  40195a:	9100      	str	r1, [sp, #0]
  40195c:	9900      	ldr	r1, [sp, #0]
  40195e:	f041 014f 	orr.w	r1, r1, #79	; 0x4f
  401962:	9100      	str	r1, [sp, #0]
  401964:	9900      	ldr	r1, [sp, #0]
  401966:	f421 4100 	bic.w	r1, r1, #32768	; 0x8000
  40196a:	9100      	str	r1, [sp, #0]
  40196c:	9900      	ldr	r1, [sp, #0]
  40196e:	6319      	str	r1, [r3, #48]	; 0x30
  401970:	2300      	movs	r3, #0
  401972:	9301      	str	r3, [sp, #4]
  401974:	9b01      	ldr	r3, [sp, #4]
  401976:	2b13      	cmp	r3, #19
  401978:	d803      	bhi.n	401982 <udd_ep_free+0x3e>
  40197a:	bf00      	nop
  40197c:	9b01      	ldr	r3, [sp, #4]
  40197e:	3301      	adds	r3, #1
  401980:	e7f7      	b.n	401972 <udd_ep_free+0x2e>
  401982:	4b05      	ldr	r3, [pc, #20]	; (401998 <udd_ep_free+0x54>)
  401984:	1e50      	subs	r0, r2, #1
  401986:	2414      	movs	r4, #20
  401988:	2101      	movs	r1, #1
  40198a:	fb04 3000 	mla	r0, r4, r0, r3
  40198e:	f7ff fa7d 	bl	400e8c <udd_ep_finish_job>
  401992:	b002      	add	sp, #8
  401994:	bd10      	pop	{r4, pc}
  401996:	bf00      	nop
  401998:	200002b0 	.word	0x200002b0

0040199c <udd_ep_is_halted>:
  40199c:	f000 000f 	and.w	r0, r0, #15
  4019a0:	2806      	cmp	r0, #6
  4019a2:	b510      	push	{r4, lr}
  4019a4:	d813      	bhi.n	4019ce <udd_ep_is_halted+0x32>
  4019a6:	490b      	ldr	r1, [pc, #44]	; (4019d4 <udd_ep_is_halted+0x38>)
  4019a8:	1e43      	subs	r3, r0, #1
  4019aa:	2414      	movs	r4, #20
  4019ac:	fb04 1303 	mla	r3, r4, r3, r1
  4019b0:	7c5b      	ldrb	r3, [r3, #17]
  4019b2:	069b      	lsls	r3, r3, #26
  4019b4:	d409      	bmi.n	4019ca <udd_ep_is_halted+0x2e>
  4019b6:	300c      	adds	r0, #12
  4019b8:	4b07      	ldr	r3, [pc, #28]	; (4019d8 <udd_ep_is_halted+0x3c>)
  4019ba:	f853 3020 	ldr.w	r3, [r3, r0, lsl #2]
  4019be:	f013 0f28 	tst.w	r3, #40	; 0x28
  4019c2:	bf14      	ite	ne
  4019c4:	2001      	movne	r0, #1
  4019c6:	2000      	moveq	r0, #0
  4019c8:	bd10      	pop	{r4, pc}
  4019ca:	2001      	movs	r0, #1
  4019cc:	bd10      	pop	{r4, pc}
  4019ce:	2000      	movs	r0, #0
  4019d0:	bd10      	pop	{r4, pc}
  4019d2:	bf00      	nop
  4019d4:	200002b0 	.word	0x200002b0
  4019d8:	40034000 	.word	0x40034000

004019dc <udd_ep_set_halt>:
  4019dc:	b513      	push	{r0, r1, r4, lr}
  4019de:	f000 010f 	and.w	r1, r0, #15
  4019e2:	2906      	cmp	r1, #6
  4019e4:	4604      	mov	r4, r0
  4019e6:	d841      	bhi.n	401a6c <udd_ep_set_halt+0x90>
  4019e8:	f7fe ffb0 	bl	40094c <cpu_irq_save>
  4019ec:	0623      	lsls	r3, r4, #24
  4019ee:	d51a      	bpl.n	401a26 <udd_ep_set_halt+0x4a>
  4019f0:	f101 030c 	add.w	r3, r1, #12
  4019f4:	4c1f      	ldr	r4, [pc, #124]	; (401a74 <udd_ep_set_halt+0x98>)
  4019f6:	f854 3023 	ldr.w	r3, [r4, r3, lsl #2]
  4019fa:	f013 0f10 	tst.w	r3, #16
  4019fe:	f101 32ff 	add.w	r2, r1, #4294967295
  401a02:	4b1d      	ldr	r3, [pc, #116]	; (401a78 <udd_ep_set_halt+0x9c>)
  401a04:	d107      	bne.n	401a16 <udd_ep_set_halt+0x3a>
  401a06:	2414      	movs	r4, #20
  401a08:	fb04 3402 	mla	r4, r4, r2, r3
  401a0c:	7c64      	ldrb	r4, [r4, #17]
  401a0e:	f3c4 0481 	ubfx	r4, r4, #2, #2
  401a12:	2c01      	cmp	r4, #1
  401a14:	dd07      	ble.n	401a26 <udd_ep_set_halt+0x4a>
  401a16:	2414      	movs	r4, #20
  401a18:	fb04 3302 	mla	r3, r4, r2, r3
  401a1c:	7c5a      	ldrb	r2, [r3, #17]
  401a1e:	f042 0220 	orr.w	r2, r2, #32
  401a22:	745a      	strb	r2, [r3, #17]
  401a24:	e019      	b.n	401a5a <udd_ep_set_halt+0x7e>
  401a26:	008b      	lsls	r3, r1, #2
  401a28:	f103 2340 	add.w	r3, r3, #1073758208	; 0x40004000
  401a2c:	f503 3340 	add.w	r3, r3, #196608	; 0x30000
  401a30:	6b1a      	ldr	r2, [r3, #48]	; 0x30
  401a32:	9200      	str	r2, [sp, #0]
  401a34:	9a00      	ldr	r2, [sp, #0]
  401a36:	f042 024f 	orr.w	r2, r2, #79	; 0x4f
  401a3a:	9200      	str	r2, [sp, #0]
  401a3c:	9a00      	ldr	r2, [sp, #0]
  401a3e:	f042 0220 	orr.w	r2, r2, #32
  401a42:	9200      	str	r2, [sp, #0]
  401a44:	9a00      	ldr	r2, [sp, #0]
  401a46:	631a      	str	r2, [r3, #48]	; 0x30
  401a48:	2300      	movs	r3, #0
  401a4a:	9301      	str	r3, [sp, #4]
  401a4c:	9b01      	ldr	r3, [sp, #4]
  401a4e:	2b13      	cmp	r3, #19
  401a50:	d803      	bhi.n	401a5a <udd_ep_set_halt+0x7e>
  401a52:	bf00      	nop
  401a54:	9b01      	ldr	r3, [sp, #4]
  401a56:	3301      	adds	r3, #1
  401a58:	e7f7      	b.n	401a4a <udd_ep_set_halt+0x6e>
  401a5a:	2401      	movs	r4, #1
  401a5c:	4b05      	ldr	r3, [pc, #20]	; (401a74 <udd_ep_set_halt+0x98>)
  401a5e:	fa04 f101 	lsl.w	r1, r4, r1
  401a62:	6119      	str	r1, [r3, #16]
  401a64:	f7ff f906 	bl	400c74 <cpu_irq_restore>
  401a68:	4620      	mov	r0, r4
  401a6a:	e000      	b.n	401a6e <udd_ep_set_halt+0x92>
  401a6c:	2000      	movs	r0, #0
  401a6e:	b002      	add	sp, #8
  401a70:	bd10      	pop	{r4, pc}
  401a72:	bf00      	nop
  401a74:	40034000 	.word	0x40034000
  401a78:	200002b0 	.word	0x200002b0

00401a7c <udd_ep_clear_halt>:
  401a7c:	b57f      	push	{r0, r1, r2, r3, r4, r5, r6, lr}
  401a7e:	f000 000f 	and.w	r0, r0, #15
  401a82:	2806      	cmp	r0, #6
  401a84:	d854      	bhi.n	401b30 <udd_ep_clear_halt+0xb4>
  401a86:	4a2c      	ldr	r2, [pc, #176]	; (401b38 <udd_ep_clear_halt+0xbc>)
  401a88:	1e46      	subs	r6, r0, #1
  401a8a:	2114      	movs	r1, #20
  401a8c:	fb01 2106 	mla	r1, r1, r6, r2
  401a90:	7c4b      	ldrb	r3, [r1, #17]
  401a92:	f36f 1345 	bfc	r3, #5, #1
  401a96:	744b      	strb	r3, [r1, #17]
  401a98:	0083      	lsls	r3, r0, #2
  401a9a:	f103 2340 	add.w	r3, r3, #1073758208	; 0x40004000
  401a9e:	f503 3340 	add.w	r3, r3, #196608	; 0x30000
  401aa2:	6b19      	ldr	r1, [r3, #48]	; 0x30
  401aa4:	068c      	lsls	r4, r1, #26
  401aa6:	d541      	bpl.n	401b2c <udd_ep_clear_halt+0xb0>
  401aa8:	6b19      	ldr	r1, [r3, #48]	; 0x30
  401aaa:	9100      	str	r1, [sp, #0]
  401aac:	9900      	ldr	r1, [sp, #0]
  401aae:	f041 014f 	orr.w	r1, r1, #79	; 0x4f
  401ab2:	9100      	str	r1, [sp, #0]
  401ab4:	9900      	ldr	r1, [sp, #0]
  401ab6:	f021 0120 	bic.w	r1, r1, #32
  401aba:	9100      	str	r1, [sp, #0]
  401abc:	9900      	ldr	r1, [sp, #0]
  401abe:	6319      	str	r1, [r3, #48]	; 0x30
  401ac0:	2100      	movs	r1, #0
  401ac2:	9101      	str	r1, [sp, #4]
  401ac4:	9901      	ldr	r1, [sp, #4]
  401ac6:	2913      	cmp	r1, #19
  401ac8:	d803      	bhi.n	401ad2 <udd_ep_clear_halt+0x56>
  401aca:	bf00      	nop
  401acc:	9901      	ldr	r1, [sp, #4]
  401ace:	3101      	adds	r1, #1
  401ad0:	e7f7      	b.n	401ac2 <udd_ep_clear_halt+0x46>
  401ad2:	4c1a      	ldr	r4, [pc, #104]	; (401b3c <udd_ep_clear_halt+0xc0>)
  401ad4:	2501      	movs	r5, #1
  401ad6:	6aa1      	ldr	r1, [r4, #40]	; 0x28
  401ad8:	fa05 f000 	lsl.w	r0, r5, r0
  401adc:	4301      	orrs	r1, r0
  401ade:	62a1      	str	r1, [r4, #40]	; 0x28
  401ae0:	6aa1      	ldr	r1, [r4, #40]	; 0x28
  401ae2:	ea21 0000 	bic.w	r0, r1, r0
  401ae6:	62a0      	str	r0, [r4, #40]	; 0x28
  401ae8:	6b19      	ldr	r1, [r3, #48]	; 0x30
  401aea:	9102      	str	r1, [sp, #8]
  401aec:	9902      	ldr	r1, [sp, #8]
  401aee:	f041 014f 	orr.w	r1, r1, #79	; 0x4f
  401af2:	9102      	str	r1, [sp, #8]
  401af4:	9802      	ldr	r0, [sp, #8]
  401af6:	f020 0008 	bic.w	r0, r0, #8
  401afa:	9002      	str	r0, [sp, #8]
  401afc:	9902      	ldr	r1, [sp, #8]
  401afe:	6319      	str	r1, [r3, #48]	; 0x30
  401b00:	2300      	movs	r3, #0
  401b02:	9303      	str	r3, [sp, #12]
  401b04:	9b03      	ldr	r3, [sp, #12]
  401b06:	2b13      	cmp	r3, #19
  401b08:	d803      	bhi.n	401b12 <udd_ep_clear_halt+0x96>
  401b0a:	bf00      	nop
  401b0c:	9b03      	ldr	r3, [sp, #12]
  401b0e:	3301      	adds	r3, #1
  401b10:	e7f7      	b.n	401b02 <udd_ep_clear_halt+0x86>
  401b12:	2314      	movs	r3, #20
  401b14:	fb03 f106 	mul.w	r1, r3, r6
  401b18:	1853      	adds	r3, r2, r1
  401b1a:	7c5a      	ldrb	r2, [r3, #17]
  401b1c:	06d0      	lsls	r0, r2, #27
  401b1e:	d505      	bpl.n	401b2c <udd_ep_clear_halt+0xb0>
  401b20:	f36f 1204 	bfc	r2, #4, #1
  401b24:	745a      	strb	r2, [r3, #17]
  401b26:	4b04      	ldr	r3, [pc, #16]	; (401b38 <udd_ep_clear_halt+0xbc>)
  401b28:	585b      	ldr	r3, [r3, r1]
  401b2a:	4798      	blx	r3
  401b2c:	2001      	movs	r0, #1
  401b2e:	e000      	b.n	401b32 <udd_ep_clear_halt+0xb6>
  401b30:	2000      	movs	r0, #0
  401b32:	b004      	add	sp, #16
  401b34:	bd70      	pop	{r4, r5, r6, pc}
  401b36:	bf00      	nop
  401b38:	200002b0 	.word	0x200002b0
  401b3c:	40034000 	.word	0x40034000

00401b40 <udd_ep_run>:
  401b40:	e92d 4ff0 	stmdb	sp!, {r4, r5, r6, r7, r8, r9, sl, fp, lr}
  401b44:	f000 060f 	and.w	r6, r0, #15
  401b48:	b085      	sub	sp, #20
  401b4a:	2e06      	cmp	r6, #6
  401b4c:	4682      	mov	sl, r0
  401b4e:	9101      	str	r1, [sp, #4]
  401b50:	9202      	str	r2, [sp, #8]
  401b52:	461d      	mov	r5, r3
  401b54:	d869      	bhi.n	401c2a <udd_ep_run+0xea>
  401b56:	00b3      	lsls	r3, r6, #2
  401b58:	f103 2b40 	add.w	fp, r3, #1073758208	; 0x40004000
  401b5c:	f50b 3b40 	add.w	fp, fp, #196608	; 0x30000
  401b60:	f8db 0030 	ldr.w	r0, [fp, #48]	; 0x30
  401b64:	f410 4000 	ands.w	r0, r0, #32768	; 0x8000
  401b68:	d060      	beq.n	401c2c <udd_ep_run+0xec>
  401b6a:	1e74      	subs	r4, r6, #1
  401b6c:	4f31      	ldr	r7, [pc, #196]	; (401c34 <udd_ep_run+0xf4>)
  401b6e:	f04f 0814 	mov.w	r8, #20
  401b72:	fb08 f804 	mul.w	r8, r8, r4
  401b76:	eb07 0108 	add.w	r1, r7, r8
  401b7a:	f891 e011 	ldrb.w	lr, [r1, #17]
  401b7e:	f00e 0320 	and.w	r3, lr, #32
  401b82:	f003 00ff 	and.w	r0, r3, #255	; 0xff
  401b86:	2b00      	cmp	r3, #0
  401b88:	d14f      	bne.n	401c2a <udd_ep_run+0xea>
  401b8a:	f8db 3030 	ldr.w	r3, [fp, #48]	; 0x30
  401b8e:	f013 0920 	ands.w	r9, r3, #32
  401b92:	d14b      	bne.n	401c2c <udd_ep_run+0xec>
  401b94:	f7fe feda 	bl	40094c <cpu_irq_save>
  401b98:	f891 e011 	ldrb.w	lr, [r1, #17]
  401b9c:	f00e 0310 	and.w	r3, lr, #16
  401ba0:	f003 02ff 	and.w	r2, r3, #255	; 0xff
  401ba4:	9203      	str	r2, [sp, #12]
  401ba6:	b11b      	cbz	r3, 401bb0 <udd_ep_run+0x70>
  401ba8:	f7ff f864 	bl	400c74 <cpu_irq_restore>
  401bac:	4648      	mov	r0, r9
  401bae:	e03d      	b.n	401c2c <udd_ep_run+0xec>
  401bb0:	f891 e011 	ldrb.w	lr, [r1, #17]
  401bb4:	f04e 0e10 	orr.w	lr, lr, #16
  401bb8:	f881 e011 	strb.w	lr, [r1, #17]
  401bbc:	f7ff f85a 	bl	400c74 <cpu_irq_restore>
  401bc0:	9b02      	ldr	r3, [sp, #8]
  401bc2:	604b      	str	r3, [r1, #4]
  401bc4:	9b03      	ldr	r3, [sp, #12]
  401bc6:	60cb      	str	r3, [r1, #12]
  401bc8:	9b01      	ldr	r3, [sp, #4]
  401bca:	9a0e      	ldr	r2, [sp, #56]	; 0x38
  401bcc:	608d      	str	r5, [r1, #8]
  401bce:	f847 2008 	str.w	r2, [r7, r8]
  401bd2:	b91b      	cbnz	r3, 401bdc <udd_ep_run+0x9c>
  401bd4:	fab5 f585 	clz	r5, r5
  401bd8:	096d      	lsrs	r5, r5, #5
  401bda:	e000      	b.n	401bde <udd_ep_run+0x9e>
  401bdc:	2501      	movs	r5, #1
  401bde:	2214      	movs	r2, #20
  401be0:	fb02 7404 	mla	r4, r2, r4, r7
  401be4:	7c62      	ldrb	r2, [r4, #17]
  401be6:	f365 1286 	bfi	r2, r5, #6, #1
  401bea:	f36f 12c7 	bfc	r2, #7, #1
  401bee:	7462      	strb	r2, [r4, #17]
  401bf0:	f7fe feac 	bl	40094c <cpu_irq_save>
  401bf4:	2101      	movs	r1, #1
  401bf6:	4a10      	ldr	r2, [pc, #64]	; (401c38 <udd_ep_run+0xf8>)
  401bf8:	4605      	mov	r5, r0
  401bfa:	f01a 0f80 	tst.w	sl, #128	; 0x80
  401bfe:	fa01 f006 	lsl.w	r0, r1, r6
  401c02:	6110      	str	r0, [r2, #16]
  401c04:	d00c      	beq.n	401c20 <udd_ep_run+0xe0>
  401c06:	f8db 3030 	ldr.w	r3, [fp, #48]	; 0x30
  401c0a:	f013 0411 	ands.w	r4, r3, #17
  401c0e:	d107      	bne.n	401c20 <udd_ep_run+0xe0>
  401c10:	4630      	mov	r0, r6
  401c12:	f7fe ff65 	bl	400ae0 <udd_ep_in_sent>
  401c16:	b118      	cbz	r0, 401c20 <udd_ep_run+0xe0>
  401c18:	4621      	mov	r1, r4
  401c1a:	4630      	mov	r0, r6
  401c1c:	f7fe ff60 	bl	400ae0 <udd_ep_in_sent>
  401c20:	4628      	mov	r0, r5
  401c22:	f7ff f827 	bl	400c74 <cpu_irq_restore>
  401c26:	2001      	movs	r0, #1
  401c28:	e000      	b.n	401c2c <udd_ep_run+0xec>
  401c2a:	2000      	movs	r0, #0
  401c2c:	b005      	add	sp, #20
  401c2e:	e8bd 8ff0 	ldmia.w	sp!, {r4, r5, r6, r7, r8, r9, sl, fp, pc}
  401c32:	bf00      	nop
  401c34:	200002b0 	.word	0x200002b0
  401c38:	40034000 	.word	0x40034000

00401c3c <udd_ep_abort>:
  401c3c:	b570      	push	{r4, r5, r6, lr}
  401c3e:	f000 040f 	and.w	r4, r0, #15
  401c42:	2c06      	cmp	r4, #6
  401c44:	b088      	sub	sp, #32
  401c46:	4606      	mov	r6, r0
  401c48:	f200 809a 	bhi.w	401d80 <udd_ep_abort+0x144>
  401c4c:	f7fe fe7e 	bl	40094c <cpu_irq_save>
  401c50:	2501      	movs	r5, #1
  401c52:	494c      	ldr	r1, [pc, #304]	; (401d84 <udd_ep_abort+0x148>)
  401c54:	40a5      	lsls	r5, r4
  401c56:	614d      	str	r5, [r1, #20]
  401c58:	f7ff f80c 	bl	400c74 <cpu_irq_restore>
  401c5c:	0630      	lsls	r0, r6, #24
  401c5e:	d401      	bmi.n	401c64 <udd_ep_abort+0x28>
  401c60:	460e      	mov	r6, r1
  401c62:	e071      	b.n	401d48 <udd_ep_abort+0x10c>
  401c64:	00a3      	lsls	r3, r4, #2
  401c66:	f103 2340 	add.w	r3, r3, #1073758208	; 0x40004000
  401c6a:	f503 3340 	add.w	r3, r3, #196608	; 0x30000
  401c6e:	6b1a      	ldr	r2, [r3, #48]	; 0x30
  401c70:	06d1      	lsls	r1, r2, #27
  401c72:	d40d      	bmi.n	401c90 <udd_ep_abort+0x54>
  401c74:	6b1a      	ldr	r2, [r3, #48]	; 0x30
  401c76:	9206      	str	r2, [sp, #24]
  401c78:	9a06      	ldr	r2, [sp, #24]
  401c7a:	f042 024f 	orr.w	r2, r2, #79	; 0x4f
  401c7e:	9206      	str	r2, [sp, #24]
  401c80:	9a06      	ldr	r2, [sp, #24]
  401c82:	f022 0201 	bic.w	r2, r2, #1
  401c86:	9206      	str	r2, [sp, #24]
  401c88:	9a06      	ldr	r2, [sp, #24]
  401c8a:	631a      	str	r2, [r3, #48]	; 0x30
  401c8c:	2300      	movs	r3, #0
  401c8e:	e049      	b.n	401d24 <udd_ep_abort+0xe8>
  401c90:	b96c      	cbnz	r4, 401cae <udd_ep_abort+0x72>
  401c92:	6b1a      	ldr	r2, [r3, #48]	; 0x30
  401c94:	9204      	str	r2, [sp, #16]
  401c96:	9a04      	ldr	r2, [sp, #16]
  401c98:	f042 024f 	orr.w	r2, r2, #79	; 0x4f
  401c9c:	9204      	str	r2, [sp, #16]
  401c9e:	9a04      	ldr	r2, [sp, #16]
  401ca0:	f022 0210 	bic.w	r2, r2, #16
  401ca4:	9204      	str	r2, [sp, #16]
  401ca6:	9a04      	ldr	r2, [sp, #16]
  401ca8:	631a      	str	r2, [r3, #48]	; 0x30
  401caa:	2200      	movs	r2, #0
  401cac:	e032      	b.n	401d14 <udd_ep_abort+0xd8>
  401cae:	2c03      	cmp	r4, #3
  401cb0:	d0ef      	beq.n	401c92 <udd_ep_abort+0x56>
  401cb2:	6b1a      	ldr	r2, [r3, #48]	; 0x30
  401cb4:	9200      	str	r2, [sp, #0]
  401cb6:	9a00      	ldr	r2, [sp, #0]
  401cb8:	f042 024f 	orr.w	r2, r2, #79	; 0x4f
  401cbc:	9200      	str	r2, [sp, #0]
  401cbe:	9a00      	ldr	r2, [sp, #0]
  401cc0:	f022 0210 	bic.w	r2, r2, #16
  401cc4:	9200      	str	r2, [sp, #0]
  401cc6:	9a00      	ldr	r2, [sp, #0]
  401cc8:	631a      	str	r2, [r3, #48]	; 0x30
  401cca:	2200      	movs	r2, #0
  401ccc:	9201      	str	r2, [sp, #4]
  401cce:	9a01      	ldr	r2, [sp, #4]
  401cd0:	2a13      	cmp	r2, #19
  401cd2:	d803      	bhi.n	401cdc <udd_ep_abort+0xa0>
  401cd4:	bf00      	nop
  401cd6:	9a01      	ldr	r2, [sp, #4]
  401cd8:	3201      	adds	r2, #1
  401cda:	e7f7      	b.n	401ccc <udd_ep_abort+0x90>
  401cdc:	6b1a      	ldr	r2, [r3, #48]	; 0x30
  401cde:	f012 0210 	ands.w	r2, r2, #16
  401ce2:	d1fb      	bne.n	401cdc <udd_ep_abort+0xa0>
  401ce4:	6b19      	ldr	r1, [r3, #48]	; 0x30
  401ce6:	9102      	str	r1, [sp, #8]
  401ce8:	9902      	ldr	r1, [sp, #8]
  401cea:	f041 014f 	orr.w	r1, r1, #79	; 0x4f
  401cee:	9102      	str	r1, [sp, #8]
  401cf0:	9902      	ldr	r1, [sp, #8]
  401cf2:	f041 0110 	orr.w	r1, r1, #16
  401cf6:	9102      	str	r1, [sp, #8]
  401cf8:	9902      	ldr	r1, [sp, #8]
  401cfa:	6319      	str	r1, [r3, #48]	; 0x30
  401cfc:	9203      	str	r2, [sp, #12]
  401cfe:	9a03      	ldr	r2, [sp, #12]
  401d00:	2a13      	cmp	r2, #19
  401d02:	d803      	bhi.n	401d0c <udd_ep_abort+0xd0>
  401d04:	bf00      	nop
  401d06:	9a03      	ldr	r2, [sp, #12]
  401d08:	3201      	adds	r2, #1
  401d0a:	e7f7      	b.n	401cfc <udd_ep_abort+0xc0>
  401d0c:	6b1a      	ldr	r2, [r3, #48]	; 0x30
  401d0e:	06d2      	lsls	r2, r2, #27
  401d10:	d5fc      	bpl.n	401d0c <udd_ep_abort+0xd0>
  401d12:	e7be      	b.n	401c92 <udd_ep_abort+0x56>
  401d14:	9205      	str	r2, [sp, #20]
  401d16:	9a05      	ldr	r2, [sp, #20]
  401d18:	2a13      	cmp	r2, #19
  401d1a:	d8ab      	bhi.n	401c74 <udd_ep_abort+0x38>
  401d1c:	bf00      	nop
  401d1e:	9a05      	ldr	r2, [sp, #20]
  401d20:	3201      	adds	r2, #1
  401d22:	e7f7      	b.n	401d14 <udd_ep_abort+0xd8>
  401d24:	9307      	str	r3, [sp, #28]
  401d26:	9b07      	ldr	r3, [sp, #28]
  401d28:	2b13      	cmp	r3, #19
  401d2a:	d803      	bhi.n	401d34 <udd_ep_abort+0xf8>
  401d2c:	bf00      	nop
  401d2e:	9b07      	ldr	r3, [sp, #28]
  401d30:	3301      	adds	r3, #1
  401d32:	e7f7      	b.n	401d24 <udd_ep_abort+0xe8>
  401d34:	4914      	ldr	r1, [pc, #80]	; (401d88 <udd_ep_abort+0x14c>)
  401d36:	1e63      	subs	r3, r4, #1
  401d38:	2014      	movs	r0, #20
  401d3a:	fb00 1303 	mla	r3, r0, r3, r1
  401d3e:	7c5a      	ldrb	r2, [r3, #17]
  401d40:	f36f 0283 	bfc	r2, #2, #2
  401d44:	745a      	strb	r2, [r3, #17]
  401d46:	e00a      	b.n	401d5e <udd_ep_abort+0x122>
  401d48:	f104 030c 	add.w	r3, r4, #12
  401d4c:	f856 3023 	ldr.w	r3, [r6, r3, lsl #2]
  401d50:	f013 0f42 	tst.w	r3, #66	; 0x42
  401d54:	d003      	beq.n	401d5e <udd_ep_abort+0x122>
  401d56:	4620      	mov	r0, r4
  401d58:	f7fe fe5a 	bl	400a10 <udd_ep_ack_out_received>
  401d5c:	e7f4      	b.n	401d48 <udd_ep_abort+0x10c>
  401d5e:	4b09      	ldr	r3, [pc, #36]	; (401d84 <udd_ep_abort+0x148>)
  401d60:	6a9a      	ldr	r2, [r3, #40]	; 0x28
  401d62:	432a      	orrs	r2, r5
  401d64:	629a      	str	r2, [r3, #40]	; 0x28
  401d66:	6a9a      	ldr	r2, [r3, #40]	; 0x28
  401d68:	ea22 0505 	bic.w	r5, r2, r5
  401d6c:	629d      	str	r5, [r3, #40]	; 0x28
  401d6e:	4b06      	ldr	r3, [pc, #24]	; (401d88 <udd_ep_abort+0x14c>)
  401d70:	1e60      	subs	r0, r4, #1
  401d72:	4622      	mov	r2, r4
  401d74:	2414      	movs	r4, #20
  401d76:	2101      	movs	r1, #1
  401d78:	fb04 3000 	mla	r0, r4, r0, r3
  401d7c:	f7ff f886 	bl	400e8c <udd_ep_finish_job>
  401d80:	b008      	add	sp, #32
  401d82:	bd70      	pop	{r4, r5, r6, pc}
  401d84:	40034000 	.word	0x40034000
  401d88:	200002b0 	.word	0x200002b0

00401d8c <wdt_restart>:
  401d8c:	4b02      	ldr	r3, [pc, #8]	; (401d98 <wdt_restart+0xc>)
  401d8e:	4298      	cmp	r0, r3
  401d90:	bf04      	itt	eq
  401d92:	4b02      	ldreq	r3, [pc, #8]	; (401d9c <wdt_restart+0x10>)
  401d94:	6003      	streq	r3, [r0, #0]
  401d96:	4770      	bx	lr
  401d98:	400e1450 	.word	0x400e1450
  401d9c:	a5000001 	.word	0xa5000001

00401da0 <flash_init>:
  401da0:	b508      	push	{r3, lr}
  401da2:	460a      	mov	r2, r1
  401da4:	4601      	mov	r1, r0
  401da6:	4802      	ldr	r0, [pc, #8]	; (401db0 <flash_init+0x10>)
  401da8:	f7fe fc8e 	bl	4006c8 <efc_init>
  401dac:	2000      	movs	r0, #0
  401dae:	bd08      	pop	{r3, pc}
  401db0:	400e0a00 	.word	0x400e0a00

00401db4 <flash_is_gpnvm_set>:
  401db4:	2801      	cmp	r0, #1
  401db6:	b510      	push	{r4, lr}
  401db8:	4604      	mov	r4, r0
  401dba:	d80f      	bhi.n	401ddc <flash_is_gpnvm_set+0x28>
  401dbc:	2200      	movs	r2, #0
  401dbe:	210d      	movs	r1, #13
  401dc0:	4808      	ldr	r0, [pc, #32]	; (401de4 <flash_is_gpnvm_set+0x30>)
  401dc2:	f7fe fc8d 	bl	4006e0 <efc_perform_command>
  401dc6:	b958      	cbnz	r0, 401de0 <flash_is_gpnvm_set+0x2c>
  401dc8:	4806      	ldr	r0, [pc, #24]	; (401de4 <flash_is_gpnvm_set+0x30>)
  401dca:	f7fe fc7b 	bl	4006c4 <efc_get_result>
  401dce:	2301      	movs	r3, #1
  401dd0:	40a3      	lsls	r3, r4
  401dd2:	4203      	tst	r3, r0
  401dd4:	bf14      	ite	ne
  401dd6:	2001      	movne	r0, #1
  401dd8:	2000      	moveq	r0, #0
  401dda:	bd10      	pop	{r4, pc}
  401ddc:	2011      	movs	r0, #17
  401dde:	bd10      	pop	{r4, pc}
  401de0:	2010      	movs	r0, #16
  401de2:	bd10      	pop	{r4, pc}
  401de4:	400e0a00 	.word	0x400e0a00

00401de8 <flash_clear_gpnvm>:
  401de8:	2801      	cmp	r0, #1
  401dea:	b510      	push	{r4, lr}
  401dec:	4604      	mov	r4, r0
  401dee:	d80d      	bhi.n	401e0c <flash_clear_gpnvm+0x24>
  401df0:	f7ff ffe0 	bl	401db4 <flash_is_gpnvm_set>
  401df4:	b908      	cbnz	r0, 401dfa <flash_clear_gpnvm+0x12>
  401df6:	2000      	movs	r0, #0
  401df8:	bd10      	pop	{r4, pc}
  401dfa:	4622      	mov	r2, r4
  401dfc:	210c      	movs	r1, #12
  401dfe:	4804      	ldr	r0, [pc, #16]	; (401e10 <flash_clear_gpnvm+0x28>)
  401e00:	f7fe fc6e 	bl	4006e0 <efc_perform_command>
  401e04:	2800      	cmp	r0, #0
  401e06:	d0f6      	beq.n	401df6 <flash_clear_gpnvm+0xe>
  401e08:	2010      	movs	r0, #16
  401e0a:	bd10      	pop	{r4, pc}
  401e0c:	2011      	movs	r0, #17
  401e0e:	bd10      	pop	{r4, pc}
  401e10:	400e0a00 	.word	0x400e0a00

00401e14 <flash_read_unique_id>:
  401e14:	b570      	push	{r4, r5, r6, lr}
  401e16:	b086      	sub	sp, #24
  401e18:	2304      	movs	r3, #4
  401e1a:	ad02      	add	r5, sp, #8
  401e1c:	4606      	mov	r6, r0
  401e1e:	460c      	mov	r4, r1
  401e20:	9300      	str	r3, [sp, #0]
  401e22:	220f      	movs	r2, #15
  401e24:	462b      	mov	r3, r5
  401e26:	210e      	movs	r1, #14
  401e28:	4809      	ldr	r0, [pc, #36]	; (401e50 <flash_read_unique_id+0x3c>)
  401e2a:	f001 fe6d 	bl	403b08 <__efc_perform_read_sequence_veneer>
  401e2e:	b958      	cbnz	r0, 401e48 <flash_read_unique_id+0x34>
  401e30:	2c04      	cmp	r4, #4
  401e32:	bf28      	it	cs
  401e34:	2404      	movcs	r4, #4
  401e36:	4603      	mov	r3, r0
  401e38:	42a3      	cmp	r3, r4
  401e3a:	d006      	beq.n	401e4a <flash_read_unique_id+0x36>
  401e3c:	f855 2023 	ldr.w	r2, [r5, r3, lsl #2]
  401e40:	f846 2023 	str.w	r2, [r6, r3, lsl #2]
  401e44:	3301      	adds	r3, #1
  401e46:	e7f7      	b.n	401e38 <flash_read_unique_id+0x24>
  401e48:	2010      	movs	r0, #16
  401e4a:	b006      	add	sp, #24
  401e4c:	bd70      	pop	{r4, r5, r6, pc}
  401e4e:	bf00      	nop
  401e50:	400e0a00 	.word	0x400e0a00

00401e54 <flash_read_user_signature>:
  401e54:	b507      	push	{r0, r1, r2, lr}
  401e56:	2980      	cmp	r1, #128	; 0x80
  401e58:	bf28      	it	cs
  401e5a:	2180      	movcs	r1, #128	; 0x80
  401e5c:	9100      	str	r1, [sp, #0]
  401e5e:	4603      	mov	r3, r0
  401e60:	2215      	movs	r2, #21
  401e62:	2114      	movs	r1, #20
  401e64:	4804      	ldr	r0, [pc, #16]	; (401e78 <flash_read_user_signature+0x24>)
  401e66:	f001 fe4f 	bl	403b08 <__efc_perform_read_sequence_veneer>
  401e6a:	2800      	cmp	r0, #0
  401e6c:	bf14      	ite	ne
  401e6e:	2010      	movne	r0, #16
  401e70:	2000      	moveq	r0, #0
  401e72:	b003      	add	sp, #12
  401e74:	f85d fb04 	ldr.w	pc, [sp], #4
  401e78:	400e0a00 	.word	0x400e0a00

00401e7c <flash_write_user_signature>:
  401e7c:	2980      	cmp	r1, #128	; 0x80
  401e7e:	b508      	push	{r3, lr}
  401e80:	d818      	bhi.n	401eb4 <flash_write_user_signature+0x38>
  401e82:	008a      	lsls	r2, r1, #2
  401e84:	4601      	mov	r1, r0
  401e86:	480c      	ldr	r0, [pc, #48]	; (401eb8 <flash_write_user_signature+0x3c>)
  401e88:	f001 f96c 	bl	403164 <memcpy>
  401e8c:	4b0b      	ldr	r3, [pc, #44]	; (401ebc <flash_write_user_signature+0x40>)
  401e8e:	480a      	ldr	r0, [pc, #40]	; (401eb8 <flash_write_user_signature+0x3c>)
  401e90:	490b      	ldr	r1, [pc, #44]	; (401ec0 <flash_write_user_signature+0x44>)
  401e92:	4a0c      	ldr	r2, [pc, #48]	; (401ec4 <flash_write_user_signature+0x48>)
  401e94:	441a      	add	r2, r3
  401e96:	5882      	ldr	r2, [r0, r2]
  401e98:	f843 2f04 	str.w	r2, [r3, #4]!
  401e9c:	428b      	cmp	r3, r1
  401e9e:	d1f8      	bne.n	401e92 <flash_write_user_signature+0x16>
  401ea0:	2200      	movs	r2, #0
  401ea2:	2112      	movs	r1, #18
  401ea4:	4808      	ldr	r0, [pc, #32]	; (401ec8 <flash_write_user_signature+0x4c>)
  401ea6:	f7fe fc1b 	bl	4006e0 <efc_perform_command>
  401eaa:	2800      	cmp	r0, #0
  401eac:	bf14      	ite	ne
  401eae:	2010      	movne	r0, #16
  401eb0:	2000      	moveq	r0, #0
  401eb2:	bd08      	pop	{r3, pc}
  401eb4:	2011      	movs	r0, #17
  401eb6:	bd08      	pop	{r3, pc}
  401eb8:	20000330 	.word	0x20000330
  401ebc:	003ffffc 	.word	0x003ffffc
  401ec0:	004001fc 	.word	0x004001fc
  401ec4:	ffc00004 	.word	0xffc00004
  401ec8:	400e0a00 	.word	0x400e0a00

00401ecc <flash_erase_user_signature>:
  401ecc:	2200      	movs	r2, #0
  401ece:	2113      	movs	r1, #19
  401ed0:	4801      	ldr	r0, [pc, #4]	; (401ed8 <flash_erase_user_signature+0xc>)
  401ed2:	f7fe bc05 	b.w	4006e0 <efc_perform_command>
  401ed6:	bf00      	nop
  401ed8:	400e0a00 	.word	0x400e0a00

00401edc <osc_enable>:
  401edc:	3801      	subs	r0, #1
  401ede:	2806      	cmp	r0, #6
  401ee0:	d818      	bhi.n	401f14 <osc_enable+0x38>
  401ee2:	e8df f000 	tbb	[pc, r0]
  401ee6:	0604      	.short	0x0604
  401ee8:	100e0b09 	.word	0x100e0b09
  401eec:	13          	.byte	0x13
  401eed:	00          	.byte	0x00
  401eee:	2000      	movs	r0, #0
  401ef0:	e000      	b.n	401ef4 <osc_enable+0x18>
  401ef2:	2001      	movs	r0, #1
  401ef4:	f000 b95e 	b.w	4021b4 <pmc_switch_sclk_to_32kxtal>
  401ef8:	2000      	movs	r0, #0
  401efa:	e000      	b.n	401efe <osc_enable+0x22>
  401efc:	2010      	movs	r0, #16
  401efe:	f000 b969 	b.w	4021d4 <pmc_switch_mainck_to_fastrc>
  401f02:	2020      	movs	r0, #32
  401f04:	e7fb      	b.n	401efe <osc_enable+0x22>
  401f06:	213e      	movs	r1, #62	; 0x3e
  401f08:	2000      	movs	r0, #0
  401f0a:	e001      	b.n	401f10 <osc_enable+0x34>
  401f0c:	213e      	movs	r1, #62	; 0x3e
  401f0e:	2001      	movs	r0, #1
  401f10:	f000 b984 	b.w	40221c <pmc_switch_mainck_to_xtal>
  401f14:	4770      	bx	lr

00401f16 <osc_wait_ready.constprop.4>:
  401f16:	b508      	push	{r3, lr}
  401f18:	f000 f9a8 	bl	40226c <pmc_osc_is_ready_mainck>
  401f1c:	2800      	cmp	r0, #0
  401f1e:	d0fb      	beq.n	401f18 <osc_wait_ready.constprop.4+0x2>
  401f20:	bd08      	pop	{r3, pc}
	...

00401f24 <sysclk_enable_usb>:
  401f24:	b508      	push	{r3, lr}
  401f26:	2006      	movs	r0, #6
  401f28:	f7ff ffd8 	bl	401edc <osc_enable>
  401f2c:	f7ff fff3 	bl	401f16 <osc_wait_ready.constprop.4>
  401f30:	f000 f9b4 	bl	40229c <pmc_disable_pllbck>
  401f34:	4b06      	ldr	r3, [pc, #24]	; (401f50 <sysclk_enable_usb+0x2c>)
  401f36:	4a07      	ldr	r2, [pc, #28]	; (401f54 <sysclk_enable_usb+0x30>)
  401f38:	62da      	str	r2, [r3, #44]	; 0x2c
  401f3a:	f000 f9b5 	bl	4022a8 <pmc_is_locked_pllbck>
  401f3e:	2800      	cmp	r0, #0
  401f40:	d0fb      	beq.n	401f3a <sysclk_enable_usb+0x16>
  401f42:	2000      	movs	r0, #0
  401f44:	f000 fa0c 	bl	402360 <pmc_switch_udpck_to_pllbck>
  401f48:	e8bd 4008 	ldmia.w	sp!, {r3, lr}
  401f4c:	f000 ba12 	b.w	402374 <pmc_enable_udpck>
  401f50:	400e0400 	.word	0x400e0400
  401f54:	00023f01 	.word	0x00023f01

00401f58 <sysclk_init>:
  401f58:	b508      	push	{r3, lr}
  401f5a:	480d      	ldr	r0, [pc, #52]	; (401f90 <sysclk_init+0x38>)
  401f5c:	f000 fc3a 	bl	4027d4 <system_init_flash>
  401f60:	2006      	movs	r0, #6
  401f62:	f7ff ffbb 	bl	401edc <osc_enable>
  401f66:	f7ff ffd6 	bl	401f16 <osc_wait_ready.constprop.4>
  401f6a:	f000 f987 	bl	40227c <pmc_disable_pllack>
  401f6e:	4b09      	ldr	r3, [pc, #36]	; (401f94 <sysclk_init+0x3c>)
  401f70:	4a09      	ldr	r2, [pc, #36]	; (401f98 <sysclk_init+0x40>)
  401f72:	629a      	str	r2, [r3, #40]	; 0x28
  401f74:	f000 f98a 	bl	40228c <pmc_is_locked_pllack>
  401f78:	2800      	cmp	r0, #0
  401f7a:	d0fb      	beq.n	401f74 <sysclk_init+0x1c>
  401f7c:	2000      	movs	r0, #0
  401f7e:	f000 f8f7 	bl	402170 <pmc_switch_mck_to_pllack>
  401f82:	f000 fbc1 	bl	402708 <SystemCoreClockUpdate>
  401f86:	4805      	ldr	r0, [pc, #20]	; (401f9c <sysclk_init+0x44>)
  401f88:	e8bd 4008 	ldmia.w	sp!, {r3, lr}
  401f8c:	f000 bc22 	b.w	4027d4 <system_init_flash>
  401f90:	07270e00 	.word	0x07270e00
  401f94:	400e0400 	.word	0x400e0400
  401f98:	20063f01 	.word	0x20063f01
  401f9c:	06acfc00 	.word	0x06acfc00

00401fa0 <dacc_reset>:
  401fa0:	2301      	movs	r3, #1
  401fa2:	6003      	str	r3, [r0, #0]
  401fa4:	4770      	bx	lr

00401fa6 <dacc_set_transfer_mode>:
  401fa6:	6843      	ldr	r3, [r0, #4]
  401fa8:	f443 7380 	orr.w	r3, r3, #256	; 0x100
  401fac:	6043      	str	r3, [r0, #4]
  401fae:	6843      	ldr	r3, [r0, #4]
  401fb0:	b111      	cbz	r1, 401fb8 <dacc_set_transfer_mode+0x12>
  401fb2:	f043 0310 	orr.w	r3, r3, #16
  401fb6:	e001      	b.n	401fbc <dacc_set_transfer_mode+0x16>
  401fb8:	f023 0310 	bic.w	r3, r3, #16
  401fbc:	6043      	str	r3, [r0, #4]
  401fbe:	2000      	movs	r0, #0
  401fc0:	4770      	bx	lr

00401fc2 <dacc_get_interrupt_status>:
  401fc2:	6b00      	ldr	r0, [r0, #48]	; 0x30
  401fc4:	4770      	bx	lr

00401fc6 <dacc_write_conversion_data>:
  401fc6:	6201      	str	r1, [r0, #32]
  401fc8:	4770      	bx	lr

00401fca <dacc_set_channel_selection>:
  401fca:	6843      	ldr	r3, [r0, #4]
  401fcc:	2901      	cmp	r1, #1
  401fce:	bf9f      	itttt	ls
  401fd0:	f423 1398 	bicls.w	r3, r3, #1245184	; 0x130000
  401fd4:	ea43 4101 	orrls.w	r1, r3, r1, lsl #16
  401fd8:	6041      	strls	r1, [r0, #4]
  401fda:	2000      	movls	r0, #0
  401fdc:	bf88      	it	hi
  401fde:	2001      	movhi	r0, #1
  401fe0:	4770      	bx	lr

00401fe2 <dacc_enable_channel>:
  401fe2:	2901      	cmp	r1, #1
  401fe4:	f04f 0301 	mov.w	r3, #1
  401fe8:	bf9d      	ittte	ls
  401fea:	408b      	lslls	r3, r1
  401fec:	6103      	strls	r3, [r0, #16]
  401fee:	2000      	movls	r0, #0
  401ff0:	4618      	movhi	r0, r3
  401ff2:	4770      	bx	lr

00401ff4 <pio_set_peripheral>:
  401ff4:	f1b1 5fc0 	cmp.w	r1, #402653184	; 0x18000000
  401ff8:	b510      	push	{r4, lr}
  401ffa:	6442      	str	r2, [r0, #68]	; 0x44
  401ffc:	d02d      	beq.n	40205a <pio_set_peripheral+0x66>
  401ffe:	d807      	bhi.n	402010 <pio_set_peripheral+0x1c>
  402000:	f1b1 6f00 	cmp.w	r1, #134217728	; 0x8000000
  402004:	d015      	beq.n	402032 <pio_set_peripheral+0x3e>
  402006:	f1b1 5f80 	cmp.w	r1, #268435456	; 0x10000000
  40200a:	d01d      	beq.n	402048 <pio_set_peripheral+0x54>
  40200c:	bb71      	cbnz	r1, 40206c <pio_set_peripheral+0x78>
  40200e:	bd10      	pop	{r4, pc}
  402010:	f1b1 5f20 	cmp.w	r1, #671088640	; 0x28000000
  402014:	d02b      	beq.n	40206e <pio_set_peripheral+0x7a>
  402016:	d805      	bhi.n	402024 <pio_set_peripheral+0x30>
  402018:	f1b1 5f00 	cmp.w	r1, #536870912	; 0x20000000
  40201c:	d126      	bne.n	40206c <pio_set_peripheral+0x78>
  40201e:	6f03      	ldr	r3, [r0, #112]	; 0x70
  402020:	4313      	orrs	r3, r2
  402022:	e01f      	b.n	402064 <pio_set_peripheral+0x70>
  402024:	f1b1 5f40 	cmp.w	r1, #805306368	; 0x30000000
  402028:	d021      	beq.n	40206e <pio_set_peripheral+0x7a>
  40202a:	f1b1 5f60 	cmp.w	r1, #939524096	; 0x38000000
  40202e:	d01e      	beq.n	40206e <pio_set_peripheral+0x7a>
  402030:	e01c      	b.n	40206c <pio_set_peripheral+0x78>
  402032:	6f04      	ldr	r4, [r0, #112]	; 0x70
  402034:	6f01      	ldr	r1, [r0, #112]	; 0x70
  402036:	43d3      	mvns	r3, r2
  402038:	4021      	ands	r1, r4
  40203a:	4019      	ands	r1, r3
  40203c:	6701      	str	r1, [r0, #112]	; 0x70
  40203e:	6f44      	ldr	r4, [r0, #116]	; 0x74
  402040:	6f41      	ldr	r1, [r0, #116]	; 0x74
  402042:	4021      	ands	r1, r4
  402044:	400b      	ands	r3, r1
  402046:	e010      	b.n	40206a <pio_set_peripheral+0x76>
  402048:	6f03      	ldr	r3, [r0, #112]	; 0x70
  40204a:	4313      	orrs	r3, r2
  40204c:	6703      	str	r3, [r0, #112]	; 0x70
  40204e:	6f41      	ldr	r1, [r0, #116]	; 0x74
  402050:	6f43      	ldr	r3, [r0, #116]	; 0x74
  402052:	400b      	ands	r3, r1
  402054:	ea23 0302 	bic.w	r3, r3, r2
  402058:	e007      	b.n	40206a <pio_set_peripheral+0x76>
  40205a:	6f01      	ldr	r1, [r0, #112]	; 0x70
  40205c:	6f03      	ldr	r3, [r0, #112]	; 0x70
  40205e:	400b      	ands	r3, r1
  402060:	ea23 0302 	bic.w	r3, r3, r2
  402064:	6703      	str	r3, [r0, #112]	; 0x70
  402066:	6f43      	ldr	r3, [r0, #116]	; 0x74
  402068:	4313      	orrs	r3, r2
  40206a:	6743      	str	r3, [r0, #116]	; 0x74
  40206c:	6042      	str	r2, [r0, #4]
  40206e:	bd10      	pop	{r4, pc}

00402070 <pio_set_input>:
  402070:	07d3      	lsls	r3, r2, #31
  402072:	6441      	str	r1, [r0, #68]	; 0x44
  402074:	bf4c      	ite	mi
  402076:	6641      	strmi	r1, [r0, #100]	; 0x64
  402078:	6601      	strpl	r1, [r0, #96]	; 0x60
  40207a:	f012 0f0a 	tst.w	r2, #10
  40207e:	bf14      	ite	ne
  402080:	6201      	strne	r1, [r0, #32]
  402082:	6241      	streq	r1, [r0, #36]	; 0x24
  402084:	0793      	lsls	r3, r2, #30
  402086:	d502      	bpl.n	40208e <pio_set_input+0x1e>
  402088:	f8c0 1080 	str.w	r1, [r0, #128]	; 0x80
  40208c:	e003      	b.n	402096 <pio_set_input+0x26>
  40208e:	0713      	lsls	r3, r2, #28
  402090:	bf48      	it	mi
  402092:	f8c0 1084 	strmi.w	r1, [r0, #132]	; 0x84
  402096:	6141      	str	r1, [r0, #20]
  402098:	6001      	str	r1, [r0, #0]
  40209a:	4770      	bx	lr

0040209c <pio_set_output>:
  40209c:	b510      	push	{r4, lr}
  40209e:	9c02      	ldr	r4, [sp, #8]
  4020a0:	6441      	str	r1, [r0, #68]	; 0x44
  4020a2:	b10c      	cbz	r4, 4020a8 <pio_set_output+0xc>
  4020a4:	6641      	str	r1, [r0, #100]	; 0x64
  4020a6:	e000      	b.n	4020aa <pio_set_output+0xe>
  4020a8:	6601      	str	r1, [r0, #96]	; 0x60
  4020aa:	b10b      	cbz	r3, 4020b0 <pio_set_output+0x14>
  4020ac:	6501      	str	r1, [r0, #80]	; 0x50
  4020ae:	e000      	b.n	4020b2 <pio_set_output+0x16>
  4020b0:	6541      	str	r1, [r0, #84]	; 0x54
  4020b2:	b10a      	cbz	r2, 4020b8 <pio_set_output+0x1c>
  4020b4:	6301      	str	r1, [r0, #48]	; 0x30
  4020b6:	e000      	b.n	4020ba <pio_set_output+0x1e>
  4020b8:	6341      	str	r1, [r0, #52]	; 0x34
  4020ba:	6101      	str	r1, [r0, #16]
  4020bc:	6001      	str	r1, [r0, #0]
  4020be:	bd10      	pop	{r4, pc}

004020c0 <pio_get_interrupt_status>:
  4020c0:	6cc0      	ldr	r0, [r0, #76]	; 0x4c
  4020c2:	4770      	bx	lr

004020c4 <pio_get_interrupt_mask>:
  4020c4:	6c80      	ldr	r0, [r0, #72]	; 0x48
  4020c6:	4770      	bx	lr

004020c8 <pio_configure_pin>:
  4020c8:	b5f7      	push	{r0, r1, r2, r4, r5, r6, r7, lr}
  4020ca:	0945      	lsrs	r5, r0, #5
  4020cc:	460e      	mov	r6, r1
  4020ce:	f505 1500 	add.w	r5, r5, #2097152	; 0x200000
  4020d2:	f001 41f0 	and.w	r1, r1, #2013265920	; 0x78000000
  4020d6:	f205 7507 	addw	r5, r5, #1799	; 0x707
  4020da:	f1b1 5f00 	cmp.w	r1, #536870912	; 0x20000000
  4020de:	ea4f 2545 	mov.w	r5, r5, lsl #9
  4020e2:	d01d      	beq.n	402120 <pio_configure_pin+0x58>
  4020e4:	d809      	bhi.n	4020fa <pio_configure_pin+0x32>
  4020e6:	f1b1 5f80 	cmp.w	r1, #268435456	; 0x10000000
  4020ea:	d019      	beq.n	402120 <pio_configure_pin+0x58>
  4020ec:	f1b1 5fc0 	cmp.w	r1, #402653184	; 0x18000000
  4020f0:	d016      	beq.n	402120 <pio_configure_pin+0x58>
  4020f2:	f1b1 6f00 	cmp.w	r1, #134217728	; 0x8000000
  4020f6:	d138      	bne.n	40216a <pio_configure_pin+0xa2>
  4020f8:	e012      	b.n	402120 <pio_configure_pin+0x58>
  4020fa:	f1b1 5f40 	cmp.w	r1, #805306368	; 0x30000000
  4020fe:	d01f      	beq.n	402140 <pio_configure_pin+0x78>
  402100:	f1b1 5f60 	cmp.w	r1, #939524096	; 0x38000000
  402104:	d01c      	beq.n	402140 <pio_configure_pin+0x78>
  402106:	f1b1 5f20 	cmp.w	r1, #671088640	; 0x28000000
  40210a:	d12e      	bne.n	40216a <pio_configure_pin+0xa2>
  40210c:	f000 011f 	and.w	r1, r0, #31
  402110:	2401      	movs	r4, #1
  402112:	4632      	mov	r2, r6
  402114:	fa04 f101 	lsl.w	r1, r4, r1
  402118:	4628      	mov	r0, r5
  40211a:	f7ff ffa9 	bl	402070 <pio_set_input>
  40211e:	e022      	b.n	402166 <pio_configure_pin+0x9e>
  402120:	f000 041f 	and.w	r4, r0, #31
  402124:	2701      	movs	r7, #1
  402126:	fa07 f404 	lsl.w	r4, r7, r4
  40212a:	4622      	mov	r2, r4
  40212c:	4628      	mov	r0, r5
  40212e:	f7ff ff61 	bl	401ff4 <pio_set_peripheral>
  402132:	07f6      	lsls	r6, r6, #31
  402134:	d402      	bmi.n	40213c <pio_configure_pin+0x74>
  402136:	662c      	str	r4, [r5, #96]	; 0x60
  402138:	4638      	mov	r0, r7
  40213a:	e017      	b.n	40216c <pio_configure_pin+0xa4>
  40213c:	666c      	str	r4, [r5, #100]	; 0x64
  40213e:	e7fb      	b.n	402138 <pio_configure_pin+0x70>
  402140:	f006 5260 	and.w	r2, r6, #939524096	; 0x38000000
  402144:	f000 011f 	and.w	r1, r0, #31
  402148:	2401      	movs	r4, #1
  40214a:	f102 4048 	add.w	r0, r2, #3355443200	; 0xc8000000
  40214e:	ea06 0304 	and.w	r3, r6, r4
  402152:	4242      	negs	r2, r0
  402154:	9300      	str	r3, [sp, #0]
  402156:	4142      	adcs	r2, r0
  402158:	f3c6 0380 	ubfx	r3, r6, #2, #1
  40215c:	fa04 f101 	lsl.w	r1, r4, r1
  402160:	4628      	mov	r0, r5
  402162:	f7ff ff9b 	bl	40209c <pio_set_output>
  402166:	4620      	mov	r0, r4
  402168:	e000      	b.n	40216c <pio_configure_pin+0xa4>
  40216a:	2000      	movs	r0, #0
  40216c:	b003      	add	sp, #12
  40216e:	bdf0      	pop	{r4, r5, r6, r7, pc}

00402170 <pmc_switch_mck_to_pllack>:
  402170:	4b0f      	ldr	r3, [pc, #60]	; (4021b0 <pmc_switch_mck_to_pllack+0x40>)
  402172:	6b1a      	ldr	r2, [r3, #48]	; 0x30
  402174:	f022 0270 	bic.w	r2, r2, #112	; 0x70
  402178:	4310      	orrs	r0, r2
  40217a:	6318      	str	r0, [r3, #48]	; 0x30
  40217c:	f640 0201 	movw	r2, #2049	; 0x801
  402180:	6e98      	ldr	r0, [r3, #104]	; 0x68
  402182:	490b      	ldr	r1, [pc, #44]	; (4021b0 <pmc_switch_mck_to_pllack+0x40>)
  402184:	0700      	lsls	r0, r0, #28
  402186:	d403      	bmi.n	402190 <pmc_switch_mck_to_pllack+0x20>
  402188:	3a01      	subs	r2, #1
  40218a:	d1f9      	bne.n	402180 <pmc_switch_mck_to_pllack+0x10>
  40218c:	2001      	movs	r0, #1
  40218e:	4770      	bx	lr
  402190:	6b0a      	ldr	r2, [r1, #48]	; 0x30
  402192:	f022 0203 	bic.w	r2, r2, #3
  402196:	f042 0202 	orr.w	r2, r2, #2
  40219a:	630a      	str	r2, [r1, #48]	; 0x30
  40219c:	f640 0201 	movw	r2, #2049	; 0x801
  4021a0:	6e99      	ldr	r1, [r3, #104]	; 0x68
  4021a2:	0709      	lsls	r1, r1, #28
  4021a4:	d402      	bmi.n	4021ac <pmc_switch_mck_to_pllack+0x3c>
  4021a6:	3a01      	subs	r2, #1
  4021a8:	d1fa      	bne.n	4021a0 <pmc_switch_mck_to_pllack+0x30>
  4021aa:	e7ef      	b.n	40218c <pmc_switch_mck_to_pllack+0x1c>
  4021ac:	2000      	movs	r0, #0
  4021ae:	4770      	bx	lr
  4021b0:	400e0400 	.word	0x400e0400

004021b4 <pmc_switch_sclk_to_32kxtal>:
  4021b4:	4a05      	ldr	r2, [pc, #20]	; (4021cc <pmc_switch_sclk_to_32kxtal+0x18>)
  4021b6:	2801      	cmp	r0, #1
  4021b8:	bf01      	itttt	eq
  4021ba:	6893      	ldreq	r3, [r2, #8]
  4021bc:	f043 4325 	orreq.w	r3, r3, #2768240640	; 0xa5000000
  4021c0:	f443 1380 	orreq.w	r3, r3, #1048576	; 0x100000
  4021c4:	6093      	streq	r3, [r2, #8]
  4021c6:	4b02      	ldr	r3, [pc, #8]	; (4021d0 <pmc_switch_sclk_to_32kxtal+0x1c>)
  4021c8:	6013      	str	r3, [r2, #0]
  4021ca:	4770      	bx	lr
  4021cc:	400e1410 	.word	0x400e1410
  4021d0:	a5000008 	.word	0xa5000008

004021d4 <pmc_switch_mainck_to_fastrc>:
  4021d4:	4a10      	ldr	r2, [pc, #64]	; (402218 <pmc_switch_mainck_to_fastrc+0x44>)
  4021d6:	6a11      	ldr	r1, [r2, #32]
  4021d8:	f441 115c 	orr.w	r1, r1, #3604480	; 0x370000
  4021dc:	f041 0108 	orr.w	r1, r1, #8
  4021e0:	6211      	str	r1, [r2, #32]
  4021e2:	6e93      	ldr	r3, [r2, #104]	; 0x68
  4021e4:	490c      	ldr	r1, [pc, #48]	; (402218 <pmc_switch_mainck_to_fastrc+0x44>)
  4021e6:	039b      	lsls	r3, r3, #14
  4021e8:	d5fb      	bpl.n	4021e2 <pmc_switch_mainck_to_fastrc+0xe>
  4021ea:	6a0b      	ldr	r3, [r1, #32]
  4021ec:	f423 135c 	bic.w	r3, r3, #3604480	; 0x370000
  4021f0:	f023 0370 	bic.w	r3, r3, #112	; 0x70
  4021f4:	f443 135c 	orr.w	r3, r3, #3604480	; 0x370000
  4021f8:	4303      	orrs	r3, r0
  4021fa:	620b      	str	r3, [r1, #32]
  4021fc:	6e93      	ldr	r3, [r2, #104]	; 0x68
  4021fe:	4906      	ldr	r1, [pc, #24]	; (402218 <pmc_switch_mainck_to_fastrc+0x44>)
  402200:	039b      	lsls	r3, r3, #14
  402202:	d5fb      	bpl.n	4021fc <pmc_switch_mainck_to_fastrc+0x28>
  402204:	6a0b      	ldr	r3, [r1, #32]
  402206:	f023 739b 	bic.w	r3, r3, #20316160	; 0x1360000
  40220a:	f423 3380 	bic.w	r3, r3, #65536	; 0x10000
  40220e:	f443 135c 	orr.w	r3, r3, #3604480	; 0x370000
  402212:	620b      	str	r3, [r1, #32]
  402214:	4770      	bx	lr
  402216:	bf00      	nop
  402218:	400e0400 	.word	0x400e0400

0040221c <pmc_switch_mainck_to_xtal>:
  40221c:	b510      	push	{r4, lr}
  40221e:	4c10      	ldr	r4, [pc, #64]	; (402260 <pmc_switch_mainck_to_xtal+0x44>)
  402220:	b130      	cbz	r0, 402230 <pmc_switch_mainck_to_xtal+0x14>
  402222:	6a23      	ldr	r3, [r4, #32]
  402224:	4a0f      	ldr	r2, [pc, #60]	; (402264 <pmc_switch_mainck_to_xtal+0x48>)
  402226:	401a      	ands	r2, r3
  402228:	4b0f      	ldr	r3, [pc, #60]	; (402268 <pmc_switch_mainck_to_xtal+0x4c>)
  40222a:	4313      	orrs	r3, r2
  40222c:	6223      	str	r3, [r4, #32]
  40222e:	bd10      	pop	{r4, pc}
  402230:	6a22      	ldr	r2, [r4, #32]
  402232:	f422 135c 	bic.w	r3, r2, #3604480	; 0x370000
  402236:	f023 0303 	bic.w	r3, r3, #3
  40223a:	0209      	lsls	r1, r1, #8
  40223c:	f443 135c 	orr.w	r3, r3, #3604480	; 0x370000
  402240:	b289      	uxth	r1, r1
  402242:	f043 0301 	orr.w	r3, r3, #1
  402246:	430b      	orrs	r3, r1
  402248:	6223      	str	r3, [r4, #32]
  40224a:	6ea3      	ldr	r3, [r4, #104]	; 0x68
  40224c:	4a04      	ldr	r2, [pc, #16]	; (402260 <pmc_switch_mainck_to_xtal+0x44>)
  40224e:	07db      	lsls	r3, r3, #31
  402250:	d5fb      	bpl.n	40224a <pmc_switch_mainck_to_xtal+0x2e>
  402252:	6a13      	ldr	r3, [r2, #32]
  402254:	f043 739b 	orr.w	r3, r3, #20316160	; 0x1360000
  402258:	f443 3380 	orr.w	r3, r3, #65536	; 0x10000
  40225c:	6213      	str	r3, [r2, #32]
  40225e:	bd10      	pop	{r4, pc}
  402260:	400e0400 	.word	0x400e0400
  402264:	fec8fffc 	.word	0xfec8fffc
  402268:	01370002 	.word	0x01370002

0040226c <pmc_osc_is_ready_mainck>:
  40226c:	4b02      	ldr	r3, [pc, #8]	; (402278 <pmc_osc_is_ready_mainck+0xc>)
  40226e:	6e98      	ldr	r0, [r3, #104]	; 0x68
  402270:	f400 3080 	and.w	r0, r0, #65536	; 0x10000
  402274:	4770      	bx	lr
  402276:	bf00      	nop
  402278:	400e0400 	.word	0x400e0400

0040227c <pmc_disable_pllack>:
  40227c:	4b02      	ldr	r3, [pc, #8]	; (402288 <pmc_disable_pllack+0xc>)
  40227e:	f04f 5200 	mov.w	r2, #536870912	; 0x20000000
  402282:	629a      	str	r2, [r3, #40]	; 0x28
  402284:	4770      	bx	lr
  402286:	bf00      	nop
  402288:	400e0400 	.word	0x400e0400

0040228c <pmc_is_locked_pllack>:
  40228c:	4b02      	ldr	r3, [pc, #8]	; (402298 <pmc_is_locked_pllack+0xc>)
  40228e:	6e98      	ldr	r0, [r3, #104]	; 0x68
  402290:	f000 0002 	and.w	r0, r0, #2
  402294:	4770      	bx	lr
  402296:	bf00      	nop
  402298:	400e0400 	.word	0x400e0400

0040229c <pmc_disable_pllbck>:
  40229c:	4b01      	ldr	r3, [pc, #4]	; (4022a4 <pmc_disable_pllbck+0x8>)
  40229e:	2200      	movs	r2, #0
  4022a0:	62da      	str	r2, [r3, #44]	; 0x2c
  4022a2:	4770      	bx	lr
  4022a4:	400e0400 	.word	0x400e0400

004022a8 <pmc_is_locked_pllbck>:
  4022a8:	4b02      	ldr	r3, [pc, #8]	; (4022b4 <pmc_is_locked_pllbck+0xc>)
  4022aa:	6e98      	ldr	r0, [r3, #104]	; 0x68
  4022ac:	f000 0004 	and.w	r0, r0, #4
  4022b0:	4770      	bx	lr
  4022b2:	bf00      	nop
  4022b4:	400e0400 	.word	0x400e0400

004022b8 <pmc_enable_periph_clk>:
  4022b8:	2822      	cmp	r0, #34	; 0x22
  4022ba:	d817      	bhi.n	4022ec <pmc_enable_periph_clk+0x34>
  4022bc:	281f      	cmp	r0, #31
  4022be:	4a0d      	ldr	r2, [pc, #52]	; (4022f4 <pmc_enable_periph_clk+0x3c>)
  4022c0:	f04f 0301 	mov.w	r3, #1
  4022c4:	d807      	bhi.n	4022d6 <pmc_enable_periph_clk+0x1e>
  4022c6:	6991      	ldr	r1, [r2, #24]
  4022c8:	fa03 f000 	lsl.w	r0, r3, r0
  4022cc:	ea30 0301 	bics.w	r3, r0, r1
  4022d0:	d00e      	beq.n	4022f0 <pmc_enable_periph_clk+0x38>
  4022d2:	6110      	str	r0, [r2, #16]
  4022d4:	e00c      	b.n	4022f0 <pmc_enable_periph_clk+0x38>
  4022d6:	3820      	subs	r0, #32
  4022d8:	f8d2 1108 	ldr.w	r1, [r2, #264]	; 0x108
  4022dc:	fa03 f000 	lsl.w	r0, r3, r0
  4022e0:	ea30 0301 	bics.w	r3, r0, r1
  4022e4:	d004      	beq.n	4022f0 <pmc_enable_periph_clk+0x38>
  4022e6:	f8c2 0100 	str.w	r0, [r2, #256]	; 0x100
  4022ea:	e001      	b.n	4022f0 <pmc_enable_periph_clk+0x38>
  4022ec:	2001      	movs	r0, #1
  4022ee:	4770      	bx	lr
  4022f0:	2000      	movs	r0, #0
  4022f2:	4770      	bx	lr
  4022f4:	400e0400 	.word	0x400e0400

004022f8 <pmc_disable_periph_clk>:
  4022f8:	2822      	cmp	r0, #34	; 0x22
  4022fa:	d817      	bhi.n	40232c <pmc_disable_periph_clk+0x34>
  4022fc:	281f      	cmp	r0, #31
  4022fe:	4a0d      	ldr	r2, [pc, #52]	; (402334 <pmc_disable_periph_clk+0x3c>)
  402300:	f04f 0301 	mov.w	r3, #1
  402304:	d807      	bhi.n	402316 <pmc_disable_periph_clk+0x1e>
  402306:	6991      	ldr	r1, [r2, #24]
  402308:	fa03 f000 	lsl.w	r0, r3, r0
  40230c:	ea30 0301 	bics.w	r3, r0, r1
  402310:	d10e      	bne.n	402330 <pmc_disable_periph_clk+0x38>
  402312:	6150      	str	r0, [r2, #20]
  402314:	e00c      	b.n	402330 <pmc_disable_periph_clk+0x38>
  402316:	3820      	subs	r0, #32
  402318:	f8d2 1108 	ldr.w	r1, [r2, #264]	; 0x108
  40231c:	fa03 f000 	lsl.w	r0, r3, r0
  402320:	ea30 0301 	bics.w	r3, r0, r1
  402324:	d104      	bne.n	402330 <pmc_disable_periph_clk+0x38>
  402326:	f8c2 0104 	str.w	r0, [r2, #260]	; 0x104
  40232a:	e001      	b.n	402330 <pmc_disable_periph_clk+0x38>
  40232c:	2001      	movs	r0, #1
  40232e:	4770      	bx	lr
  402330:	2000      	movs	r0, #0
  402332:	4770      	bx	lr
  402334:	400e0400 	.word	0x400e0400

00402338 <pmc_disable_all_periph_clk>:
  402338:	4b08      	ldr	r3, [pc, #32]	; (40235c <pmc_disable_all_periph_clk+0x24>)
  40233a:	f06f 0203 	mvn.w	r2, #3
  40233e:	615a      	str	r2, [r3, #20]
  402340:	699a      	ldr	r2, [r3, #24]
  402342:	f032 0203 	bics.w	r2, r2, #3
  402346:	d1fb      	bne.n	402340 <pmc_disable_all_periph_clk+0x8>
  402348:	4a04      	ldr	r2, [pc, #16]	; (40235c <pmc_disable_all_periph_clk+0x24>)
  40234a:	f04f 31ff 	mov.w	r1, #4294967295
  40234e:	f8c2 1104 	str.w	r1, [r2, #260]	; 0x104
  402352:	f8d3 2108 	ldr.w	r2, [r3, #264]	; 0x108
  402356:	2a00      	cmp	r2, #0
  402358:	d1fb      	bne.n	402352 <pmc_disable_all_periph_clk+0x1a>
  40235a:	4770      	bx	lr
  40235c:	400e0400 	.word	0x400e0400

00402360 <pmc_switch_udpck_to_pllbck>:
  402360:	0200      	lsls	r0, r0, #8
  402362:	f400 6070 	and.w	r0, r0, #3840	; 0xf00
  402366:	4b02      	ldr	r3, [pc, #8]	; (402370 <pmc_switch_udpck_to_pllbck+0x10>)
  402368:	f040 0001 	orr.w	r0, r0, #1
  40236c:	6398      	str	r0, [r3, #56]	; 0x38
  40236e:	4770      	bx	lr
  402370:	400e0400 	.word	0x400e0400

00402374 <pmc_enable_udpck>:
  402374:	4b01      	ldr	r3, [pc, #4]	; (40237c <pmc_enable_udpck+0x8>)
  402376:	2280      	movs	r2, #128	; 0x80
  402378:	601a      	str	r2, [r3, #0]
  40237a:	4770      	bx	lr
  40237c:	400e0400 	.word	0x400e0400

00402380 <pmc_set_fast_startup_input>:
  402380:	4a03      	ldr	r2, [pc, #12]	; (402390 <pmc_set_fast_startup_input+0x10>)
  402382:	6f13      	ldr	r3, [r2, #112]	; 0x70
  402384:	f3c0 0012 	ubfx	r0, r0, #0, #19
  402388:	4303      	orrs	r3, r0
  40238a:	6713      	str	r3, [r2, #112]	; 0x70
  40238c:	4770      	bx	lr
  40238e:	bf00      	nop
  402390:	400e0400 	.word	0x400e0400

00402394 <pmc_set_flash_in_wait_mode>:
  402394:	4b01      	ldr	r3, [pc, #4]	; (40239c <pmc_set_flash_in_wait_mode+0x8>)
  402396:	6018      	str	r0, [r3, #0]
  402398:	4770      	bx	lr
  40239a:	bf00      	nop
  40239c:	20000150 	.word	0x20000150

004023a0 <pmc_enable_waitmode>:
  4023a0:	4b10      	ldr	r3, [pc, #64]	; (4023e4 <pmc_enable_waitmode+0x44>)
  4023a2:	6f1a      	ldr	r2, [r3, #112]	; 0x70
  4023a4:	f422 01c0 	bic.w	r1, r2, #6291456	; 0x600000
  4023a8:	4a0f      	ldr	r2, [pc, #60]	; (4023e8 <pmc_enable_waitmode+0x48>)
  4023aa:	6812      	ldr	r2, [r2, #0]
  4023ac:	430a      	orrs	r2, r1
  4023ae:	671a      	str	r2, [r3, #112]	; 0x70
  4023b0:	6a1a      	ldr	r2, [r3, #32]
  4023b2:	f442 125c 	orr.w	r2, r2, #3604480	; 0x370000
  4023b6:	f042 0204 	orr.w	r2, r2, #4
  4023ba:	621a      	str	r2, [r3, #32]
  4023bc:	6e9a      	ldr	r2, [r3, #104]	; 0x68
  4023be:	0710      	lsls	r0, r2, #28
  4023c0:	d5fc      	bpl.n	4023bc <pmc_enable_waitmode+0x1c>
  4023c2:	f44f 72fa 	mov.w	r2, #500	; 0x1f4
  4023c6:	bf00      	nop
  4023c8:	3a01      	subs	r2, #1
  4023ca:	d1fc      	bne.n	4023c6 <pmc_enable_waitmode+0x26>
  4023cc:	6a19      	ldr	r1, [r3, #32]
  4023ce:	4a05      	ldr	r2, [pc, #20]	; (4023e4 <pmc_enable_waitmode+0x44>)
  4023d0:	0709      	lsls	r1, r1, #28
  4023d2:	d5fb      	bpl.n	4023cc <pmc_enable_waitmode+0x2c>
  4023d4:	6f13      	ldr	r3, [r2, #112]	; 0x70
  4023d6:	f423 03c0 	bic.w	r3, r3, #6291456	; 0x600000
  4023da:	f443 0380 	orr.w	r3, r3, #4194304	; 0x400000
  4023de:	6713      	str	r3, [r2, #112]	; 0x70
  4023e0:	4770      	bx	lr
  4023e2:	bf00      	nop
  4023e4:	400e0400 	.word	0x400e0400
  4023e8:	20000150 	.word	0x20000150

004023ec <pmc_sleep>:
  4023ec:	e92d 4ff0 	stmdb	sp!, {r4, r5, r6, r7, r8, r9, sl, fp, lr}
  4023f0:	1e43      	subs	r3, r0, #1
  4023f2:	b085      	sub	sp, #20
  4023f4:	4683      	mov	fp, r0
  4023f6:	2b04      	cmp	r3, #4
  4023f8:	f200 80fa 	bhi.w	4025f0 <pmc_sleep+0x204>
  4023fc:	e8df f013 	tbh	[pc, r3, lsl #1]
  402400:	00050005 	.word	0x00050005
  402404:	000b000b 	.word	0x000b000b
  402408:	00e9      	.short	0x00e9
  40240a:	4a7b      	ldr	r2, [pc, #492]	; (4025f8 <pmc_sleep+0x20c>)
  40240c:	6913      	ldr	r3, [r2, #16]
  40240e:	f023 0304 	bic.w	r3, r3, #4
  402412:	6113      	str	r3, [r2, #16]
  402414:	e0e5      	b.n	4025e2 <pmc_sleep+0x1f6>
  402416:	2803      	cmp	r0, #3
  402418:	bf0c      	ite	eq
  40241a:	2000      	moveq	r0, #0
  40241c:	f44f 1000 	movne.w	r0, #2097152	; 0x200000
  402420:	f7ff ffb8 	bl	402394 <pmc_set_flash_in_wait_mode>
  402424:	b672      	cpsid	i
  402426:	f3bf 8f5f 	dmb	sy
  40242a:	4d74      	ldr	r5, [pc, #464]	; (4025fc <pmc_sleep+0x210>)
  40242c:	4f74      	ldr	r7, [pc, #464]	; (402600 <pmc_sleep+0x214>)
  40242e:	4c75      	ldr	r4, [pc, #468]	; (402604 <pmc_sleep+0x218>)
  402430:	4e75      	ldr	r6, [pc, #468]	; (402608 <pmc_sleep+0x21c>)
  402432:	2300      	movs	r3, #0
  402434:	702b      	strb	r3, [r5, #0]
  402436:	2301      	movs	r3, #1
  402438:	703b      	strb	r3, [r7, #0]
  40243a:	f8d4 a020 	ldr.w	sl, [r4, #32]
  40243e:	f8d4 8030 	ldr.w	r8, [r4, #48]	; 0x30
  402442:	6833      	ldr	r3, [r6, #0]
  402444:	9301      	str	r3, [sp, #4]
  402446:	6aa3      	ldr	r3, [r4, #40]	; 0x28
  402448:	9302      	str	r3, [sp, #8]
  40244a:	6ae3      	ldr	r3, [r4, #44]	; 0x2c
  40244c:	9303      	str	r3, [sp, #12]
  40244e:	f008 0903 	and.w	r9, r8, #3
  402452:	f44a 135c 	orr.w	r3, sl, #3604480	; 0x370000
  402456:	f043 0308 	orr.w	r3, r3, #8
  40245a:	f1b9 0f01 	cmp.w	r9, #1
  40245e:	6223      	str	r3, [r4, #32]
  402460:	d908      	bls.n	402474 <pmc_sleep+0x88>
  402462:	f028 0303 	bic.w	r3, r8, #3
  402466:	f043 0301 	orr.w	r3, r3, #1
  40246a:	6323      	str	r3, [r4, #48]	; 0x30
  40246c:	6ea2      	ldr	r2, [r4, #104]	; 0x68
  40246e:	0712      	lsls	r2, r2, #28
  402470:	d5fc      	bpl.n	40246c <pmc_sleep+0x80>
  402472:	e000      	b.n	402476 <pmc_sleep+0x8a>
  402474:	4643      	mov	r3, r8
  402476:	f013 0f70 	tst.w	r3, #112	; 0x70
  40247a:	d104      	bne.n	402486 <pmc_sleep+0x9a>
  40247c:	f7ff fefe 	bl	40227c <pmc_disable_pllack>
  402480:	f7ff ff0c 	bl	40229c <pmc_disable_pllbck>
  402484:	e006      	b.n	402494 <pmc_sleep+0xa8>
  402486:	f023 0370 	bic.w	r3, r3, #112	; 0x70
  40248a:	6323      	str	r3, [r4, #48]	; 0x30
  40248c:	6ea3      	ldr	r3, [r4, #104]	; 0x68
  40248e:	071b      	lsls	r3, r3, #28
  402490:	d5fc      	bpl.n	40248c <pmc_sleep+0xa0>
  402492:	e7f3      	b.n	40247c <pmc_sleep+0x90>
  402494:	6ea3      	ldr	r3, [r4, #104]	; 0x68
  402496:	4a5b      	ldr	r2, [pc, #364]	; (402604 <pmc_sleep+0x218>)
  402498:	0398      	lsls	r0, r3, #14
  40249a:	d5fb      	bpl.n	402494 <pmc_sleep+0xa8>
  40249c:	6a13      	ldr	r3, [r2, #32]
  40249e:	f023 739b 	bic.w	r3, r3, #20316160	; 0x1360000
  4024a2:	f423 3380 	bic.w	r3, r3, #65536	; 0x10000
  4024a6:	f443 135c 	orr.w	r3, r3, #3604480	; 0x370000
  4024aa:	6213      	str	r3, [r2, #32]
  4024ac:	6ea3      	ldr	r3, [r4, #104]	; 0x68
  4024ae:	4a55      	ldr	r2, [pc, #340]	; (402604 <pmc_sleep+0x218>)
  4024b0:	03d9      	lsls	r1, r3, #15
  4024b2:	d5fb      	bpl.n	4024ac <pmc_sleep+0xc0>
  4024b4:	9b01      	ldr	r3, [sp, #4]
  4024b6:	f1bb 0f04 	cmp.w	fp, #4
  4024ba:	f423 6370 	bic.w	r3, r3, #3840	; 0xf00
  4024be:	6033      	str	r3, [r6, #0]
  4024c0:	d107      	bne.n	4024d2 <pmc_sleep+0xe6>
  4024c2:	6a13      	ldr	r3, [r2, #32]
  4024c4:	f423 135c 	bic.w	r3, r3, #3604480	; 0x370000
  4024c8:	f023 0301 	bic.w	r3, r3, #1
  4024cc:	f443 135c 	orr.w	r3, r3, #3604480	; 0x370000
  4024d0:	6213      	str	r3, [r2, #32]
  4024d2:	2301      	movs	r3, #1
  4024d4:	702b      	strb	r3, [r5, #0]
  4024d6:	f3bf 8f5f 	dmb	sy
  4024da:	b662      	cpsie	i
  4024dc:	f7ff ff60 	bl	4023a0 <pmc_enable_waitmode>
  4024e0:	b672      	cpsid	i
  4024e2:	f3bf 8f5f 	dmb	sy
  4024e6:	2300      	movs	r3, #0
  4024e8:	f01a 0f02 	tst.w	sl, #2
  4024ec:	702b      	strb	r3, [r5, #0]
  4024ee:	d006      	beq.n	4024fe <pmc_sleep+0x112>
  4024f0:	6a23      	ldr	r3, [r4, #32]
  4024f2:	4846      	ldr	r0, [pc, #280]	; (40260c <pmc_sleep+0x220>)
  4024f4:	4018      	ands	r0, r3
  4024f6:	4b46      	ldr	r3, [pc, #280]	; (402610 <pmc_sleep+0x224>)
  4024f8:	4303      	orrs	r3, r0
  4024fa:	6223      	str	r3, [r4, #32]
  4024fc:	e022      	b.n	402544 <pmc_sleep+0x158>
  4024fe:	f01a 0f01 	tst.w	sl, #1
  402502:	d027      	beq.n	402554 <pmc_sleep+0x168>
  402504:	6a23      	ldr	r3, [r4, #32]
  402506:	483f      	ldr	r0, [pc, #252]	; (402604 <pmc_sleep+0x218>)
  402508:	07da      	lsls	r2, r3, #31
  40250a:	d504      	bpl.n	402516 <pmc_sleep+0x12a>
  40250c:	6a23      	ldr	r3, [r4, #32]
  40250e:	483d      	ldr	r0, [pc, #244]	; (402604 <pmc_sleep+0x218>)
  402510:	01db      	lsls	r3, r3, #7
  402512:	d50e      	bpl.n	402532 <pmc_sleep+0x146>
  402514:	e016      	b.n	402544 <pmc_sleep+0x158>
  402516:	6a03      	ldr	r3, [r0, #32]
  402518:	f423 135c 	bic.w	r3, r3, #3604480	; 0x370000
  40251c:	f023 0303 	bic.w	r3, r3, #3
  402520:	f443 135c 	orr.w	r3, r3, #3604480	; 0x370000
  402524:	f043 0301 	orr.w	r3, r3, #1
  402528:	6203      	str	r3, [r0, #32]
  40252a:	6ea3      	ldr	r3, [r4, #104]	; 0x68
  40252c:	07d8      	lsls	r0, r3, #31
  40252e:	d5fc      	bpl.n	40252a <pmc_sleep+0x13e>
  402530:	e7ec      	b.n	40250c <pmc_sleep+0x120>
  402532:	6a03      	ldr	r3, [r0, #32]
  402534:	f043 739b 	orr.w	r3, r3, #20316160	; 0x1360000
  402538:	f443 3380 	orr.w	r3, r3, #65536	; 0x10000
  40253c:	6203      	str	r3, [r0, #32]
  40253e:	6ea3      	ldr	r3, [r4, #104]	; 0x68
  402540:	03d9      	lsls	r1, r3, #15
  402542:	d5fc      	bpl.n	40253e <pmc_sleep+0x152>
  402544:	6a23      	ldr	r3, [r4, #32]
  402546:	f423 135c 	bic.w	r3, r3, #3604480	; 0x370000
  40254a:	f023 0378 	bic.w	r3, r3, #120	; 0x78
  40254e:	f443 135c 	orr.w	r3, r3, #3604480	; 0x370000
  402552:	6223      	str	r3, [r4, #32]
  402554:	4b2f      	ldr	r3, [pc, #188]	; (402614 <pmc_sleep+0x228>)
  402556:	9a02      	ldr	r2, [sp, #8]
  402558:	4013      	ands	r3, r2
  40255a:	b11b      	cbz	r3, 402564 <pmc_sleep+0x178>
  40255c:	f042 5300 	orr.w	r3, r2, #536870912	; 0x20000000
  402560:	62a3      	str	r3, [r4, #40]	; 0x28
  402562:	2302      	movs	r3, #2
  402564:	482b      	ldr	r0, [pc, #172]	; (402614 <pmc_sleep+0x228>)
  402566:	9a03      	ldr	r2, [sp, #12]
  402568:	4010      	ands	r0, r2
  40256a:	b110      	cbz	r0, 402572 <pmc_sleep+0x186>
  40256c:	62e2      	str	r2, [r4, #44]	; 0x2c
  40256e:	f043 0304 	orr.w	r3, r3, #4
  402572:	f1b9 0f02 	cmp.w	r9, #2
  402576:	d003      	beq.n	402580 <pmc_sleep+0x194>
  402578:	f1b9 0f03 	cmp.w	r9, #3
  40257c:	d004      	beq.n	402588 <pmc_sleep+0x19c>
  40257e:	e006      	b.n	40258e <pmc_sleep+0x1a2>
  402580:	6ea1      	ldr	r1, [r4, #104]	; 0x68
  402582:	078a      	lsls	r2, r1, #30
  402584:	d5fc      	bpl.n	402580 <pmc_sleep+0x194>
  402586:	e002      	b.n	40258e <pmc_sleep+0x1a2>
  402588:	6ea1      	ldr	r1, [r4, #104]	; 0x68
  40258a:	0748      	lsls	r0, r1, #29
  40258c:	d5fc      	bpl.n	402588 <pmc_sleep+0x19c>
  40258e:	6b21      	ldr	r1, [r4, #48]	; 0x30
  402590:	f021 0070 	bic.w	r0, r1, #112	; 0x70
  402594:	f008 0170 	and.w	r1, r8, #112	; 0x70
  402598:	4301      	orrs	r1, r0
  40259a:	6321      	str	r1, [r4, #48]	; 0x30
  40259c:	6ea1      	ldr	r1, [r4, #104]	; 0x68
  40259e:	0709      	lsls	r1, r1, #28
  4025a0:	d5fc      	bpl.n	40259c <pmc_sleep+0x1b0>
  4025a2:	4918      	ldr	r1, [pc, #96]	; (402604 <pmc_sleep+0x218>)
  4025a4:	9a01      	ldr	r2, [sp, #4]
  4025a6:	6032      	str	r2, [r6, #0]
  4025a8:	f8c1 8030 	str.w	r8, [r1, #48]	; 0x30
  4025ac:	6ea2      	ldr	r2, [r4, #104]	; 0x68
  4025ae:	0712      	lsls	r2, r2, #28
  4025b0:	d5fc      	bpl.n	4025ac <pmc_sleep+0x1c0>
  4025b2:	6ea2      	ldr	r2, [r4, #104]	; 0x68
  4025b4:	421a      	tst	r2, r3
  4025b6:	d0fc      	beq.n	4025b2 <pmc_sleep+0x1c6>
  4025b8:	4c17      	ldr	r4, [pc, #92]	; (402618 <pmc_sleep+0x22c>)
  4025ba:	6823      	ldr	r3, [r4, #0]
  4025bc:	2600      	movs	r6, #0
  4025be:	703e      	strb	r6, [r7, #0]
  4025c0:	b10b      	cbz	r3, 4025c6 <pmc_sleep+0x1da>
  4025c2:	4798      	blx	r3
  4025c4:	6026      	str	r6, [r4, #0]
  4025c6:	2301      	movs	r3, #1
  4025c8:	702b      	strb	r3, [r5, #0]
  4025ca:	f3bf 8f5f 	dmb	sy
  4025ce:	b662      	cpsie	i
  4025d0:	e00e      	b.n	4025f0 <pmc_sleep+0x204>
  4025d2:	4a09      	ldr	r2, [pc, #36]	; (4025f8 <pmc_sleep+0x20c>)
  4025d4:	6913      	ldr	r3, [r2, #16]
  4025d6:	f043 0304 	orr.w	r3, r3, #4
  4025da:	6113      	str	r3, [r2, #16]
  4025dc:	4b0f      	ldr	r3, [pc, #60]	; (40261c <pmc_sleep+0x230>)
  4025de:	4a10      	ldr	r2, [pc, #64]	; (402620 <pmc_sleep+0x234>)
  4025e0:	601a      	str	r2, [r3, #0]
  4025e2:	4b06      	ldr	r3, [pc, #24]	; (4025fc <pmc_sleep+0x210>)
  4025e4:	2201      	movs	r2, #1
  4025e6:	701a      	strb	r2, [r3, #0]
  4025e8:	f3bf 8f5f 	dmb	sy
  4025ec:	b662      	cpsie	i
  4025ee:	bf30      	wfi
  4025f0:	b005      	add	sp, #20
  4025f2:	e8bd 8ff0 	ldmia.w	sp!, {r4, r5, r6, r7, r8, r9, sl, fp, pc}
  4025f6:	bf00      	nop
  4025f8:	e000ed00 	.word	0xe000ed00
  4025fc:	20000154 	.word	0x20000154
  402600:	20000534 	.word	0x20000534
  402604:	400e0400 	.word	0x400e0400
  402608:	400e0a00 	.word	0x400e0a00
  40260c:	fec8fffc 	.word	0xfec8fffc
  402610:	01370002 	.word	0x01370002
  402614:	07ff0000 	.word	0x07ff0000
  402618:	20000530 	.word	0x20000530
  40261c:	400e1410 	.word	0x400e1410
  402620:	a5000004 	.word	0xa5000004

00402624 <pmc_is_wakeup_clocks_restored>:
  402624:	4b02      	ldr	r3, [pc, #8]	; (402630 <pmc_is_wakeup_clocks_restored+0xc>)
  402626:	7818      	ldrb	r0, [r3, #0]
  402628:	f080 0001 	eor.w	r0, r0, #1
  40262c:	4770      	bx	lr
  40262e:	bf00      	nop
  402630:	20000534 	.word	0x20000534

00402634 <cpu_irq_enter_critical>:
  402634:	4b08      	ldr	r3, [pc, #32]	; (402658 <cpu_irq_enter_critical+0x24>)
  402636:	6819      	ldr	r1, [r3, #0]
  402638:	b951      	cbnz	r1, 402650 <cpu_irq_enter_critical+0x1c>
  40263a:	f3ef 8010 	mrs	r0, PRIMASK
  40263e:	4a07      	ldr	r2, [pc, #28]	; (40265c <cpu_irq_enter_critical+0x28>)
  402640:	b928      	cbnz	r0, 40264e <cpu_irq_enter_critical+0x1a>
  402642:	b672      	cpsid	i
  402644:	f3bf 8f5f 	dmb	sy
  402648:	4905      	ldr	r1, [pc, #20]	; (402660 <cpu_irq_enter_critical+0x2c>)
  40264a:	7008      	strb	r0, [r1, #0]
  40264c:	2101      	movs	r1, #1
  40264e:	7011      	strb	r1, [r2, #0]
  402650:	681a      	ldr	r2, [r3, #0]
  402652:	3201      	adds	r2, #1
  402654:	601a      	str	r2, [r3, #0]
  402656:	4770      	bx	lr
  402658:	20000538 	.word	0x20000538
  40265c:	2000053c 	.word	0x2000053c
  402660:	20000154 	.word	0x20000154

00402664 <cpu_irq_leave_critical>:
  402664:	4b07      	ldr	r3, [pc, #28]	; (402684 <cpu_irq_leave_critical+0x20>)
  402666:	681a      	ldr	r2, [r3, #0]
  402668:	3a01      	subs	r2, #1
  40266a:	601a      	str	r2, [r3, #0]
  40266c:	681b      	ldr	r3, [r3, #0]
  40266e:	b943      	cbnz	r3, 402682 <cpu_irq_leave_critical+0x1e>
  402670:	4b05      	ldr	r3, [pc, #20]	; (402688 <cpu_irq_leave_critical+0x24>)
  402672:	781b      	ldrb	r3, [r3, #0]
  402674:	b12b      	cbz	r3, 402682 <cpu_irq_leave_critical+0x1e>
  402676:	4b05      	ldr	r3, [pc, #20]	; (40268c <cpu_irq_leave_critical+0x28>)
  402678:	2201      	movs	r2, #1
  40267a:	701a      	strb	r2, [r3, #0]
  40267c:	f3bf 8f5f 	dmb	sy
  402680:	b662      	cpsie	i
  402682:	4770      	bx	lr
  402684:	20000538 	.word	0x20000538
  402688:	2000053c 	.word	0x2000053c
  40268c:	20000154 	.word	0x20000154

00402690 <Dummy_Handler>:
  402690:	e7fe      	b.n	402690 <Dummy_Handler>
	...

00402694 <Reset_Handler>:
  402694:	b508      	push	{r3, lr}
  402696:	4a15      	ldr	r2, [pc, #84]	; (4026ec <Reset_Handler+0x58>)
  402698:	4b15      	ldr	r3, [pc, #84]	; (4026f0 <Reset_Handler+0x5c>)
  40269a:	429a      	cmp	r2, r3
  40269c:	d90d      	bls.n	4026ba <Reset_Handler+0x26>
  40269e:	4915      	ldr	r1, [pc, #84]	; (4026f4 <Reset_Handler+0x60>)
  4026a0:	3a04      	subs	r2, #4
  4026a2:	428b      	cmp	r3, r1
  4026a4:	d204      	bcs.n	4026b0 <Reset_Handler+0x1c>
  4026a6:	f852 0f04 	ldr.w	r0, [r2, #4]!
  4026aa:	f843 0b04 	str.w	r0, [r3], #4
  4026ae:	e7f8      	b.n	4026a2 <Reset_Handler+0xe>
  4026b0:	bf00      	nop
  4026b2:	4b11      	ldr	r3, [pc, #68]	; (4026f8 <Reset_Handler+0x64>)
  4026b4:	4a11      	ldr	r2, [pc, #68]	; (4026fc <Reset_Handler+0x68>)
  4026b6:	2100      	movs	r1, #0
  4026b8:	e00b      	b.n	4026d2 <Reset_Handler+0x3e>
  4026ba:	d2f9      	bcs.n	4026b0 <Reset_Handler+0x1c>
  4026bc:	490d      	ldr	r1, [pc, #52]	; (4026f4 <Reset_Handler+0x60>)
  4026be:	3a04      	subs	r2, #4
  4026c0:	1acb      	subs	r3, r1, r3
  4026c2:	4413      	add	r3, r2
  4026c4:	1ac9      	subs	r1, r1, r3
  4026c6:	4293      	cmp	r3, r2
  4026c8:	d0f2      	beq.n	4026b0 <Reset_Handler+0x1c>
  4026ca:	f853 0904 	ldr.w	r0, [r3], #-4
  4026ce:	5058      	str	r0, [r3, r1]
  4026d0:	e7f9      	b.n	4026c6 <Reset_Handler+0x32>
  4026d2:	4293      	cmp	r3, r2
  4026d4:	d202      	bcs.n	4026dc <Reset_Handler+0x48>
  4026d6:	f843 1b04 	str.w	r1, [r3], #4
  4026da:	e7fa      	b.n	4026d2 <Reset_Handler+0x3e>
  4026dc:	4b08      	ldr	r3, [pc, #32]	; (402700 <Reset_Handler+0x6c>)
  4026de:	4a09      	ldr	r2, [pc, #36]	; (402704 <Reset_Handler+0x70>)
  4026e0:	609a      	str	r2, [r3, #8]
  4026e2:	f000 fd11 	bl	403108 <__libc_init_array>
  4026e6:	f000 fc43 	bl	402f70 <main>
  4026ea:	e7fe      	b.n	4026ea <Reset_Handler+0x56>
  4026ec:	00403b2c 	.word	0x00403b2c
  4026f0:	20000000 	.word	0x20000000
  4026f4:	20000204 	.word	0x20000204
  4026f8:	20000204 	.word	0x20000204
  4026fc:	20000590 	.word	0x20000590
  402700:	e000ed00 	.word	0xe000ed00
  402704:	00400000 	.word	0x00400000

00402708 <SystemCoreClockUpdate>:
  402708:	b510      	push	{r4, lr}
  40270a:	4a2c      	ldr	r2, [pc, #176]	; (4027bc <SystemCoreClockUpdate+0xb4>)
  40270c:	6b13      	ldr	r3, [r2, #48]	; 0x30
  40270e:	f003 0303 	and.w	r3, r3, #3
  402712:	2b01      	cmp	r3, #1
  402714:	4b2a      	ldr	r3, [pc, #168]	; (4027c0 <SystemCoreClockUpdate+0xb8>)
  402716:	d00d      	beq.n	402734 <SystemCoreClockUpdate+0x2c>
  402718:	d303      	bcc.n	402722 <SystemCoreClockUpdate+0x1a>
  40271a:	6a11      	ldr	r1, [r2, #32]
  40271c:	01cc      	lsls	r4, r1, #7
  40271e:	d51a      	bpl.n	402756 <SystemCoreClockUpdate+0x4e>
  402720:	e025      	b.n	40276e <SystemCoreClockUpdate+0x66>
  402722:	4928      	ldr	r1, [pc, #160]	; (4027c4 <SystemCoreClockUpdate+0xbc>)
  402724:	6949      	ldr	r1, [r1, #20]
  402726:	0608      	lsls	r0, r1, #24
  402728:	bf4c      	ite	mi
  40272a:	f44f 4100 	movmi.w	r1, #32768	; 0x8000
  40272e:	f44f 41fa 	movpl.w	r1, #32000	; 0x7d00
  402732:	e030      	b.n	402796 <SystemCoreClockUpdate+0x8e>
  402734:	6a11      	ldr	r1, [r2, #32]
  402736:	01c9      	lsls	r1, r1, #7
  402738:	d40b      	bmi.n	402752 <SystemCoreClockUpdate+0x4a>
  40273a:	4923      	ldr	r1, [pc, #140]	; (4027c8 <SystemCoreClockUpdate+0xc0>)
  40273c:	6019      	str	r1, [r3, #0]
  40273e:	6a11      	ldr	r1, [r2, #32]
  402740:	f001 0170 	and.w	r1, r1, #112	; 0x70
  402744:	2910      	cmp	r1, #16
  402746:	d002      	beq.n	40274e <SystemCoreClockUpdate+0x46>
  402748:	2920      	cmp	r1, #32
  40274a:	d002      	beq.n	402752 <SystemCoreClockUpdate+0x4a>
  40274c:	e024      	b.n	402798 <SystemCoreClockUpdate+0x90>
  40274e:	491f      	ldr	r1, [pc, #124]	; (4027cc <SystemCoreClockUpdate+0xc4>)
  402750:	e021      	b.n	402796 <SystemCoreClockUpdate+0x8e>
  402752:	491f      	ldr	r1, [pc, #124]	; (4027d0 <SystemCoreClockUpdate+0xc8>)
  402754:	e01f      	b.n	402796 <SystemCoreClockUpdate+0x8e>
  402756:	491c      	ldr	r1, [pc, #112]	; (4027c8 <SystemCoreClockUpdate+0xc0>)
  402758:	6019      	str	r1, [r3, #0]
  40275a:	6a11      	ldr	r1, [r2, #32]
  40275c:	f001 0170 	and.w	r1, r1, #112	; 0x70
  402760:	2910      	cmp	r1, #16
  402762:	d002      	beq.n	40276a <SystemCoreClockUpdate+0x62>
  402764:	2920      	cmp	r1, #32
  402766:	d002      	beq.n	40276e <SystemCoreClockUpdate+0x66>
  402768:	e003      	b.n	402772 <SystemCoreClockUpdate+0x6a>
  40276a:	4918      	ldr	r1, [pc, #96]	; (4027cc <SystemCoreClockUpdate+0xc4>)
  40276c:	e000      	b.n	402770 <SystemCoreClockUpdate+0x68>
  40276e:	4918      	ldr	r1, [pc, #96]	; (4027d0 <SystemCoreClockUpdate+0xc8>)
  402770:	6019      	str	r1, [r3, #0]
  402772:	6b11      	ldr	r1, [r2, #48]	; 0x30
  402774:	4811      	ldr	r0, [pc, #68]	; (4027bc <SystemCoreClockUpdate+0xb4>)
  402776:	f001 0103 	and.w	r1, r1, #3
  40277a:	2902      	cmp	r1, #2
  40277c:	bf0b      	itete	eq
  40277e:	6a81      	ldreq	r1, [r0, #40]	; 0x28
  402780:	6ac1      	ldrne	r1, [r0, #44]	; 0x2c
  402782:	6a80      	ldreq	r0, [r0, #40]	; 0x28
  402784:	6ac0      	ldrne	r0, [r0, #44]	; 0x2c
  402786:	f3c1 440a 	ubfx	r4, r1, #16, #11
  40278a:	6819      	ldr	r1, [r3, #0]
  40278c:	b2c0      	uxtb	r0, r0
  40278e:	fb04 1101 	mla	r1, r4, r1, r1
  402792:	fbb1 f1f0 	udiv	r1, r1, r0
  402796:	6019      	str	r1, [r3, #0]
  402798:	6b12      	ldr	r2, [r2, #48]	; 0x30
  40279a:	f002 0270 	and.w	r2, r2, #112	; 0x70
  40279e:	2a70      	cmp	r2, #112	; 0x70
  4027a0:	bf17      	itett	ne
  4027a2:	4a06      	ldrne	r2, [pc, #24]	; (4027bc <SystemCoreClockUpdate+0xb4>)
  4027a4:	681a      	ldreq	r2, [r3, #0]
  4027a6:	6b12      	ldrne	r2, [r2, #48]	; 0x30
  4027a8:	f3c2 1102 	ubfxne	r1, r2, #4, #3
  4027ac:	bf19      	ittee	ne
  4027ae:	681a      	ldrne	r2, [r3, #0]
  4027b0:	40ca      	lsrne	r2, r1
  4027b2:	2103      	moveq	r1, #3
  4027b4:	fbb2 f2f1 	udiveq	r2, r2, r1
  4027b8:	601a      	str	r2, [r3, #0]
  4027ba:	bd10      	pop	{r4, pc}
  4027bc:	400e0400 	.word	0x400e0400
  4027c0:	20000158 	.word	0x20000158
  4027c4:	400e1410 	.word	0x400e1410
  4027c8:	003d0900 	.word	0x003d0900
  4027cc:	007a1200 	.word	0x007a1200
  4027d0:	00b71b00 	.word	0x00b71b00

004027d4 <system_init_flash>:
  4027d4:	4b0c      	ldr	r3, [pc, #48]	; (402808 <system_init_flash+0x34>)
  4027d6:	4298      	cmp	r0, r3
  4027d8:	4b0c      	ldr	r3, [pc, #48]	; (40280c <system_init_flash+0x38>)
  4027da:	d802      	bhi.n	4027e2 <system_init_flash+0xe>
  4027dc:	f04f 6280 	mov.w	r2, #67108864	; 0x4000000
  4027e0:	e00f      	b.n	402802 <system_init_flash+0x2e>
  4027e2:	4a0b      	ldr	r2, [pc, #44]	; (402810 <system_init_flash+0x3c>)
  4027e4:	4290      	cmp	r0, r2
  4027e6:	d801      	bhi.n	4027ec <system_init_flash+0x18>
  4027e8:	4a0a      	ldr	r2, [pc, #40]	; (402814 <system_init_flash+0x40>)
  4027ea:	e00a      	b.n	402802 <system_init_flash+0x2e>
  4027ec:	4a0a      	ldr	r2, [pc, #40]	; (402818 <system_init_flash+0x44>)
  4027ee:	4290      	cmp	r0, r2
  4027f0:	d801      	bhi.n	4027f6 <system_init_flash+0x22>
  4027f2:	4a0a      	ldr	r2, [pc, #40]	; (40281c <system_init_flash+0x48>)
  4027f4:	e005      	b.n	402802 <system_init_flash+0x2e>
  4027f6:	4a0a      	ldr	r2, [pc, #40]	; (402820 <system_init_flash+0x4c>)
  4027f8:	4290      	cmp	r0, r2
  4027fa:	bf8c      	ite	hi
  4027fc:	4a09      	ldrhi	r2, [pc, #36]	; (402824 <system_init_flash+0x50>)
  4027fe:	f04f 2204 	movls.w	r2, #67109888	; 0x4000400
  402802:	601a      	str	r2, [r3, #0]
  402804:	4770      	bx	lr
  402806:	bf00      	nop
  402808:	01ba813f 	.word	0x01ba813f
  40280c:	400e0a00 	.word	0x400e0a00
  402810:	0375027f 	.word	0x0375027f
  402814:	04000100 	.word	0x04000100
  402818:	053ec5ff 	.word	0x053ec5ff
  40281c:	04000200 	.word	0x04000200
  402820:	07270dff 	.word	0x07270dff
  402824:	04000500 	.word	0x04000500

00402828 <_sbrk>:
  402828:	4b07      	ldr	r3, [pc, #28]	; (402848 <_sbrk+0x20>)
  40282a:	681a      	ldr	r2, [r3, #0]
  40282c:	b90a      	cbnz	r2, 402832 <_sbrk+0xa>
  40282e:	4a07      	ldr	r2, [pc, #28]	; (40284c <_sbrk+0x24>)
  402830:	601a      	str	r2, [r3, #0]
  402832:	681b      	ldr	r3, [r3, #0]
  402834:	4a06      	ldr	r2, [pc, #24]	; (402850 <_sbrk+0x28>)
  402836:	4418      	add	r0, r3
  402838:	4282      	cmp	r2, r0
  40283a:	bfa3      	ittte	ge
  40283c:	4a02      	ldrge	r2, [pc, #8]	; (402848 <_sbrk+0x20>)
  40283e:	6010      	strge	r0, [r2, #0]
  402840:	4618      	movge	r0, r3
  402842:	f04f 30ff 	movlt.w	r0, #4294967295
  402846:	4770      	bx	lr
  402848:	20000540 	.word	0x20000540
  40284c:	20001590 	.word	0x20001590
  402850:	2000fffc 	.word	0x2000fffc

00402854 <sleepmgr_unlock_mode>:
  402854:	b510      	push	{r4, lr}
  402856:	4a0b      	ldr	r2, [pc, #44]	; (402884 <sleepmgr_unlock_mode+0x30>)
  402858:	5c13      	ldrb	r3, [r2, r0]
  40285a:	b903      	cbnz	r3, 40285e <sleepmgr_unlock_mode+0xa>
  40285c:	e7fe      	b.n	40285c <sleepmgr_unlock_mode+0x8>
  40285e:	f3ef 8310 	mrs	r3, PRIMASK
  402862:	b672      	cpsid	i
  402864:	f3bf 8f5f 	dmb	sy
  402868:	4c07      	ldr	r4, [pc, #28]	; (402888 <sleepmgr_unlock_mode+0x34>)
  40286a:	2100      	movs	r1, #0
  40286c:	7021      	strb	r1, [r4, #0]
  40286e:	5c11      	ldrb	r1, [r2, r0]
  402870:	3901      	subs	r1, #1
  402872:	5411      	strb	r1, [r2, r0]
  402874:	b923      	cbnz	r3, 402880 <sleepmgr_unlock_mode+0x2c>
  402876:	2301      	movs	r3, #1
  402878:	7023      	strb	r3, [r4, #0]
  40287a:	f3bf 8f5f 	dmb	sy
  40287e:	b662      	cpsie	i
  402880:	bd10      	pop	{r4, pc}
  402882:	bf00      	nop
  402884:	20000558 	.word	0x20000558
  402888:	20000154 	.word	0x20000154

0040288c <sleepmgr_lock_mode>:
  40288c:	b510      	push	{r4, lr}
  40288e:	4a0b      	ldr	r2, [pc, #44]	; (4028bc <sleepmgr_lock_mode+0x30>)
  402890:	5c13      	ldrb	r3, [r2, r0]
  402892:	2bff      	cmp	r3, #255	; 0xff
  402894:	d100      	bne.n	402898 <sleepmgr_lock_mode+0xc>
  402896:	e7fe      	b.n	402896 <sleepmgr_lock_mode+0xa>
  402898:	f3ef 8310 	mrs	r3, PRIMASK
  40289c:	b672      	cpsid	i
  40289e:	f3bf 8f5f 	dmb	sy
  4028a2:	4c07      	ldr	r4, [pc, #28]	; (4028c0 <sleepmgr_lock_mode+0x34>)
  4028a4:	2100      	movs	r1, #0
  4028a6:	7021      	strb	r1, [r4, #0]
  4028a8:	5c11      	ldrb	r1, [r2, r0]
  4028aa:	3101      	adds	r1, #1
  4028ac:	5411      	strb	r1, [r2, r0]
  4028ae:	b923      	cbnz	r3, 4028ba <sleepmgr_lock_mode+0x2e>
  4028b0:	2301      	movs	r3, #1
  4028b2:	7023      	strb	r3, [r4, #0]
  4028b4:	f3bf 8f5f 	dmb	sy
  4028b8:	b662      	cpsie	i
  4028ba:	bd10      	pop	{r4, pc}
  4028bc:	20000558 	.word	0x20000558
  4028c0:	20000154 	.word	0x20000154

004028c4 <stop>:
  4028c4:	4b0f      	ldr	r3, [pc, #60]	; (402904 <stop+0x40>)
  4028c6:	4810      	ldr	r0, [pc, #64]	; (402908 <stop+0x44>)
  4028c8:	2204      	movs	r2, #4
  4028ca:	b510      	push	{r4, lr}
  4028cc:	601a      	str	r2, [r3, #0]
  4028ce:	4b0f      	ldr	r3, [pc, #60]	; (40290c <stop+0x48>)
  4028d0:	2201      	movs	r2, #1
  4028d2:	701a      	strb	r2, [r3, #0]
  4028d4:	4b0e      	ldr	r3, [pc, #56]	; (402910 <stop+0x4c>)
  4028d6:	2400      	movs	r4, #0
  4028d8:	701c      	strb	r4, [r3, #0]
  4028da:	4b0e      	ldr	r3, [pc, #56]	; (402914 <stop+0x50>)
  4028dc:	801c      	strh	r4, [r3, #0]
  4028de:	4b0e      	ldr	r3, [pc, #56]	; (402918 <stop+0x54>)
  4028e0:	701c      	strb	r4, [r3, #0]
  4028e2:	4b0e      	ldr	r3, [pc, #56]	; (40291c <stop+0x58>)
  4028e4:	f44f 0280 	mov.w	r2, #4194304	; 0x400000
  4028e8:	635a      	str	r2, [r3, #52]	; 0x34
  4028ea:	f44f 5100 	mov.w	r1, #8192	; 0x2000
  4028ee:	4623      	mov	r3, r4
  4028f0:	4622      	mov	r2, r4
  4028f2:	f7fd ff78 	bl	4007e6 <spi_write>
  4028f6:	4621      	mov	r1, r4
  4028f8:	4809      	ldr	r0, [pc, #36]	; (402920 <stop+0x5c>)
  4028fa:	e8bd 4010 	ldmia.w	sp!, {r4, lr}
  4028fe:	f7fd bfec 	b.w	4008da <tc_start>
  402902:	bf00      	nop
  402904:	e000e010 	.word	0xe000e010
  402908:	40008000 	.word	0x40008000
  40290c:	20000546 	.word	0x20000546
  402910:	20000545 	.word	0x20000545
  402914:	2000054c 	.word	0x2000054c
  402918:	20000544 	.word	0x20000544
  40291c:	400e0e00 	.word	0x400e0e00
  402920:	40010000 	.word	0x40010000

00402924 <TC0_Handler>:
  402924:	b510      	push	{r4, lr}
  402926:	2100      	movs	r1, #0
  402928:	481f      	ldr	r0, [pc, #124]	; (4029a8 <TC0_Handler+0x84>)
  40292a:	f7fd ffe6 	bl	4008fa <tc_get_status>
  40292e:	2100      	movs	r1, #0
  402930:	481d      	ldr	r0, [pc, #116]	; (4029a8 <TC0_Handler+0x84>)
  402932:	f7fd ffd6 	bl	4008e2 <tc_stop>
  402936:	4b1d      	ldr	r3, [pc, #116]	; (4029ac <TC0_Handler+0x88>)
  402938:	481d      	ldr	r0, [pc, #116]	; (4029b0 <TC0_Handler+0x8c>)
  40293a:	2400      	movs	r4, #0
  40293c:	701c      	strb	r4, [r3, #0]
  40293e:	4b1d      	ldr	r3, [pc, #116]	; (4029b4 <TC0_Handler+0x90>)
  402940:	801c      	strh	r4, [r3, #0]
  402942:	4b1d      	ldr	r3, [pc, #116]	; (4029b8 <TC0_Handler+0x94>)
  402944:	701c      	strb	r4, [r3, #0]
  402946:	4b1d      	ldr	r3, [pc, #116]	; (4029bc <TC0_Handler+0x98>)
  402948:	f44f 0280 	mov.w	r2, #4194304	; 0x400000
  40294c:	635a      	str	r2, [r3, #52]	; 0x34
  40294e:	f7ff fb38 	bl	401fc2 <dacc_get_interrupt_status>
  402952:	07c2      	lsls	r2, r0, #31
  402954:	d508      	bpl.n	402968 <TC0_Handler+0x44>
  402956:	4621      	mov	r1, r4
  402958:	4815      	ldr	r0, [pc, #84]	; (4029b0 <TC0_Handler+0x8c>)
  40295a:	f7ff fb36 	bl	401fca <dacc_set_channel_selection>
  40295e:	f44f 6100 	mov.w	r1, #2048	; 0x800
  402962:	4813      	ldr	r0, [pc, #76]	; (4029b0 <TC0_Handler+0x8c>)
  402964:	f7ff fb2f 	bl	401fc6 <dacc_write_conversion_data>
  402968:	4811      	ldr	r0, [pc, #68]	; (4029b0 <TC0_Handler+0x8c>)
  40296a:	f7ff fb2a 	bl	401fc2 <dacc_get_interrupt_status>
  40296e:	07c3      	lsls	r3, r0, #31
  402970:	d508      	bpl.n	402984 <TC0_Handler+0x60>
  402972:	2101      	movs	r1, #1
  402974:	480e      	ldr	r0, [pc, #56]	; (4029b0 <TC0_Handler+0x8c>)
  402976:	f7ff fb28 	bl	401fca <dacc_set_channel_selection>
  40297a:	f44f 6100 	mov.w	r1, #2048	; 0x800
  40297e:	480c      	ldr	r0, [pc, #48]	; (4029b0 <TC0_Handler+0x8c>)
  402980:	f7ff fb21 	bl	401fc6 <dacc_write_conversion_data>
  402984:	2300      	movs	r3, #0
  402986:	461a      	mov	r2, r3
  402988:	f44f 5100 	mov.w	r1, #8192	; 0x2000
  40298c:	480c      	ldr	r0, [pc, #48]	; (4029c0 <TC0_Handler+0x9c>)
  40298e:	f7fd ff2a 	bl	4007e6 <spi_write>
  402992:	4b0c      	ldr	r3, [pc, #48]	; (4029c4 <TC0_Handler+0xa0>)
  402994:	2200      	movs	r2, #0
  402996:	701a      	strb	r2, [r3, #0]
  402998:	4b0b      	ldr	r3, [pc, #44]	; (4029c8 <TC0_Handler+0xa4>)
  40299a:	4a0c      	ldr	r2, [pc, #48]	; (4029cc <TC0_Handler+0xa8>)
  40299c:	6818      	ldr	r0, [r3, #0]
  40299e:	2120      	movs	r1, #32
  4029a0:	e8bd 4010 	ldmia.w	sp!, {r4, lr}
  4029a4:	f7fd bbef 	b.w	400186 <udi_vendor_interrupt_out_run>
  4029a8:	40010000 	.word	0x40010000
  4029ac:	20000545 	.word	0x20000545
  4029b0:	4003c000 	.word	0x4003c000
  4029b4:	2000054c 	.word	0x2000054c
  4029b8:	20000544 	.word	0x20000544
  4029bc:	400e0e00 	.word	0x400e0e00
  4029c0:	40008000 	.word	0x40008000
  4029c4:	20000546 	.word	0x20000546
  4029c8:	20000580 	.word	0x20000580
  4029cc:	00402b31 	.word	0x00402b31

004029d0 <speed_set>:
  4029d0:	f5b0 3f80 	cmp.w	r0, #65536	; 0x10000
  4029d4:	d203      	bcs.n	4029de <speed_set+0xe>
  4029d6:	2806      	cmp	r0, #6
  4029d8:	bf98      	it	ls
  4029da:	2007      	movls	r0, #7
  4029dc:	e001      	b.n	4029e2 <speed_set+0x12>
  4029de:	f64f 70ff 	movw	r0, #65535	; 0xffff
  4029e2:	4b08      	ldr	r3, [pc, #32]	; (402a04 <speed_set+0x34>)
  4029e4:	4a08      	ldr	r2, [pc, #32]	; (402a08 <speed_set+0x38>)
  4029e6:	6018      	str	r0, [r3, #0]
  4029e8:	4b08      	ldr	r3, [pc, #32]	; (402a0c <speed_set+0x3c>)
  4029ea:	fbb3 f0f0 	udiv	r0, r3, r0
  4029ee:	4b08      	ldr	r3, [pc, #32]	; (402a10 <speed_set+0x40>)
  4029f0:	21f0      	movs	r1, #240	; 0xf0
  4029f2:	6058      	str	r0, [r3, #4]
  4029f4:	f882 1023 	strb.w	r1, [r2, #35]	; 0x23
  4029f8:	2200      	movs	r2, #0
  4029fa:	609a      	str	r2, [r3, #8]
  4029fc:	2207      	movs	r2, #7
  4029fe:	601a      	str	r2, [r3, #0]
  402a00:	4770      	bx	lr
  402a02:	bf00      	nop
  402a04:	2000019c 	.word	0x2000019c
  402a08:	e000ed00 	.word	0xe000ed00
  402a0c:	06acfc00 	.word	0x06acfc00
  402a10:	e000e010 	.word	0xe000e010

00402a14 <usb_bulk_out_callback>:
  402a14:	e92d 41f0 	stmdb	sp!, {r4, r5, r6, r7, r8, lr}
  402a18:	2800      	cmp	r0, #0
  402a1a:	d145      	bne.n	402aa8 <usb_bulk_out_callback+0x94>
  402a1c:	f247 0305 	movw	r3, #28677	; 0x7005
  402a20:	4299      	cmp	r1, r3
  402a22:	d841      	bhi.n	402aa8 <usb_bulk_out_callback+0x94>
  402a24:	4b21      	ldr	r3, [pc, #132]	; (402aac <usb_bulk_out_callback+0x98>)
  402a26:	781b      	ldrb	r3, [r3, #0]
  402a28:	2b00      	cmp	r3, #0
  402a2a:	d13d      	bne.n	402aa8 <usb_bulk_out_callback+0x94>
  402a2c:	4d20      	ldr	r5, [pc, #128]	; (402ab0 <usb_bulk_out_callback+0x9c>)
  402a2e:	3905      	subs	r1, #5
  402a30:	682a      	ldr	r2, [r5, #0]
  402a32:	b28c      	uxth	r4, r1
  402a34:	4422      	add	r2, r4
  402a36:	46a8      	mov	r8, r5
  402a38:	78d1      	ldrb	r1, [r2, #3]
  402a3a:	7893      	ldrb	r3, [r2, #2]
  402a3c:	ea43 2301 	orr.w	r3, r3, r1, lsl #8
  402a40:	ebc3 03c3 	rsb	r3, r3, r3, lsl #3
  402a44:	b29b      	uxth	r3, r3
  402a46:	429c      	cmp	r4, r3
  402a48:	d12e      	bne.n	402aa8 <usb_bulk_out_callback+0x94>
  402a4a:	f7ff fdf3 	bl	402634 <cpu_irq_enter_critical>
  402a4e:	682b      	ldr	r3, [r5, #0]
  402a50:	4818      	ldr	r0, [pc, #96]	; (402ab4 <usb_bulk_out_callback+0xa0>)
  402a52:	4d19      	ldr	r5, [pc, #100]	; (402ab8 <usb_bulk_out_callback+0xa4>)
  402a54:	1919      	adds	r1, r3, r4
  402a56:	790a      	ldrb	r2, [r1, #4]
  402a58:	f3c2 0640 	ubfx	r6, r2, #1, #1
  402a5c:	7006      	strb	r6, [r0, #0]
  402a5e:	7848      	ldrb	r0, [r1, #1]
  402a60:	5d19      	ldrb	r1, [r3, r4]
  402a62:	ea41 2000 	orr.w	r0, r1, r0, lsl #8
  402a66:	4915      	ldr	r1, [pc, #84]	; (402abc <usb_bulk_out_callback+0xa8>)
  402a68:	6008      	str	r0, [r1, #0]
  402a6a:	4915      	ldr	r1, [pc, #84]	; (402ac0 <usb_bulk_out_callback+0xac>)
  402a6c:	780f      	ldrb	r7, [r1, #0]
  402a6e:	b10f      	cbz	r7, 402a74 <usb_bulk_out_callback+0x60>
  402a70:	07d2      	lsls	r2, r2, #31
  402a72:	d511      	bpl.n	402a98 <usb_bulk_out_callback+0x84>
  402a74:	4a13      	ldr	r2, [pc, #76]	; (402ac4 <usb_bulk_out_callback+0xb0>)
  402a76:	6817      	ldr	r7, [r2, #0]
  402a78:	6013      	str	r3, [r2, #0]
  402a7a:	4a13      	ldr	r2, [pc, #76]	; (402ac8 <usb_bulk_out_callback+0xb4>)
  402a7c:	f8c8 7000 	str.w	r7, [r8]
  402a80:	2300      	movs	r3, #0
  402a82:	8013      	strh	r3, [r2, #0]
  402a84:	702b      	strb	r3, [r5, #0]
  402a86:	2301      	movs	r3, #1
  402a88:	4a10      	ldr	r2, [pc, #64]	; (402acc <usb_bulk_out_callback+0xb8>)
  402a8a:	700b      	strb	r3, [r1, #0]
  402a8c:	4b10      	ldr	r3, [pc, #64]	; (402ad0 <usb_bulk_out_callback+0xbc>)
  402a8e:	8014      	strh	r4, [r2, #0]
  402a90:	701e      	strb	r6, [r3, #0]
  402a92:	f7ff ff9d 	bl	4029d0 <speed_set>
  402a96:	e003      	b.n	402aa0 <usb_bulk_out_callback+0x8c>
  402a98:	4b0e      	ldr	r3, [pc, #56]	; (402ad4 <usb_bulk_out_callback+0xc0>)
  402a9a:	801c      	strh	r4, [r3, #0]
  402a9c:	2301      	movs	r3, #1
  402a9e:	702b      	strb	r3, [r5, #0]
  402aa0:	e8bd 41f0 	ldmia.w	sp!, {r4, r5, r6, r7, r8, lr}
  402aa4:	f7ff bdde 	b.w	402664 <cpu_irq_leave_critical>
  402aa8:	e8bd 81f0 	ldmia.w	sp!, {r4, r5, r6, r7, r8, pc}
  402aac:	20000546 	.word	0x20000546
  402ab0:	2000057c 	.word	0x2000057c
  402ab4:	20000199 	.word	0x20000199
  402ab8:	20000544 	.word	0x20000544
  402abc:	2000019c 	.word	0x2000019c
  402ac0:	20000545 	.word	0x20000545
  402ac4:	20000584 	.word	0x20000584
  402ac8:	2000054c 	.word	0x2000054c
  402acc:	2000054a 	.word	0x2000054a
  402ad0:	20000198 	.word	0x20000198
  402ad4:	20000548 	.word	0x20000548

00402ad8 <callback_vendor_enable>:
  402ad8:	b508      	push	{r3, lr}
  402ada:	f7ff fef3 	bl	4028c4 <stop>
  402ade:	2003      	movs	r0, #3
  402ae0:	f7ff feb8 	bl	402854 <sleepmgr_unlock_mode>
  402ae4:	2000      	movs	r0, #0
  402ae6:	f7ff fed1 	bl	40288c <sleepmgr_lock_mode>
  402aea:	4b04      	ldr	r3, [pc, #16]	; (402afc <callback_vendor_enable+0x24>)
  402aec:	4a04      	ldr	r2, [pc, #16]	; (402b00 <callback_vendor_enable+0x28>)
  402aee:	6818      	ldr	r0, [r3, #0]
  402af0:	2120      	movs	r1, #32
  402af2:	f7fd fb48 	bl	400186 <udi_vendor_interrupt_out_run>
  402af6:	2001      	movs	r0, #1
  402af8:	bd08      	pop	{r3, pc}
  402afa:	bf00      	nop
  402afc:	20000580 	.word	0x20000580
  402b00:	00402b31 	.word	0x00402b31

00402b04 <callback_vendor_disable>:
  402b04:	b508      	push	{r3, lr}
  402b06:	f7ff fedd 	bl	4028c4 <stop>
  402b0a:	2000      	movs	r0, #0
  402b0c:	f7ff fea2 	bl	402854 <sleepmgr_unlock_mode>
  402b10:	2003      	movs	r0, #3
  402b12:	e8bd 4008 	ldmia.w	sp!, {r3, lr}
  402b16:	f7ff beb9 	b.w	40288c <sleepmgr_lock_mode>
	...

00402b1c <shutter_set>:
  402b1c:	4b03      	ldr	r3, [pc, #12]	; (402b2c <shutter_set+0x10>)
  402b1e:	f44f 1280 	mov.w	r2, #1048576	; 0x100000
  402b22:	b108      	cbz	r0, 402b28 <shutter_set+0xc>
  402b24:	631a      	str	r2, [r3, #48]	; 0x30
  402b26:	4770      	bx	lr
  402b28:	635a      	str	r2, [r3, #52]	; 0x34
  402b2a:	4770      	bx	lr
  402b2c:	400e0e00 	.word	0x400e0e00

00402b30 <usb_interrupt_out_callback>:
  402b30:	b570      	push	{r4, r5, r6, lr}
  402b32:	4604      	mov	r4, r0
  402b34:	b0a8      	sub	sp, #160	; 0xa0
  402b36:	4d37      	ldr	r5, [pc, #220]	; (402c14 <usb_interrupt_out_callback+0xe4>)
  402b38:	2800      	cmp	r0, #0
  402b3a:	d164      	bne.n	402c06 <usb_interrupt_out_callback+0xd6>
  402b3c:	682a      	ldr	r2, [r5, #0]
  402b3e:	7813      	ldrb	r3, [r2, #0]
  402b40:	2b01      	cmp	r3, #1
  402b42:	d102      	bne.n	402b4a <usb_interrupt_out_callback+0x1a>
  402b44:	f7ff febe 	bl	4028c4 <stop>
  402b48:	e05d      	b.n	402c06 <usb_interrupt_out_callback+0xd6>
  402b4a:	2b02      	cmp	r3, #2
  402b4c:	d106      	bne.n	402b5c <usb_interrupt_out_callback+0x2c>
  402b4e:	7850      	ldrb	r0, [r2, #1]
  402b50:	3000      	adds	r0, #0
  402b52:	bf18      	it	ne
  402b54:	2001      	movne	r0, #1
  402b56:	f7ff ffe1 	bl	402b1c <shutter_set>
  402b5a:	e054      	b.n	402c06 <usb_interrupt_out_callback+0xd6>
  402b5c:	2b03      	cmp	r3, #3
  402b5e:	d114      	bne.n	402b8a <usb_interrupt_out_callback+0x5a>
  402b60:	2383      	movs	r3, #131	; 0x83
  402b62:	f88d 3020 	strb.w	r3, [sp, #32]
  402b66:	4b2c      	ldr	r3, [pc, #176]	; (402c18 <usb_interrupt_out_callback+0xe8>)
  402b68:	f88d 0021 	strb.w	r0, [sp, #33]	; 0x21
  402b6c:	781b      	ldrb	r3, [r3, #0]
  402b6e:	b94b      	cbnz	r3, 402b84 <usb_interrupt_out_callback+0x54>
  402b70:	4b2a      	ldr	r3, [pc, #168]	; (402c1c <usb_interrupt_out_callback+0xec>)
  402b72:	4a2b      	ldr	r2, [pc, #172]	; (402c20 <usb_interrupt_out_callback+0xf0>)
  402b74:	6818      	ldr	r0, [r3, #0]
  402b76:	f247 0105 	movw	r1, #28677	; 0x7005
  402b7a:	f7fd fb0f 	bl	40019c <udi_vendor_bulk_out_run>
  402b7e:	2301      	movs	r3, #1
  402b80:	f88d 3021 	strb.w	r3, [sp, #33]	; 0x21
  402b84:	2200      	movs	r2, #0
  402b86:	2102      	movs	r1, #2
  402b88:	e009      	b.n	402b9e <usb_interrupt_out_callback+0x6e>
  402b8a:	2b04      	cmp	r3, #4
  402b8c:	d10b      	bne.n	402ba6 <usb_interrupt_out_callback+0x76>
  402b8e:	4b25      	ldr	r3, [pc, #148]	; (402c24 <usb_interrupt_out_callback+0xf4>)
  402b90:	6818      	ldr	r0, [r3, #0]
  402b92:	791b      	ldrb	r3, [r3, #4]
  402b94:	9008      	str	r0, [sp, #32]
  402b96:	f88d 3024 	strb.w	r3, [sp, #36]	; 0x24
  402b9a:	4622      	mov	r2, r4
  402b9c:	2105      	movs	r1, #5
  402b9e:	a808      	add	r0, sp, #32
  402ba0:	f7fd fae6 	bl	400170 <udi_vendor_interrupt_in_run>
  402ba4:	e02f      	b.n	402c06 <usb_interrupt_out_callback+0xd6>
  402ba6:	2b05      	cmp	r3, #5
  402ba8:	d114      	bne.n	402bd4 <usb_interrupt_out_callback+0xa4>
  402baa:	ae08      	add	r6, sp, #32
  402bac:	2385      	movs	r3, #133	; 0x85
  402bae:	2120      	movs	r1, #32
  402bb0:	4630      	mov	r0, r6
  402bb2:	f88d 3000 	strb.w	r3, [sp]
  402bb6:	f7ff f94d 	bl	401e54 <flash_read_user_signature>
  402bba:	f856 3024 	ldr.w	r3, [r6, r4, lsl #2]
  402bbe:	eb0d 0204 	add.w	r2, sp, r4
  402bc2:	7053      	strb	r3, [r2, #1]
  402bc4:	b113      	cbz	r3, 402bcc <usb_interrupt_out_callback+0x9c>
  402bc6:	3401      	adds	r4, #1
  402bc8:	2c1f      	cmp	r4, #31
  402bca:	d1f6      	bne.n	402bba <usb_interrupt_out_callback+0x8a>
  402bcc:	2200      	movs	r2, #0
  402bce:	2120      	movs	r1, #32
  402bd0:	4668      	mov	r0, sp
  402bd2:	e7e5      	b.n	402ba0 <usb_interrupt_out_callback+0x70>
  402bd4:	2b06      	cmp	r3, #6
  402bd6:	d10e      	bne.n	402bf6 <usb_interrupt_out_callback+0xc6>
  402bd8:	ae08      	add	r6, sp, #32
  402bda:	f812 3f01 	ldrb.w	r3, [r2, #1]!
  402bde:	f846 3024 	str.w	r3, [r6, r4, lsl #2]
  402be2:	3401      	adds	r4, #1
  402be4:	2c1f      	cmp	r4, #31
  402be6:	d1f7      	bne.n	402bd8 <usb_interrupt_out_callback+0xa8>
  402be8:	f7ff f970 	bl	401ecc <flash_erase_user_signature>
  402bec:	2120      	movs	r1, #32
  402bee:	4630      	mov	r0, r6
  402bf0:	f7ff f944 	bl	401e7c <flash_write_user_signature>
  402bf4:	e007      	b.n	402c06 <usb_interrupt_out_callback+0xd6>
  402bf6:	2bde      	cmp	r3, #222	; 0xde
  402bf8:	d105      	bne.n	402c06 <usb_interrupt_out_callback+0xd6>
  402bfa:	f7ff fe63 	bl	4028c4 <stop>
  402bfe:	2001      	movs	r0, #1
  402c00:	f7ff f8f2 	bl	401de8 <flash_clear_gpnvm>
  402c04:	e7fe      	b.n	402c04 <usb_interrupt_out_callback+0xd4>
  402c06:	4a08      	ldr	r2, [pc, #32]	; (402c28 <usb_interrupt_out_callback+0xf8>)
  402c08:	6828      	ldr	r0, [r5, #0]
  402c0a:	2120      	movs	r1, #32
  402c0c:	f7fd fabb 	bl	400186 <udi_vendor_interrupt_out_run>
  402c10:	b028      	add	sp, #160	; 0xa0
  402c12:	bd70      	pop	{r4, r5, r6, pc}
  402c14:	20000580 	.word	0x20000580
  402c18:	20000544 	.word	0x20000544
  402c1c:	2000057c 	.word	0x2000057c
  402c20:	00402a15 	.word	0x00402a15
  402c24:	00403a26 	.word	0x00403a26
  402c28:	00402b31 	.word	0x00402b31

00402c2c <statusled_set>:
  402c2c:	4b03      	ldr	r3, [pc, #12]	; (402c3c <statusled_set+0x10>)
  402c2e:	f44f 0280 	mov.w	r2, #4194304	; 0x400000
  402c32:	b108      	cbz	r0, 402c38 <statusled_set+0xc>
  402c34:	631a      	str	r2, [r3, #48]	; 0x30
  402c36:	4770      	bx	lr
  402c38:	635a      	str	r2, [r3, #52]	; 0x34
  402c3a:	4770      	bx	lr
  402c3c:	400e0e00 	.word	0x400e0e00

00402c40 <point_output>:
  402c40:	b570      	push	{r4, r5, r6, lr}
  402c42:	4b2a      	ldr	r3, [pc, #168]	; (402cec <point_output+0xac>)
  402c44:	482a      	ldr	r0, [pc, #168]	; (402cf0 <point_output+0xb0>)
  402c46:	881d      	ldrh	r5, [r3, #0]
  402c48:	4b2a      	ldr	r3, [pc, #168]	; (402cf4 <point_output+0xb4>)
  402c4a:	681e      	ldr	r6, [r3, #0]
  402c4c:	f7ff f9b9 	bl	401fc2 <dacc_get_interrupt_status>
  402c50:	07c2      	lsls	r2, r0, #31
  402c52:	eb06 0405 	add.w	r4, r6, r5
  402c56:	d50b      	bpl.n	402c70 <point_output+0x30>
  402c58:	2100      	movs	r1, #0
  402c5a:	4825      	ldr	r0, [pc, #148]	; (402cf0 <point_output+0xb0>)
  402c5c:	f7ff f9b5 	bl	401fca <dacc_set_channel_selection>
  402c60:	7863      	ldrb	r3, [r4, #1]
  402c62:	5d71      	ldrb	r1, [r6, r5]
  402c64:	4822      	ldr	r0, [pc, #136]	; (402cf0 <point_output+0xb0>)
  402c66:	091b      	lsrs	r3, r3, #4
  402c68:	ea43 1101 	orr.w	r1, r3, r1, lsl #4
  402c6c:	f7ff f9ab 	bl	401fc6 <dacc_write_conversion_data>
  402c70:	78e1      	ldrb	r1, [r4, #3]
  402c72:	4821      	ldr	r0, [pc, #132]	; (402cf8 <point_output+0xb8>)
  402c74:	2300      	movs	r3, #0
  402c76:	0109      	lsls	r1, r1, #4
  402c78:	461a      	mov	r2, r3
  402c7a:	f441 4150 	orr.w	r1, r1, #53248	; 0xd000
  402c7e:	f7fd fdb2 	bl	4007e6 <spi_write>
  402c82:	7921      	ldrb	r1, [r4, #4]
  402c84:	481c      	ldr	r0, [pc, #112]	; (402cf8 <point_output+0xb8>)
  402c86:	2300      	movs	r3, #0
  402c88:	0109      	lsls	r1, r1, #4
  402c8a:	461a      	mov	r2, r3
  402c8c:	f441 4110 	orr.w	r1, r1, #36864	; 0x9000
  402c90:	f7fd fda9 	bl	4007e6 <spi_write>
  402c94:	7961      	ldrb	r1, [r4, #5]
  402c96:	4818      	ldr	r0, [pc, #96]	; (402cf8 <point_output+0xb8>)
  402c98:	2300      	movs	r3, #0
  402c9a:	0109      	lsls	r1, r1, #4
  402c9c:	461a      	mov	r2, r3
  402c9e:	f441 41a0 	orr.w	r1, r1, #20480	; 0x5000
  402ca2:	f7fd fda0 	bl	4007e6 <spi_write>
  402ca6:	79a1      	ldrb	r1, [r4, #6]
  402ca8:	4813      	ldr	r0, [pc, #76]	; (402cf8 <point_output+0xb8>)
  402caa:	2300      	movs	r3, #0
  402cac:	0109      	lsls	r1, r1, #4
  402cae:	461a      	mov	r2, r3
  402cb0:	f441 5180 	orr.w	r1, r1, #4096	; 0x1000
  402cb4:	f7fd fd97 	bl	4007e6 <spi_write>
  402cb8:	480d      	ldr	r0, [pc, #52]	; (402cf0 <point_output+0xb0>)
  402cba:	f7ff f982 	bl	401fc2 <dacc_get_interrupt_status>
  402cbe:	07c3      	lsls	r3, r0, #31
  402cc0:	d50c      	bpl.n	402cdc <point_output+0x9c>
  402cc2:	2101      	movs	r1, #1
  402cc4:	480a      	ldr	r0, [pc, #40]	; (402cf0 <point_output+0xb0>)
  402cc6:	f7ff f980 	bl	401fca <dacc_set_channel_selection>
  402cca:	7863      	ldrb	r3, [r4, #1]
  402ccc:	78a1      	ldrb	r1, [r4, #2]
  402cce:	4808      	ldr	r0, [pc, #32]	; (402cf0 <point_output+0xb0>)
  402cd0:	021b      	lsls	r3, r3, #8
  402cd2:	f403 6370 	and.w	r3, r3, #3840	; 0xf00
  402cd6:	4319      	orrs	r1, r3
  402cd8:	f7ff f975 	bl	401fc6 <dacc_write_conversion_data>
  402cdc:	79a0      	ldrb	r0, [r4, #6]
  402cde:	3000      	adds	r0, #0
  402ce0:	bf18      	it	ne
  402ce2:	2001      	movne	r0, #1
  402ce4:	e8bd 4070 	ldmia.w	sp!, {r4, r5, r6, lr}
  402ce8:	f7ff bfa0 	b.w	402c2c <statusled_set>
  402cec:	2000054c 	.word	0x2000054c
  402cf0:	4003c000 	.word	0x4003c000
  402cf4:	20000584 	.word	0x20000584
  402cf8:	40008000 	.word	0x40008000

00402cfc <SysTick_Handler>:
  402cfc:	b5f8      	push	{r3, r4, r5, r6, r7, lr}
  402cfe:	4b1e      	ldr	r3, [pc, #120]	; (402d78 <SysTick_Handler+0x7c>)
  402d00:	781b      	ldrb	r3, [r3, #0]
  402d02:	2b00      	cmp	r3, #0
  402d04:	d036      	beq.n	402d74 <SysTick_Handler+0x78>
  402d06:	4b1d      	ldr	r3, [pc, #116]	; (402d7c <SysTick_Handler+0x80>)
  402d08:	781b      	ldrb	r3, [r3, #0]
  402d0a:	2b00      	cmp	r3, #0
  402d0c:	d132      	bne.n	402d74 <SysTick_Handler+0x78>
  402d0e:	4c1c      	ldr	r4, [pc, #112]	; (402d80 <SysTick_Handler+0x84>)
  402d10:	491c      	ldr	r1, [pc, #112]	; (402d84 <SysTick_Handler+0x88>)
  402d12:	8820      	ldrh	r0, [r4, #0]
  402d14:	880a      	ldrh	r2, [r1, #0]
  402d16:	4290      	cmp	r0, r2
  402d18:	d327      	bcc.n	402d6a <SysTick_Handler+0x6e>
  402d1a:	481b      	ldr	r0, [pc, #108]	; (402d88 <SysTick_Handler+0x8c>)
  402d1c:	f8df e080 	ldr.w	lr, [pc, #128]	; 402da0 <SysTick_Handler+0xa4>
  402d20:	7805      	ldrb	r5, [r0, #0]
  402d22:	b1cd      	cbz	r5, 402d58 <SysTick_Handler+0x5c>
  402d24:	7003      	strb	r3, [r0, #0]
  402d26:	8023      	strh	r3, [r4, #0]
  402d28:	4b18      	ldr	r3, [pc, #96]	; (402d8c <SysTick_Handler+0x90>)
  402d2a:	4e19      	ldr	r6, [pc, #100]	; (402d90 <SysTick_Handler+0x94>)
  402d2c:	881b      	ldrh	r3, [r3, #0]
  402d2e:	4d19      	ldr	r5, [pc, #100]	; (402d94 <SysTick_Handler+0x98>)
  402d30:	800b      	strh	r3, [r1, #0]
  402d32:	4b19      	ldr	r3, [pc, #100]	; (402d98 <SysTick_Handler+0x9c>)
  402d34:	6837      	ldr	r7, [r6, #0]
  402d36:	682a      	ldr	r2, [r5, #0]
  402d38:	781b      	ldrb	r3, [r3, #0]
  402d3a:	f88e 3000 	strb.w	r3, [lr]
  402d3e:	6032      	str	r2, [r6, #0]
  402d40:	602f      	str	r7, [r5, #0]
  402d42:	f7ff ff7d 	bl	402c40 <point_output>
  402d46:	8823      	ldrh	r3, [r4, #0]
  402d48:	3307      	adds	r3, #7
  402d4a:	8023      	strh	r3, [r4, #0]
  402d4c:	4b13      	ldr	r3, [pc, #76]	; (402d9c <SysTick_Handler+0xa0>)
  402d4e:	6818      	ldr	r0, [r3, #0]
  402d50:	e8bd 40f8 	ldmia.w	sp!, {r3, r4, r5, r6, r7, lr}
  402d54:	f7ff be3c 	b.w	4029d0 <speed_set>
  402d58:	f89e 3000 	ldrb.w	r3, [lr]
  402d5c:	b90b      	cbnz	r3, 402d62 <SysTick_Handler+0x66>
  402d5e:	8023      	strh	r3, [r4, #0]
  402d60:	e003      	b.n	402d6a <SysTick_Handler+0x6e>
  402d62:	e8bd 40f8 	ldmia.w	sp!, {r3, r4, r5, r6, r7, lr}
  402d66:	f7ff bdad 	b.w	4028c4 <stop>
  402d6a:	f7ff ff69 	bl	402c40 <point_output>
  402d6e:	8823      	ldrh	r3, [r4, #0]
  402d70:	3307      	adds	r3, #7
  402d72:	8023      	strh	r3, [r4, #0]
  402d74:	bdf8      	pop	{r3, r4, r5, r6, r7, pc}
  402d76:	bf00      	nop
  402d78:	20000545 	.word	0x20000545
  402d7c:	20000546 	.word	0x20000546
  402d80:	2000054c 	.word	0x2000054c
  402d84:	2000054a 	.word	0x2000054a
  402d88:	20000544 	.word	0x20000544
  402d8c:	20000548 	.word	0x20000548
  402d90:	20000584 	.word	0x20000584
  402d94:	2000057c 	.word	0x2000057c
  402d98:	20000199 	.word	0x20000199
  402d9c:	2000019c 	.word	0x2000019c
  402da0:	20000198 	.word	0x20000198

00402da4 <iopins_init>:
  402da4:	4b08      	ldr	r3, [pc, #32]	; (402dc8 <iopins_init+0x24>)
  402da6:	f44f 1280 	mov.w	r2, #1048576	; 0x100000
  402daa:	611a      	str	r2, [r3, #16]
  402dac:	f8c3 20a0 	str.w	r2, [r3, #160]	; 0xa0
  402db0:	f44f 0280 	mov.w	r2, #4194304	; 0x400000
  402db4:	611a      	str	r2, [r3, #16]
  402db6:	f8c3 20a0 	str.w	r2, [r3, #160]	; 0xa0
  402dba:	f44f 0200 	mov.w	r2, #8388608	; 0x800000
  402dbe:	611a      	str	r2, [r3, #16]
  402dc0:	f8c3 20a0 	str.w	r2, [r3, #160]	; 0xa0
  402dc4:	4770      	bx	lr
  402dc6:	bf00      	nop
  402dc8:	400e0e00 	.word	0x400e0e00

00402dcc <spi_init>:
  402dcc:	b538      	push	{r3, r4, r5, lr}
  402dce:	f04f 6100 	mov.w	r1, #134217728	; 0x8000000
  402dd2:	200c      	movs	r0, #12
  402dd4:	f7ff f978 	bl	4020c8 <pio_configure_pin>
  402dd8:	f04f 6100 	mov.w	r1, #134217728	; 0x8000000
  402ddc:	200d      	movs	r0, #13
  402dde:	4c25      	ldr	r4, [pc, #148]	; (402e74 <spi_init+0xa8>)
  402de0:	f7ff f972 	bl	4020c8 <pio_configure_pin>
  402de4:	f04f 6100 	mov.w	r1, #134217728	; 0x8000000
  402de8:	200e      	movs	r0, #14
  402dea:	f7ff f96d 	bl	4020c8 <pio_configure_pin>
  402dee:	f04f 6100 	mov.w	r1, #134217728	; 0x8000000
  402df2:	200b      	movs	r0, #11
  402df4:	f7ff f968 	bl	4020c8 <pio_configure_pin>
  402df8:	4620      	mov	r0, r4
  402dfa:	f7fd fcdd 	bl	4007b8 <spi_enable_clock>
  402dfe:	2580      	movs	r5, #128	; 0x80
  402e00:	2302      	movs	r3, #2
  402e02:	6023      	str	r3, [r4, #0]
  402e04:	6025      	str	r5, [r4, #0]
  402e06:	6863      	ldr	r3, [r4, #4]
  402e08:	f043 0301 	orr.w	r3, r3, #1
  402e0c:	6063      	str	r3, [r4, #4]
  402e0e:	6863      	ldr	r3, [r4, #4]
  402e10:	f023 0302 	bic.w	r3, r3, #2
  402e14:	6063      	str	r3, [r4, #4]
  402e16:	6863      	ldr	r3, [r4, #4]
  402e18:	f043 0310 	orr.w	r3, r3, #16
  402e1c:	6063      	str	r3, [r4, #4]
  402e1e:	2204      	movs	r2, #4
  402e20:	2100      	movs	r1, #0
  402e22:	4620      	mov	r0, r4
  402e24:	f7fd fd0c 	bl	400840 <spi_configure_cs_behavior>
  402e28:	2106      	movs	r1, #6
  402e2a:	4620      	mov	r0, r4
  402e2c:	f7fd fcd2 	bl	4007d4 <spi_set_delay_between_chip_select>
  402e30:	210e      	movs	r1, #14
  402e32:	4620      	mov	r0, r4
  402e34:	f7fd fcc3 	bl	4007be <spi_set_peripheral_chip_select_value>
  402e38:	2200      	movs	r2, #0
  402e3a:	4611      	mov	r1, r2
  402e3c:	4620      	mov	r0, r4
  402e3e:	f7fd fce9 	bl	400814 <spi_set_clock_polarity>
  402e42:	2200      	movs	r2, #0
  402e44:	4611      	mov	r1, r2
  402e46:	4620      	mov	r0, r4
  402e48:	f7fd fcef 	bl	40082a <spi_set_clock_phase>
  402e4c:	462a      	mov	r2, r5
  402e4e:	2100      	movs	r1, #0
  402e50:	4620      	mov	r0, r4
  402e52:	f7fd fd15 	bl	400880 <spi_set_bits_per_transfer>
  402e56:	2205      	movs	r2, #5
  402e58:	2100      	movs	r1, #0
  402e5a:	4620      	mov	r0, r4
  402e5c:	f7fd fd1a 	bl	400894 <spi_set_baudrate_div>
  402e60:	2300      	movs	r3, #0
  402e62:	461a      	mov	r2, r3
  402e64:	4619      	mov	r1, r3
  402e66:	4620      	mov	r0, r4
  402e68:	f7fd fd1f 	bl	4008aa <spi_set_transfer_delay>
  402e6c:	2301      	movs	r3, #1
  402e6e:	6023      	str	r3, [r4, #0]
  402e70:	bd38      	pop	{r3, r4, r5, pc}
  402e72:	bf00      	nop
  402e74:	40008000 	.word	0x40008000

00402e78 <dac_init>:
  402e78:	b510      	push	{r4, lr}
  402e7a:	4c0a      	ldr	r4, [pc, #40]	; (402ea4 <dac_init+0x2c>)
  402e7c:	201e      	movs	r0, #30
  402e7e:	f7ff fa1b 	bl	4022b8 <pmc_enable_periph_clk>
  402e82:	4620      	mov	r0, r4
  402e84:	f7ff f88c 	bl	401fa0 <dacc_reset>
  402e88:	2100      	movs	r1, #0
  402e8a:	4620      	mov	r0, r4
  402e8c:	f7ff f8a9 	bl	401fe2 <dacc_enable_channel>
  402e90:	2101      	movs	r1, #1
  402e92:	4620      	mov	r0, r4
  402e94:	f7ff f8a5 	bl	401fe2 <dacc_enable_channel>
  402e98:	4620      	mov	r0, r4
  402e9a:	2100      	movs	r1, #0
  402e9c:	e8bd 4010 	ldmia.w	sp!, {r4, lr}
  402ea0:	f7ff b881 	b.w	401fa6 <dacc_set_transfer_mode>
  402ea4:	4003c000 	.word	0x4003c000

00402ea8 <timer_init>:
  402ea8:	b57f      	push	{r0, r1, r2, r3, r4, r5, r6, lr}
  402eaa:	4c1a      	ldr	r4, [pc, #104]	; (402f14 <timer_init+0x6c>)
  402eac:	4d1a      	ldr	r5, [pc, #104]	; (402f18 <timer_init+0x70>)
  402eae:	4e1b      	ldr	r6, [pc, #108]	; (402f1c <timer_init+0x74>)
  402eb0:	2017      	movs	r0, #23
  402eb2:	f7ff fa01 	bl	4022b8 <pmc_enable_periph_clk>
  402eb6:	ab03      	add	r3, sp, #12
  402eb8:	9400      	str	r4, [sp, #0]
  402eba:	aa02      	add	r2, sp, #8
  402ebc:	4621      	mov	r1, r4
  402ebe:	200a      	movs	r0, #10
  402ec0:	f7fd fd1f 	bl	400902 <tc_find_mck_divisor>
  402ec4:	9a03      	ldr	r2, [sp, #12]
  402ec6:	f442 4280 	orr.w	r2, r2, #16384	; 0x4000
  402eca:	4628      	mov	r0, r5
  402ecc:	f042 0240 	orr.w	r2, r2, #64	; 0x40
  402ed0:	2100      	movs	r1, #0
  402ed2:	f7fd fcf7 	bl	4008c4 <tc_init>
  402ed6:	9b02      	ldr	r3, [sp, #8]
  402ed8:	fbb4 f4f3 	udiv	r4, r4, r3
  402edc:	230a      	movs	r3, #10
  402ede:	fbb4 f4f3 	udiv	r4, r4, r3
  402ee2:	4b0f      	ldr	r3, [pc, #60]	; (402f20 <timer_init+0x78>)
  402ee4:	6034      	str	r4, [r6, #0]
  402ee6:	f44f 0200 	mov.w	r2, #8388608	; 0x800000
  402eea:	2400      	movs	r4, #0
  402eec:	f8c3 2080 	str.w	r2, [r3, #128]	; 0x80
  402ef0:	4621      	mov	r1, r4
  402ef2:	f8c3 2180 	str.w	r2, [r3, #384]	; 0x180
  402ef6:	4628      	mov	r0, r5
  402ef8:	f883 4317 	strb.w	r4, [r3, #791]	; 0x317
  402efc:	601a      	str	r2, [r3, #0]
  402efe:	2210      	movs	r2, #16
  402f00:	f7fd fcf7 	bl	4008f2 <tc_enable_interrupt>
  402f04:	6832      	ldr	r2, [r6, #0]
  402f06:	4621      	mov	r1, r4
  402f08:	4628      	mov	r0, r5
  402f0a:	f7fd fcee 	bl	4008ea <tc_write_rc>
  402f0e:	b004      	add	sp, #16
  402f10:	bd70      	pop	{r4, r5, r6, pc}
  402f12:	bf00      	nop
  402f14:	06acfc00 	.word	0x06acfc00
  402f18:	40010000 	.word	0x40010000
  402f1c:	20000588 	.word	0x20000588
  402f20:	e000e100 	.word	0xe000e100

00402f24 <assignDefaultName>:
  402f24:	b530      	push	{r4, r5, lr}
  402f26:	b099      	sub	sp, #100	; 0x64
  402f28:	ac08      	add	r4, sp, #32
  402f2a:	2110      	movs	r1, #16
  402f2c:	4620      	mov	r0, r4
  402f2e:	f7fe ff91 	bl	401e54 <flash_read_user_signature>
  402f32:	9b08      	ldr	r3, [sp, #32]
  402f34:	3301      	adds	r3, #1
  402f36:	d117      	bne.n	402f68 <assignDefaultName+0x44>
  402f38:	2104      	movs	r1, #4
  402f3a:	4668      	mov	r0, sp
  402f3c:	ad04      	add	r5, sp, #16
  402f3e:	f7fe ff69 	bl	401e14 <flash_read_unique_id>
  402f42:	9a03      	ldr	r2, [sp, #12]
  402f44:	4909      	ldr	r1, [pc, #36]	; (402f6c <assignDefaultName+0x48>)
  402f46:	4628      	mov	r0, r5
  402f48:	f000 f9c2 	bl	4032d0 <siprintf>
  402f4c:	2300      	movs	r3, #0
  402f4e:	5cea      	ldrb	r2, [r5, r3]
  402f50:	f844 2023 	str.w	r2, [r4, r3, lsl #2]
  402f54:	b112      	cbz	r2, 402f5c <assignDefaultName+0x38>
  402f56:	3301      	adds	r3, #1
  402f58:	2b10      	cmp	r3, #16
  402f5a:	d1f8      	bne.n	402f4e <assignDefaultName+0x2a>
  402f5c:	f7fe ffb6 	bl	401ecc <flash_erase_user_signature>
  402f60:	2110      	movs	r1, #16
  402f62:	4620      	mov	r0, r4
  402f64:	f7fe ff8a 	bl	401e7c <flash_write_user_signature>
  402f68:	b019      	add	sp, #100	; 0x64
  402f6a:	bd30      	pop	{r4, r5, pc}
  402f6c:	00403a2b 	.word	0x00403a2b

00402f70 <main>:
  402f70:	b508      	push	{r3, lr}
  402f72:	f247 0005 	movw	r0, #28677	; 0x7005
  402f76:	f000 f8ed 	bl	403154 <malloc>
  402f7a:	4b32      	ldr	r3, [pc, #200]	; (403044 <main+0xd4>)
  402f7c:	4e32      	ldr	r6, [pc, #200]	; (403048 <main+0xd8>)
  402f7e:	6018      	str	r0, [r3, #0]
  402f80:	f247 0005 	movw	r0, #28677	; 0x7005
  402f84:	f000 f8e6 	bl	403154 <malloc>
  402f88:	4b30      	ldr	r3, [pc, #192]	; (40304c <main+0xdc>)
  402f8a:	6018      	str	r0, [r3, #0]
  402f8c:	2020      	movs	r0, #32
  402f8e:	f000 f8e1 	bl	403154 <malloc>
  402f92:	4b2f      	ldr	r3, [pc, #188]	; (403050 <main+0xe0>)
  402f94:	6018      	str	r0, [r3, #0]
  402f96:	f7fe ffdf 	bl	401f58 <sysclk_init>
  402f9a:	f7ff f9cd 	bl	402338 <pmc_disable_all_periph_clk>
  402f9e:	f7ff f97d 	bl	40229c <pmc_disable_pllbck>
  402fa2:	f7ff ff69 	bl	402e78 <dac_init>
  402fa6:	f7ff ff11 	bl	402dcc <spi_init>
  402faa:	f7ff fefb 	bl	402da4 <iopins_init>
  402fae:	2301      	movs	r3, #1
  402fb0:	7033      	strb	r3, [r6, #0]
  402fb2:	f3bf 8f5f 	dmb	sy
  402fb6:	b662      	cpsie	i
  402fb8:	4d26      	ldr	r5, [pc, #152]	; (403054 <main+0xe4>)
  402fba:	2400      	movs	r4, #0
  402fbc:	716b      	strb	r3, [r5, #5]
  402fbe:	702c      	strb	r4, [r5, #0]
  402fc0:	706c      	strb	r4, [r5, #1]
  402fc2:	70ac      	strb	r4, [r5, #2]
  402fc4:	70ec      	strb	r4, [r5, #3]
  402fc6:	712c      	strb	r4, [r5, #4]
  402fc8:	f7fd f992 	bl	4002f0 <udc_start>
  402fcc:	f7ff ff6c 	bl	402ea8 <timer_init>
  402fd0:	2104      	movs	r1, #4
  402fd2:	4620      	mov	r0, r4
  402fd4:	f7fe fee4 	bl	401da0 <flash_init>
  402fd8:	4b1f      	ldr	r3, [pc, #124]	; (403058 <main+0xe8>)
  402fda:	f883 4023 	strb.w	r4, [r3, #35]	; 0x23
  402fde:	f5a3 6340 	sub.w	r3, r3, #3072	; 0xc00
  402fe2:	2210      	movs	r2, #16
  402fe4:	f883 2322 	strb.w	r2, [r3, #802]	; 0x322
  402fe8:	4b1c      	ldr	r3, [pc, #112]	; (40305c <main+0xec>)
  402fea:	f44f 1280 	mov.w	r2, #1048576	; 0x100000
  402fee:	635a      	str	r2, [r3, #52]	; 0x34
  402ff0:	f44f 0280 	mov.w	r2, #4194304	; 0x400000
  402ff4:	635a      	str	r2, [r3, #52]	; 0x34
  402ff6:	f44f 0200 	mov.w	r2, #8388608	; 0x800000
  402ffa:	631a      	str	r2, [r3, #48]	; 0x30
  402ffc:	f7ff fc62 	bl	4028c4 <stop>
  403000:	2003      	movs	r0, #3
  403002:	f7ff fc43 	bl	40288c <sleepmgr_lock_mode>
  403006:	f7ff ff8d 	bl	402f24 <assignDefaultName>
  40300a:	4815      	ldr	r0, [pc, #84]	; (403060 <main+0xf0>)
  40300c:	f7fe febe 	bl	401d8c <wdt_restart>
  403010:	b672      	cpsid	i
  403012:	f3bf 8f5f 	dmb	sy
  403016:	2300      	movs	r3, #0
  403018:	7034      	strb	r4, [r6, #0]
  40301a:	b2d8      	uxtb	r0, r3
  40301c:	1c5a      	adds	r2, r3, #1
  40301e:	5ceb      	ldrb	r3, [r5, r3]
  403020:	b90b      	cbnz	r3, 403026 <main+0xb6>
  403022:	4613      	mov	r3, r2
  403024:	e7f9      	b.n	40301a <main+0xaa>
  403026:	b928      	cbnz	r0, 403034 <main+0xc4>
  403028:	2301      	movs	r3, #1
  40302a:	7033      	strb	r3, [r6, #0]
  40302c:	f3bf 8f5f 	dmb	sy
  403030:	b662      	cpsie	i
  403032:	e7ea      	b.n	40300a <main+0x9a>
  403034:	b672      	cpsid	i
  403036:	f3bf 8f5f 	dmb	sy
  40303a:	7034      	strb	r4, [r6, #0]
  40303c:	f7ff f9d6 	bl	4023ec <pmc_sleep>
  403040:	e7e3      	b.n	40300a <main+0x9a>
  403042:	bf00      	nop
  403044:	20000584 	.word	0x20000584
  403048:	20000154 	.word	0x20000154
  40304c:	2000057c 	.word	0x2000057c
  403050:	20000580 	.word	0x20000580
  403054:	20000558 	.word	0x20000558
  403058:	e000ed00 	.word	0xe000ed00
  40305c:	400e0e00 	.word	0x400e0e00
  403060:	400e1450 	.word	0x400e1450

00403064 <msft_string_handle>:
  403064:	b51f      	push	{r0, r1, r2, r3, r4, lr}
  403066:	4a12      	ldr	r2, [pc, #72]	; (4030b0 <msft_string_handle+0x4c>)
  403068:	6810      	ldr	r0, [r2, #0]
  40306a:	6851      	ldr	r1, [r2, #4]
  40306c:	7a12      	ldrb	r2, [r2, #8]
  40306e:	ab01      	add	r3, sp, #4
  403070:	c303      	stmia	r3!, {r0, r1}
  403072:	701a      	strb	r2, [r3, #0]
  403074:	4b0f      	ldr	r3, [pc, #60]	; (4030b4 <msft_string_handle+0x50>)
  403076:	789a      	ldrb	r2, [r3, #2]
  403078:	2aee      	cmp	r2, #238	; 0xee
  40307a:	ac01      	add	r4, sp, #4
  40307c:	d112      	bne.n	4030a4 <msft_string_handle+0x40>
  40307e:	490e      	ldr	r1, [pc, #56]	; (4030b8 <msft_string_handle+0x54>)
  403080:	2200      	movs	r2, #0
  403082:	5ca0      	ldrb	r0, [r4, r2]
  403084:	f821 0b02 	strh.w	r0, [r1], #2
  403088:	3201      	adds	r2, #1
  40308a:	2a08      	cmp	r2, #8
  40308c:	d1f9      	bne.n	403082 <msft_string_handle+0x1e>
  40308e:	4a0b      	ldr	r2, [pc, #44]	; (4030bc <msft_string_handle+0x58>)
  403090:	609a      	str	r2, [r3, #8]
  403092:	2112      	movs	r1, #18
  403094:	8199      	strh	r1, [r3, #12]
  403096:	88db      	ldrh	r3, [r3, #6]
  403098:	7011      	strb	r1, [r2, #0]
  40309a:	2b11      	cmp	r3, #17
  40309c:	d804      	bhi.n	4030a8 <msft_string_handle+0x44>
  40309e:	4a05      	ldr	r2, [pc, #20]	; (4030b4 <msft_string_handle+0x50>)
  4030a0:	8193      	strh	r3, [r2, #12]
  4030a2:	e001      	b.n	4030a8 <msft_string_handle+0x44>
  4030a4:	2000      	movs	r0, #0
  4030a6:	e000      	b.n	4030aa <msft_string_handle+0x46>
  4030a8:	2001      	movs	r0, #1
  4030aa:	b004      	add	sp, #16
  4030ac:	bd10      	pop	{r4, pc}
  4030ae:	bf00      	nop
  4030b0:	00403a36 	.word	0x00403a36
  4030b4:	20000560 	.word	0x20000560
  4030b8:	2000015e 	.word	0x2000015e
  4030bc:	2000015c 	.word	0x2000015c

004030c0 <usb_device_specific_request>:
  4030c0:	490f      	ldr	r1, [pc, #60]	; (403100 <usb_device_specific_request+0x40>)
  4030c2:	780b      	ldrb	r3, [r1, #0]
  4030c4:	f003 0360 	and.w	r3, r3, #96	; 0x60
  4030c8:	2b40      	cmp	r3, #64	; 0x40
  4030ca:	d10c      	bne.n	4030e6 <usb_device_specific_request+0x26>
  4030cc:	784b      	ldrb	r3, [r1, #1]
  4030ce:	2b30      	cmp	r3, #48	; 0x30
  4030d0:	d109      	bne.n	4030e6 <usb_device_specific_request+0x26>
  4030d2:	888b      	ldrh	r3, [r1, #4]
  4030d4:	2b04      	cmp	r3, #4
  4030d6:	d111      	bne.n	4030fc <usb_device_specific_request+0x3c>
  4030d8:	4a0a      	ldr	r2, [pc, #40]	; (403104 <usb_device_specific_request+0x44>)
  4030da:	88cb      	ldrh	r3, [r1, #6]
  4030dc:	6810      	ldr	r0, [r2, #0]
  4030de:	4283      	cmp	r3, r0
  4030e0:	d903      	bls.n	4030ea <usb_device_specific_request+0x2a>
  4030e2:	b283      	uxth	r3, r0
  4030e4:	e001      	b.n	4030ea <usb_device_specific_request+0x2a>
  4030e6:	2300      	movs	r3, #0
  4030e8:	461a      	mov	r2, r3
  4030ea:	4805      	ldr	r0, [pc, #20]	; (403100 <usb_device_specific_request+0x40>)
  4030ec:	818b      	strh	r3, [r1, #12]
  4030ee:	b913      	cbnz	r3, 4030f6 <usb_device_specific_request+0x36>
  4030f0:	6103      	str	r3, [r0, #16]
  4030f2:	6143      	str	r3, [r0, #20]
  4030f4:	e000      	b.n	4030f8 <usb_device_specific_request+0x38>
  4030f6:	6082      	str	r2, [r0, #8]
  4030f8:	2001      	movs	r0, #1
  4030fa:	4770      	bx	lr
  4030fc:	2000      	movs	r0, #0
  4030fe:	4770      	bx	lr
  403100:	20000560 	.word	0x20000560
  403104:	20000170 	.word	0x20000170

00403108 <__libc_init_array>:
  403108:	b570      	push	{r4, r5, r6, lr}
  40310a:	4b0e      	ldr	r3, [pc, #56]	; (403144 <__libc_init_array+0x3c>)
  40310c:	4c0e      	ldr	r4, [pc, #56]	; (403148 <__libc_init_array+0x40>)
  40310e:	1ae4      	subs	r4, r4, r3
  403110:	10a4      	asrs	r4, r4, #2
  403112:	2500      	movs	r5, #0
  403114:	461e      	mov	r6, r3
  403116:	42a5      	cmp	r5, r4
  403118:	d004      	beq.n	403124 <__libc_init_array+0x1c>
  40311a:	f856 3025 	ldr.w	r3, [r6, r5, lsl #2]
  40311e:	4798      	blx	r3
  403120:	3501      	adds	r5, #1
  403122:	e7f8      	b.n	403116 <__libc_init_array+0xe>
  403124:	f000 fcd8 	bl	403ad8 <_init>
  403128:	4c08      	ldr	r4, [pc, #32]	; (40314c <__libc_init_array+0x44>)
  40312a:	4b09      	ldr	r3, [pc, #36]	; (403150 <__libc_init_array+0x48>)
  40312c:	1ae4      	subs	r4, r4, r3
  40312e:	10a4      	asrs	r4, r4, #2
  403130:	2500      	movs	r5, #0
  403132:	461e      	mov	r6, r3
  403134:	42a5      	cmp	r5, r4
  403136:	d004      	beq.n	403142 <__libc_init_array+0x3a>
  403138:	f856 3025 	ldr.w	r3, [r6, r5, lsl #2]
  40313c:	4798      	blx	r3
  40313e:	3501      	adds	r5, #1
  403140:	e7f8      	b.n	403134 <__libc_init_array+0x2c>
  403142:	bd70      	pop	{r4, r5, r6, pc}
  403144:	00403ae4 	.word	0x00403ae4
  403148:	00403ae4 	.word	0x00403ae4
  40314c:	00403ae8 	.word	0x00403ae8
  403150:	00403ae4 	.word	0x00403ae4

00403154 <malloc>:
  403154:	4b02      	ldr	r3, [pc, #8]	; (403160 <malloc+0xc>)
  403156:	4601      	mov	r1, r0
  403158:	6818      	ldr	r0, [r3, #0]
  40315a:	f000 b855 	b.w	403208 <_malloc_r>
  40315e:	bf00      	nop
  403160:	20000200 	.word	0x20000200

00403164 <memcpy>:
  403164:	b510      	push	{r4, lr}
  403166:	1e43      	subs	r3, r0, #1
  403168:	440a      	add	r2, r1
  40316a:	4291      	cmp	r1, r2
  40316c:	d004      	beq.n	403178 <memcpy+0x14>
  40316e:	f811 4b01 	ldrb.w	r4, [r1], #1
  403172:	f803 4f01 	strb.w	r4, [r3, #1]!
  403176:	e7f8      	b.n	40316a <memcpy+0x6>
  403178:	bd10      	pop	{r4, pc}
	...

0040317c <_free_r>:
  40317c:	b530      	push	{r4, r5, lr}
  40317e:	2900      	cmp	r1, #0
  403180:	d03e      	beq.n	403200 <_free_r+0x84>
  403182:	f851 2c04 	ldr.w	r2, [r1, #-4]
  403186:	1f0b      	subs	r3, r1, #4
  403188:	491e      	ldr	r1, [pc, #120]	; (403204 <_free_r+0x88>)
  40318a:	2a00      	cmp	r2, #0
  40318c:	bfb8      	it	lt
  40318e:	189b      	addlt	r3, r3, r2
  403190:	680a      	ldr	r2, [r1, #0]
  403192:	460c      	mov	r4, r1
  403194:	b912      	cbnz	r2, 40319c <_free_r+0x20>
  403196:	605a      	str	r2, [r3, #4]
  403198:	600b      	str	r3, [r1, #0]
  40319a:	bd30      	pop	{r4, r5, pc}
  40319c:	429a      	cmp	r2, r3
  40319e:	d90e      	bls.n	4031be <_free_r+0x42>
  4031a0:	6819      	ldr	r1, [r3, #0]
  4031a2:	1858      	adds	r0, r3, r1
  4031a4:	4282      	cmp	r2, r0
  4031a6:	bf04      	itt	eq
  4031a8:	6810      	ldreq	r0, [r2, #0]
  4031aa:	6852      	ldreq	r2, [r2, #4]
  4031ac:	605a      	str	r2, [r3, #4]
  4031ae:	bf04      	itt	eq
  4031b0:	1809      	addeq	r1, r1, r0
  4031b2:	6019      	streq	r1, [r3, #0]
  4031b4:	6023      	str	r3, [r4, #0]
  4031b6:	bd30      	pop	{r4, r5, pc}
  4031b8:	4299      	cmp	r1, r3
  4031ba:	d803      	bhi.n	4031c4 <_free_r+0x48>
  4031bc:	460a      	mov	r2, r1
  4031be:	6851      	ldr	r1, [r2, #4]
  4031c0:	2900      	cmp	r1, #0
  4031c2:	d1f9      	bne.n	4031b8 <_free_r+0x3c>
  4031c4:	6814      	ldr	r4, [r2, #0]
  4031c6:	1915      	adds	r5, r2, r4
  4031c8:	429d      	cmp	r5, r3
  4031ca:	d10a      	bne.n	4031e2 <_free_r+0x66>
  4031cc:	681b      	ldr	r3, [r3, #0]
  4031ce:	4423      	add	r3, r4
  4031d0:	18d0      	adds	r0, r2, r3
  4031d2:	4281      	cmp	r1, r0
  4031d4:	6013      	str	r3, [r2, #0]
  4031d6:	d113      	bne.n	403200 <_free_r+0x84>
  4031d8:	6808      	ldr	r0, [r1, #0]
  4031da:	4403      	add	r3, r0
  4031dc:	6013      	str	r3, [r2, #0]
  4031de:	684b      	ldr	r3, [r1, #4]
  4031e0:	e00d      	b.n	4031fe <_free_r+0x82>
  4031e2:	d902      	bls.n	4031ea <_free_r+0x6e>
  4031e4:	230c      	movs	r3, #12
  4031e6:	6003      	str	r3, [r0, #0]
  4031e8:	bd30      	pop	{r4, r5, pc}
  4031ea:	6818      	ldr	r0, [r3, #0]
  4031ec:	181c      	adds	r4, r3, r0
  4031ee:	42a1      	cmp	r1, r4
  4031f0:	bf04      	itt	eq
  4031f2:	680c      	ldreq	r4, [r1, #0]
  4031f4:	6849      	ldreq	r1, [r1, #4]
  4031f6:	6059      	str	r1, [r3, #4]
  4031f8:	bf04      	itt	eq
  4031fa:	1900      	addeq	r0, r0, r4
  4031fc:	6018      	streq	r0, [r3, #0]
  4031fe:	6053      	str	r3, [r2, #4]
  403200:	bd30      	pop	{r4, r5, pc}
  403202:	bf00      	nop
  403204:	20000554 	.word	0x20000554

00403208 <_malloc_r>:
  403208:	b570      	push	{r4, r5, r6, lr}
  40320a:	1ccd      	adds	r5, r1, #3
  40320c:	f025 0503 	bic.w	r5, r5, #3
  403210:	3508      	adds	r5, #8
  403212:	2d0c      	cmp	r5, #12
  403214:	bf38      	it	cc
  403216:	250c      	movcc	r5, #12
  403218:	2d00      	cmp	r5, #0
  40321a:	4606      	mov	r6, r0
  40321c:	da03      	bge.n	403226 <_malloc_r+0x1e>
  40321e:	230c      	movs	r3, #12
  403220:	6033      	str	r3, [r6, #0]
  403222:	2000      	movs	r0, #0
  403224:	bd70      	pop	{r4, r5, r6, pc}
  403226:	42a9      	cmp	r1, r5
  403228:	d8f9      	bhi.n	40321e <_malloc_r+0x16>
  40322a:	4b1f      	ldr	r3, [pc, #124]	; (4032a8 <_malloc_r+0xa0>)
  40322c:	681c      	ldr	r4, [r3, #0]
  40322e:	461a      	mov	r2, r3
  403230:	4621      	mov	r1, r4
  403232:	b1a1      	cbz	r1, 40325e <_malloc_r+0x56>
  403234:	680b      	ldr	r3, [r1, #0]
  403236:	1b5b      	subs	r3, r3, r5
  403238:	d40e      	bmi.n	403258 <_malloc_r+0x50>
  40323a:	2b0b      	cmp	r3, #11
  40323c:	d903      	bls.n	403246 <_malloc_r+0x3e>
  40323e:	600b      	str	r3, [r1, #0]
  403240:	18cc      	adds	r4, r1, r3
  403242:	50cd      	str	r5, [r1, r3]
  403244:	e01e      	b.n	403284 <_malloc_r+0x7c>
  403246:	428c      	cmp	r4, r1
  403248:	bf0d      	iteet	eq
  40324a:	6863      	ldreq	r3, [r4, #4]
  40324c:	684b      	ldrne	r3, [r1, #4]
  40324e:	6063      	strne	r3, [r4, #4]
  403250:	6013      	streq	r3, [r2, #0]
  403252:	bf18      	it	ne
  403254:	460c      	movne	r4, r1
  403256:	e015      	b.n	403284 <_malloc_r+0x7c>
  403258:	460c      	mov	r4, r1
  40325a:	6849      	ldr	r1, [r1, #4]
  40325c:	e7e9      	b.n	403232 <_malloc_r+0x2a>
  40325e:	4c13      	ldr	r4, [pc, #76]	; (4032ac <_malloc_r+0xa4>)
  403260:	6823      	ldr	r3, [r4, #0]
  403262:	b91b      	cbnz	r3, 40326c <_malloc_r+0x64>
  403264:	4630      	mov	r0, r6
  403266:	f000 f823 	bl	4032b0 <_sbrk_r>
  40326a:	6020      	str	r0, [r4, #0]
  40326c:	4629      	mov	r1, r5
  40326e:	4630      	mov	r0, r6
  403270:	f000 f81e 	bl	4032b0 <_sbrk_r>
  403274:	1c43      	adds	r3, r0, #1
  403276:	d0d2      	beq.n	40321e <_malloc_r+0x16>
  403278:	1cc4      	adds	r4, r0, #3
  40327a:	f024 0403 	bic.w	r4, r4, #3
  40327e:	42a0      	cmp	r0, r4
  403280:	d10a      	bne.n	403298 <_malloc_r+0x90>
  403282:	6025      	str	r5, [r4, #0]
  403284:	f104 000b 	add.w	r0, r4, #11
  403288:	1d23      	adds	r3, r4, #4
  40328a:	f020 0007 	bic.w	r0, r0, #7
  40328e:	1ac3      	subs	r3, r0, r3
  403290:	d009      	beq.n	4032a6 <_malloc_r+0x9e>
  403292:	425a      	negs	r2, r3
  403294:	50e2      	str	r2, [r4, r3]
  403296:	bd70      	pop	{r4, r5, r6, pc}
  403298:	1a21      	subs	r1, r4, r0
  40329a:	4630      	mov	r0, r6
  40329c:	f000 f808 	bl	4032b0 <_sbrk_r>
  4032a0:	3001      	adds	r0, #1
  4032a2:	d1ee      	bne.n	403282 <_malloc_r+0x7a>
  4032a4:	e7bb      	b.n	40321e <_malloc_r+0x16>
  4032a6:	bd70      	pop	{r4, r5, r6, pc}
  4032a8:	20000554 	.word	0x20000554
  4032ac:	20000550 	.word	0x20000550

004032b0 <_sbrk_r>:
  4032b0:	b538      	push	{r3, r4, r5, lr}
  4032b2:	4c06      	ldr	r4, [pc, #24]	; (4032cc <_sbrk_r+0x1c>)
  4032b4:	2300      	movs	r3, #0
  4032b6:	4605      	mov	r5, r0
  4032b8:	4608      	mov	r0, r1
  4032ba:	6023      	str	r3, [r4, #0]
  4032bc:	f7ff fab4 	bl	402828 <_sbrk>
  4032c0:	1c43      	adds	r3, r0, #1
  4032c2:	d102      	bne.n	4032ca <_sbrk_r+0x1a>
  4032c4:	6823      	ldr	r3, [r4, #0]
  4032c6:	b103      	cbz	r3, 4032ca <_sbrk_r+0x1a>
  4032c8:	602b      	str	r3, [r5, #0]
  4032ca:	bd38      	pop	{r3, r4, r5, pc}
  4032cc:	2000058c 	.word	0x2000058c

004032d0 <siprintf>:
  4032d0:	b40e      	push	{r1, r2, r3}
  4032d2:	b500      	push	{lr}
  4032d4:	b09c      	sub	sp, #112	; 0x70
  4032d6:	f44f 7102 	mov.w	r1, #520	; 0x208
  4032da:	ab1d      	add	r3, sp, #116	; 0x74
  4032dc:	f8ad 1014 	strh.w	r1, [sp, #20]
  4032e0:	9002      	str	r0, [sp, #8]
  4032e2:	9006      	str	r0, [sp, #24]
  4032e4:	f06f 4100 	mvn.w	r1, #2147483648	; 0x80000000
  4032e8:	480a      	ldr	r0, [pc, #40]	; (403314 <siprintf+0x44>)
  4032ea:	9104      	str	r1, [sp, #16]
  4032ec:	9107      	str	r1, [sp, #28]
  4032ee:	f64f 71ff 	movw	r1, #65535	; 0xffff
  4032f2:	f853 2b04 	ldr.w	r2, [r3], #4
  4032f6:	f8ad 1016 	strh.w	r1, [sp, #22]
  4032fa:	6800      	ldr	r0, [r0, #0]
  4032fc:	9301      	str	r3, [sp, #4]
  4032fe:	a902      	add	r1, sp, #8
  403300:	f000 f864 	bl	4033cc <_svfiprintf_r>
  403304:	9b02      	ldr	r3, [sp, #8]
  403306:	2200      	movs	r2, #0
  403308:	701a      	strb	r2, [r3, #0]
  40330a:	b01c      	add	sp, #112	; 0x70
  40330c:	f85d eb04 	ldr.w	lr, [sp], #4
  403310:	b003      	add	sp, #12
  403312:	4770      	bx	lr
  403314:	20000200 	.word	0x20000200

00403318 <__ssputs_r>:
  403318:	e92d 47f0 	stmdb	sp!, {r4, r5, r6, r7, r8, r9, sl, lr}
  40331c:	688e      	ldr	r6, [r1, #8]
  40331e:	429e      	cmp	r6, r3
  403320:	4682      	mov	sl, r0
  403322:	460c      	mov	r4, r1
  403324:	4691      	mov	r9, r2
  403326:	4698      	mov	r8, r3
  403328:	d83e      	bhi.n	4033a8 <__ssputs_r+0x90>
  40332a:	898a      	ldrh	r2, [r1, #12]
  40332c:	f412 6f90 	tst.w	r2, #1152	; 0x480
  403330:	d03a      	beq.n	4033a8 <__ssputs_r+0x90>
  403332:	6825      	ldr	r5, [r4, #0]
  403334:	6909      	ldr	r1, [r1, #16]
  403336:	1a6f      	subs	r7, r5, r1
  403338:	6965      	ldr	r5, [r4, #20]
  40333a:	2302      	movs	r3, #2
  40333c:	eb05 0545 	add.w	r5, r5, r5, lsl #1
  403340:	fb95 f5f3 	sdiv	r5, r5, r3
  403344:	1c7b      	adds	r3, r7, #1
  403346:	4443      	add	r3, r8
  403348:	429d      	cmp	r5, r3
  40334a:	bf38      	it	cc
  40334c:	461d      	movcc	r5, r3
  40334e:	0553      	lsls	r3, r2, #21
  403350:	d50f      	bpl.n	403372 <__ssputs_r+0x5a>
  403352:	4629      	mov	r1, r5
  403354:	f7ff ff58 	bl	403208 <_malloc_r>
  403358:	4606      	mov	r6, r0
  40335a:	b198      	cbz	r0, 403384 <__ssputs_r+0x6c>
  40335c:	463a      	mov	r2, r7
  40335e:	6921      	ldr	r1, [r4, #16]
  403360:	f7ff ff00 	bl	403164 <memcpy>
  403364:	89a3      	ldrh	r3, [r4, #12]
  403366:	f423 6390 	bic.w	r3, r3, #1152	; 0x480
  40336a:	f043 0380 	orr.w	r3, r3, #128	; 0x80
  40336e:	81a3      	strh	r3, [r4, #12]
  403370:	e013      	b.n	40339a <__ssputs_r+0x82>
  403372:	462a      	mov	r2, r5
  403374:	f000 fb27 	bl	4039c6 <_realloc_r>
  403378:	4606      	mov	r6, r0
  40337a:	b970      	cbnz	r0, 40339a <__ssputs_r+0x82>
  40337c:	6921      	ldr	r1, [r4, #16]
  40337e:	4650      	mov	r0, sl
  403380:	f7ff fefc 	bl	40317c <_free_r>
  403384:	230c      	movs	r3, #12
  403386:	f8ca 3000 	str.w	r3, [sl]
  40338a:	89a3      	ldrh	r3, [r4, #12]
  40338c:	f043 0340 	orr.w	r3, r3, #64	; 0x40
  403390:	81a3      	strh	r3, [r4, #12]
  403392:	f04f 30ff 	mov.w	r0, #4294967295
  403396:	e8bd 87f0 	ldmia.w	sp!, {r4, r5, r6, r7, r8, r9, sl, pc}
  40339a:	6126      	str	r6, [r4, #16]
  40339c:	6165      	str	r5, [r4, #20]
  40339e:	443e      	add	r6, r7
  4033a0:	1bed      	subs	r5, r5, r7
  4033a2:	6026      	str	r6, [r4, #0]
  4033a4:	60a5      	str	r5, [r4, #8]
  4033a6:	4646      	mov	r6, r8
  4033a8:	4546      	cmp	r6, r8
  4033aa:	bf28      	it	cs
  4033ac:	4646      	movcs	r6, r8
  4033ae:	4632      	mov	r2, r6
  4033b0:	4649      	mov	r1, r9
  4033b2:	6820      	ldr	r0, [r4, #0]
  4033b4:	f000 faec 	bl	403990 <memmove>
  4033b8:	68a3      	ldr	r3, [r4, #8]
  4033ba:	1b9b      	subs	r3, r3, r6
  4033bc:	60a3      	str	r3, [r4, #8]
  4033be:	6823      	ldr	r3, [r4, #0]
  4033c0:	441e      	add	r6, r3
  4033c2:	6026      	str	r6, [r4, #0]
  4033c4:	2000      	movs	r0, #0
  4033c6:	e8bd 87f0 	ldmia.w	sp!, {r4, r5, r6, r7, r8, r9, sl, pc}
	...

004033cc <_svfiprintf_r>:
  4033cc:	e92d 4ff0 	stmdb	sp!, {r4, r5, r6, r7, r8, r9, sl, fp, lr}
  4033d0:	b09d      	sub	sp, #116	; 0x74
  4033d2:	4680      	mov	r8, r0
  4033d4:	9303      	str	r3, [sp, #12]
  4033d6:	898b      	ldrh	r3, [r1, #12]
  4033d8:	061c      	lsls	r4, r3, #24
  4033da:	460d      	mov	r5, r1
  4033dc:	4616      	mov	r6, r2
  4033de:	d50d      	bpl.n	4033fc <_svfiprintf_r+0x30>
  4033e0:	690b      	ldr	r3, [r1, #16]
  4033e2:	b95b      	cbnz	r3, 4033fc <_svfiprintf_r+0x30>
  4033e4:	2140      	movs	r1, #64	; 0x40
  4033e6:	f7ff ff0f 	bl	403208 <_malloc_r>
  4033ea:	6028      	str	r0, [r5, #0]
  4033ec:	6128      	str	r0, [r5, #16]
  4033ee:	b918      	cbnz	r0, 4033f8 <_svfiprintf_r+0x2c>
  4033f0:	230c      	movs	r3, #12
  4033f2:	f8c8 3000 	str.w	r3, [r8]
  4033f6:	e0cd      	b.n	403594 <_svfiprintf_r+0x1c8>
  4033f8:	2340      	movs	r3, #64	; 0x40
  4033fa:	616b      	str	r3, [r5, #20]
  4033fc:	2300      	movs	r3, #0
  4033fe:	9309      	str	r3, [sp, #36]	; 0x24
  403400:	2320      	movs	r3, #32
  403402:	f88d 3029 	strb.w	r3, [sp, #41]	; 0x29
  403406:	f8df b19c 	ldr.w	fp, [pc, #412]	; 4035a4 <_svfiprintf_r+0x1d8>
  40340a:	2330      	movs	r3, #48	; 0x30
  40340c:	f88d 302a 	strb.w	r3, [sp, #42]	; 0x2a
  403410:	4637      	mov	r7, r6
  403412:	463c      	mov	r4, r7
  403414:	f814 3b01 	ldrb.w	r3, [r4], #1
  403418:	b91b      	cbnz	r3, 403422 <_svfiprintf_r+0x56>
  40341a:	ebb7 0906 	subs.w	r9, r7, r6
  40341e:	d010      	beq.n	403442 <_svfiprintf_r+0x76>
  403420:	e003      	b.n	40342a <_svfiprintf_r+0x5e>
  403422:	2b25      	cmp	r3, #37	; 0x25
  403424:	d0f9      	beq.n	40341a <_svfiprintf_r+0x4e>
  403426:	4627      	mov	r7, r4
  403428:	e7f3      	b.n	403412 <_svfiprintf_r+0x46>
  40342a:	464b      	mov	r3, r9
  40342c:	4632      	mov	r2, r6
  40342e:	4629      	mov	r1, r5
  403430:	4640      	mov	r0, r8
  403432:	f7ff ff71 	bl	403318 <__ssputs_r>
  403436:	3001      	adds	r0, #1
  403438:	f000 80a7 	beq.w	40358a <_svfiprintf_r+0x1be>
  40343c:	9b09      	ldr	r3, [sp, #36]	; 0x24
  40343e:	444b      	add	r3, r9
  403440:	9309      	str	r3, [sp, #36]	; 0x24
  403442:	783b      	ldrb	r3, [r7, #0]
  403444:	2b00      	cmp	r3, #0
  403446:	f000 80a0 	beq.w	40358a <_svfiprintf_r+0x1be>
  40344a:	2300      	movs	r3, #0
  40344c:	f04f 32ff 	mov.w	r2, #4294967295
  403450:	9304      	str	r3, [sp, #16]
  403452:	9307      	str	r3, [sp, #28]
  403454:	9205      	str	r2, [sp, #20]
  403456:	9306      	str	r3, [sp, #24]
  403458:	f88d 3053 	strb.w	r3, [sp, #83]	; 0x53
  40345c:	931a      	str	r3, [sp, #104]	; 0x68
  40345e:	2601      	movs	r6, #1
  403460:	2205      	movs	r2, #5
  403462:	7821      	ldrb	r1, [r4, #0]
  403464:	484e      	ldr	r0, [pc, #312]	; (4035a0 <_svfiprintf_r+0x1d4>)
  403466:	f000 fa43 	bl	4038f0 <memchr>
  40346a:	1c67      	adds	r7, r4, #1
  40346c:	9b04      	ldr	r3, [sp, #16]
  40346e:	b138      	cbz	r0, 403480 <_svfiprintf_r+0xb4>
  403470:	4a4b      	ldr	r2, [pc, #300]	; (4035a0 <_svfiprintf_r+0x1d4>)
  403472:	1a80      	subs	r0, r0, r2
  403474:	fa06 f000 	lsl.w	r0, r6, r0
  403478:	4318      	orrs	r0, r3
  40347a:	9004      	str	r0, [sp, #16]
  40347c:	463c      	mov	r4, r7
  40347e:	e7ef      	b.n	403460 <_svfiprintf_r+0x94>
  403480:	06d9      	lsls	r1, r3, #27
  403482:	bf44      	itt	mi
  403484:	2220      	movmi	r2, #32
  403486:	f88d 2053 	strbmi.w	r2, [sp, #83]	; 0x53
  40348a:	071a      	lsls	r2, r3, #28
  40348c:	bf44      	itt	mi
  40348e:	222b      	movmi	r2, #43	; 0x2b
  403490:	f88d 2053 	strbmi.w	r2, [sp, #83]	; 0x53
  403494:	7822      	ldrb	r2, [r4, #0]
  403496:	2a2a      	cmp	r2, #42	; 0x2a
  403498:	d003      	beq.n	4034a2 <_svfiprintf_r+0xd6>
  40349a:	9a07      	ldr	r2, [sp, #28]
  40349c:	2100      	movs	r1, #0
  40349e:	200a      	movs	r0, #10
  4034a0:	e00b      	b.n	4034ba <_svfiprintf_r+0xee>
  4034a2:	9a03      	ldr	r2, [sp, #12]
  4034a4:	1d11      	adds	r1, r2, #4
  4034a6:	6812      	ldr	r2, [r2, #0]
  4034a8:	9103      	str	r1, [sp, #12]
  4034aa:	2a00      	cmp	r2, #0
  4034ac:	da10      	bge.n	4034d0 <_svfiprintf_r+0x104>
  4034ae:	4252      	negs	r2, r2
  4034b0:	f043 0002 	orr.w	r0, r3, #2
  4034b4:	9207      	str	r2, [sp, #28]
  4034b6:	9004      	str	r0, [sp, #16]
  4034b8:	e00b      	b.n	4034d2 <_svfiprintf_r+0x106>
  4034ba:	4627      	mov	r7, r4
  4034bc:	3401      	adds	r4, #1
  4034be:	783b      	ldrb	r3, [r7, #0]
  4034c0:	3b30      	subs	r3, #48	; 0x30
  4034c2:	2b09      	cmp	r3, #9
  4034c4:	d803      	bhi.n	4034ce <_svfiprintf_r+0x102>
  4034c6:	fb00 3202 	mla	r2, r0, r2, r3
  4034ca:	2101      	movs	r1, #1
  4034cc:	e7f5      	b.n	4034ba <_svfiprintf_r+0xee>
  4034ce:	b101      	cbz	r1, 4034d2 <_svfiprintf_r+0x106>
  4034d0:	9207      	str	r2, [sp, #28]
  4034d2:	783b      	ldrb	r3, [r7, #0]
  4034d4:	2b2e      	cmp	r3, #46	; 0x2e
  4034d6:	d11e      	bne.n	403516 <_svfiprintf_r+0x14a>
  4034d8:	787b      	ldrb	r3, [r7, #1]
  4034da:	2b2a      	cmp	r3, #42	; 0x2a
  4034dc:	d10a      	bne.n	4034f4 <_svfiprintf_r+0x128>
  4034de:	9b03      	ldr	r3, [sp, #12]
  4034e0:	1d1a      	adds	r2, r3, #4
  4034e2:	681b      	ldr	r3, [r3, #0]
  4034e4:	9203      	str	r2, [sp, #12]
  4034e6:	2b00      	cmp	r3, #0
  4034e8:	bfb8      	it	lt
  4034ea:	f04f 33ff 	movlt.w	r3, #4294967295
  4034ee:	3702      	adds	r7, #2
  4034f0:	9305      	str	r3, [sp, #20]
  4034f2:	e010      	b.n	403516 <_svfiprintf_r+0x14a>
  4034f4:	2300      	movs	r3, #0
  4034f6:	9305      	str	r3, [sp, #20]
  4034f8:	1c78      	adds	r0, r7, #1
  4034fa:	4619      	mov	r1, r3
  4034fc:	240a      	movs	r4, #10
  4034fe:	4607      	mov	r7, r0
  403500:	3001      	adds	r0, #1
  403502:	783a      	ldrb	r2, [r7, #0]
  403504:	3a30      	subs	r2, #48	; 0x30
  403506:	2a09      	cmp	r2, #9
  403508:	d803      	bhi.n	403512 <_svfiprintf_r+0x146>
  40350a:	fb04 2101 	mla	r1, r4, r1, r2
  40350e:	2301      	movs	r3, #1
  403510:	e7f5      	b.n	4034fe <_svfiprintf_r+0x132>
  403512:	b103      	cbz	r3, 403516 <_svfiprintf_r+0x14a>
  403514:	9105      	str	r1, [sp, #20]
  403516:	2203      	movs	r2, #3
  403518:	7839      	ldrb	r1, [r7, #0]
  40351a:	4822      	ldr	r0, [pc, #136]	; (4035a4 <_svfiprintf_r+0x1d8>)
  40351c:	f000 f9e8 	bl	4038f0 <memchr>
  403520:	b140      	cbz	r0, 403534 <_svfiprintf_r+0x168>
  403522:	2340      	movs	r3, #64	; 0x40
  403524:	ebcb 0000 	rsb	r0, fp, r0
  403528:	fa03 f000 	lsl.w	r0, r3, r0
  40352c:	9b04      	ldr	r3, [sp, #16]
  40352e:	4318      	orrs	r0, r3
  403530:	9004      	str	r0, [sp, #16]
  403532:	3701      	adds	r7, #1
  403534:	7839      	ldrb	r1, [r7, #0]
  403536:	481c      	ldr	r0, [pc, #112]	; (4035a8 <_svfiprintf_r+0x1dc>)
  403538:	f88d 1028 	strb.w	r1, [sp, #40]	; 0x28
  40353c:	2206      	movs	r2, #6
  40353e:	1c7e      	adds	r6, r7, #1
  403540:	f000 f9d6 	bl	4038f0 <memchr>
  403544:	b188      	cbz	r0, 40356a <_svfiprintf_r+0x19e>
  403546:	4b19      	ldr	r3, [pc, #100]	; (4035ac <_svfiprintf_r+0x1e0>)
  403548:	b933      	cbnz	r3, 403558 <_svfiprintf_r+0x18c>
  40354a:	9b03      	ldr	r3, [sp, #12]
  40354c:	3307      	adds	r3, #7
  40354e:	f023 0307 	bic.w	r3, r3, #7
  403552:	3308      	adds	r3, #8
  403554:	9303      	str	r3, [sp, #12]
  403556:	e014      	b.n	403582 <_svfiprintf_r+0x1b6>
  403558:	ab03      	add	r3, sp, #12
  40355a:	9300      	str	r3, [sp, #0]
  40355c:	462a      	mov	r2, r5
  40355e:	4b14      	ldr	r3, [pc, #80]	; (4035b0 <_svfiprintf_r+0x1e4>)
  403560:	a904      	add	r1, sp, #16
  403562:	4640      	mov	r0, r8
  403564:	f3af 8000 	nop.w
  403568:	e007      	b.n	40357a <_svfiprintf_r+0x1ae>
  40356a:	ab03      	add	r3, sp, #12
  40356c:	9300      	str	r3, [sp, #0]
  40356e:	462a      	mov	r2, r5
  403570:	4b0f      	ldr	r3, [pc, #60]	; (4035b0 <_svfiprintf_r+0x1e4>)
  403572:	a904      	add	r1, sp, #16
  403574:	4640      	mov	r0, r8
  403576:	f000 f893 	bl	4036a0 <_printf_i>
  40357a:	f1b0 3fff 	cmp.w	r0, #4294967295
  40357e:	4682      	mov	sl, r0
  403580:	d003      	beq.n	40358a <_svfiprintf_r+0x1be>
  403582:	9b09      	ldr	r3, [sp, #36]	; 0x24
  403584:	4453      	add	r3, sl
  403586:	9309      	str	r3, [sp, #36]	; 0x24
  403588:	e742      	b.n	403410 <_svfiprintf_r+0x44>
  40358a:	89ab      	ldrh	r3, [r5, #12]
  40358c:	065b      	lsls	r3, r3, #25
  40358e:	d401      	bmi.n	403594 <_svfiprintf_r+0x1c8>
  403590:	9809      	ldr	r0, [sp, #36]	; 0x24
  403592:	e001      	b.n	403598 <_svfiprintf_r+0x1cc>
  403594:	f04f 30ff 	mov.w	r0, #4294967295
  403598:	b01d      	add	sp, #116	; 0x74
  40359a:	e8bd 8ff0 	ldmia.w	sp!, {r4, r5, r6, r7, r8, r9, sl, fp, pc}
  40359e:	bf00      	nop
  4035a0:	00403aa4 	.word	0x00403aa4
  4035a4:	00403aaa 	.word	0x00403aaa
  4035a8:	00403aae 	.word	0x00403aae
  4035ac:	00000000 	.word	0x00000000
  4035b0:	00403319 	.word	0x00403319

004035b4 <_printf_common>:
  4035b4:	e92d 47f0 	stmdb	sp!, {r4, r5, r6, r7, r8, r9, sl, lr}
  4035b8:	4691      	mov	r9, r2
  4035ba:	461f      	mov	r7, r3
  4035bc:	690a      	ldr	r2, [r1, #16]
  4035be:	688b      	ldr	r3, [r1, #8]
  4035c0:	f8dd 8020 	ldr.w	r8, [sp, #32]
  4035c4:	4293      	cmp	r3, r2
  4035c6:	bfb8      	it	lt
  4035c8:	4613      	movlt	r3, r2
  4035ca:	f8c9 3000 	str.w	r3, [r9]
  4035ce:	f891 2043 	ldrb.w	r2, [r1, #67]	; 0x43
  4035d2:	4606      	mov	r6, r0
  4035d4:	460c      	mov	r4, r1
  4035d6:	b112      	cbz	r2, 4035de <_printf_common+0x2a>
  4035d8:	3301      	adds	r3, #1
  4035da:	f8c9 3000 	str.w	r3, [r9]
  4035de:	6823      	ldr	r3, [r4, #0]
  4035e0:	0699      	lsls	r1, r3, #26
  4035e2:	bf42      	ittt	mi
  4035e4:	f8d9 3000 	ldrmi.w	r3, [r9]
  4035e8:	3302      	addmi	r3, #2
  4035ea:	f8c9 3000 	strmi.w	r3, [r9]
  4035ee:	6825      	ldr	r5, [r4, #0]
  4035f0:	f015 0506 	ands.w	r5, r5, #6
  4035f4:	d110      	bne.n	403618 <_printf_common+0x64>
  4035f6:	f104 0a19 	add.w	sl, r4, #25
  4035fa:	e007      	b.n	40360c <_printf_common+0x58>
  4035fc:	2301      	movs	r3, #1
  4035fe:	4652      	mov	r2, sl
  403600:	4639      	mov	r1, r7
  403602:	4630      	mov	r0, r6
  403604:	47c0      	blx	r8
  403606:	3001      	adds	r0, #1
  403608:	d01a      	beq.n	403640 <_printf_common+0x8c>
  40360a:	3501      	adds	r5, #1
  40360c:	68e3      	ldr	r3, [r4, #12]
  40360e:	f8d9 2000 	ldr.w	r2, [r9]
  403612:	1a9b      	subs	r3, r3, r2
  403614:	429d      	cmp	r5, r3
  403616:	dbf1      	blt.n	4035fc <_printf_common+0x48>
  403618:	f894 3043 	ldrb.w	r3, [r4, #67]	; 0x43
  40361c:	6822      	ldr	r2, [r4, #0]
  40361e:	3300      	adds	r3, #0
  403620:	bf18      	it	ne
  403622:	2301      	movne	r3, #1
  403624:	0692      	lsls	r2, r2, #26
  403626:	d50f      	bpl.n	403648 <_printf_common+0x94>
  403628:	18e1      	adds	r1, r4, r3
  40362a:	1c5a      	adds	r2, r3, #1
  40362c:	2030      	movs	r0, #48	; 0x30
  40362e:	f881 0043 	strb.w	r0, [r1, #67]	; 0x43
  403632:	4422      	add	r2, r4
  403634:	f894 1045 	ldrb.w	r1, [r4, #69]	; 0x45
  403638:	f882 1043 	strb.w	r1, [r2, #67]	; 0x43
  40363c:	3302      	adds	r3, #2
  40363e:	e003      	b.n	403648 <_printf_common+0x94>
  403640:	f04f 30ff 	mov.w	r0, #4294967295
  403644:	e8bd 87f0 	ldmia.w	sp!, {r4, r5, r6, r7, r8, r9, sl, pc}
  403648:	f104 0243 	add.w	r2, r4, #67	; 0x43
  40364c:	4639      	mov	r1, r7
  40364e:	4630      	mov	r0, r6
  403650:	47c0      	blx	r8
  403652:	3001      	adds	r0, #1
  403654:	d0f4      	beq.n	403640 <_printf_common+0x8c>
  403656:	6822      	ldr	r2, [r4, #0]
  403658:	f8d9 5000 	ldr.w	r5, [r9]
  40365c:	68e3      	ldr	r3, [r4, #12]
  40365e:	f002 0206 	and.w	r2, r2, #6
  403662:	2a04      	cmp	r2, #4
  403664:	bf08      	it	eq
  403666:	1b5d      	subeq	r5, r3, r5
  403668:	6922      	ldr	r2, [r4, #16]
  40366a:	68a3      	ldr	r3, [r4, #8]
  40366c:	bf0c      	ite	eq
  40366e:	ea25 75e5 	biceq.w	r5, r5, r5, asr #31
  403672:	2500      	movne	r5, #0
  403674:	4293      	cmp	r3, r2
  403676:	bfc4      	itt	gt
  403678:	1a9b      	subgt	r3, r3, r2
  40367a:	18ed      	addgt	r5, r5, r3
  40367c:	f04f 0900 	mov.w	r9, #0
  403680:	341a      	adds	r4, #26
  403682:	454d      	cmp	r5, r9
  403684:	d009      	beq.n	40369a <_printf_common+0xe6>
  403686:	2301      	movs	r3, #1
  403688:	4622      	mov	r2, r4
  40368a:	4639      	mov	r1, r7
  40368c:	4630      	mov	r0, r6
  40368e:	47c0      	blx	r8
  403690:	3001      	adds	r0, #1
  403692:	d0d5      	beq.n	403640 <_printf_common+0x8c>
  403694:	f109 0901 	add.w	r9, r9, #1
  403698:	e7f3      	b.n	403682 <_printf_common+0xce>
  40369a:	2000      	movs	r0, #0
  40369c:	e8bd 87f0 	ldmia.w	sp!, {r4, r5, r6, r7, r8, r9, sl, pc}

004036a0 <_printf_i>:
  4036a0:	e92d 43f0 	stmdb	sp!, {r4, r5, r6, r7, r8, r9, lr}
  4036a4:	4617      	mov	r7, r2
  4036a6:	7e0a      	ldrb	r2, [r1, #24]
  4036a8:	b085      	sub	sp, #20
  4036aa:	2a6e      	cmp	r2, #110	; 0x6e
  4036ac:	4698      	mov	r8, r3
  4036ae:	4606      	mov	r6, r0
  4036b0:	460c      	mov	r4, r1
  4036b2:	9b0c      	ldr	r3, [sp, #48]	; 0x30
  4036b4:	f101 0e43 	add.w	lr, r1, #67	; 0x43
  4036b8:	f000 80ae 	beq.w	403818 <_printf_i+0x178>
  4036bc:	d811      	bhi.n	4036e2 <_printf_i+0x42>
  4036be:	2a63      	cmp	r2, #99	; 0x63
  4036c0:	d022      	beq.n	403708 <_printf_i+0x68>
  4036c2:	d809      	bhi.n	4036d8 <_printf_i+0x38>
  4036c4:	2a00      	cmp	r2, #0
  4036c6:	f000 80bb 	beq.w	403840 <_printf_i+0x1a0>
  4036ca:	2a58      	cmp	r2, #88	; 0x58
  4036cc:	f040 80ca 	bne.w	403864 <_printf_i+0x1c4>
  4036d0:	f881 2045 	strb.w	r2, [r1, #69]	; 0x45
  4036d4:	4983      	ldr	r1, [pc, #524]	; (4038e4 <_printf_i+0x244>)
  4036d6:	e055      	b.n	403784 <_printf_i+0xe4>
  4036d8:	2a64      	cmp	r2, #100	; 0x64
  4036da:	d01e      	beq.n	40371a <_printf_i+0x7a>
  4036dc:	2a69      	cmp	r2, #105	; 0x69
  4036de:	d01c      	beq.n	40371a <_printf_i+0x7a>
  4036e0:	e0c0      	b.n	403864 <_printf_i+0x1c4>
  4036e2:	2a73      	cmp	r2, #115	; 0x73
  4036e4:	f000 80b0 	beq.w	403848 <_printf_i+0x1a8>
  4036e8:	d809      	bhi.n	4036fe <_printf_i+0x5e>
  4036ea:	2a6f      	cmp	r2, #111	; 0x6f
  4036ec:	d02e      	beq.n	40374c <_printf_i+0xac>
  4036ee:	2a70      	cmp	r2, #112	; 0x70
  4036f0:	f040 80b8 	bne.w	403864 <_printf_i+0x1c4>
  4036f4:	680a      	ldr	r2, [r1, #0]
  4036f6:	f042 0220 	orr.w	r2, r2, #32
  4036fa:	600a      	str	r2, [r1, #0]
  4036fc:	e03e      	b.n	40377c <_printf_i+0xdc>
  4036fe:	2a75      	cmp	r2, #117	; 0x75
  403700:	d024      	beq.n	40374c <_printf_i+0xac>
  403702:	2a78      	cmp	r2, #120	; 0x78
  403704:	d03a      	beq.n	40377c <_printf_i+0xdc>
  403706:	e0ad      	b.n	403864 <_printf_i+0x1c4>
  403708:	681a      	ldr	r2, [r3, #0]
  40370a:	f101 0542 	add.w	r5, r1, #66	; 0x42
  40370e:	1d11      	adds	r1, r2, #4
  403710:	6019      	str	r1, [r3, #0]
  403712:	6813      	ldr	r3, [r2, #0]
  403714:	f884 3042 	strb.w	r3, [r4, #66]	; 0x42
  403718:	e0a8      	b.n	40386c <_printf_i+0x1cc>
  40371a:	6821      	ldr	r1, [r4, #0]
  40371c:	681a      	ldr	r2, [r3, #0]
  40371e:	f011 0f80 	tst.w	r1, #128	; 0x80
  403722:	d002      	beq.n	40372a <_printf_i+0x8a>
  403724:	1d11      	adds	r1, r2, #4
  403726:	6019      	str	r1, [r3, #0]
  403728:	e008      	b.n	40373c <_printf_i+0x9c>
  40372a:	f011 0f40 	tst.w	r1, #64	; 0x40
  40372e:	f102 0104 	add.w	r1, r2, #4
  403732:	6019      	str	r1, [r3, #0]
  403734:	d002      	beq.n	40373c <_printf_i+0x9c>
  403736:	f9b2 3000 	ldrsh.w	r3, [r2]
  40373a:	e000      	b.n	40373e <_printf_i+0x9e>
  40373c:	6813      	ldr	r3, [r2, #0]
  40373e:	2b00      	cmp	r3, #0
  403740:	da3c      	bge.n	4037bc <_printf_i+0x11c>
  403742:	222d      	movs	r2, #45	; 0x2d
  403744:	425b      	negs	r3, r3
  403746:	f884 2043 	strb.w	r2, [r4, #67]	; 0x43
  40374a:	e037      	b.n	4037bc <_printf_i+0x11c>
  40374c:	6821      	ldr	r1, [r4, #0]
  40374e:	681a      	ldr	r2, [r3, #0]
  403750:	f011 0f80 	tst.w	r1, #128	; 0x80
  403754:	d002      	beq.n	40375c <_printf_i+0xbc>
  403756:	1d11      	adds	r1, r2, #4
  403758:	6019      	str	r1, [r3, #0]
  40375a:	e007      	b.n	40376c <_printf_i+0xcc>
  40375c:	f011 0f40 	tst.w	r1, #64	; 0x40
  403760:	f102 0104 	add.w	r1, r2, #4
  403764:	6019      	str	r1, [r3, #0]
  403766:	d001      	beq.n	40376c <_printf_i+0xcc>
  403768:	8813      	ldrh	r3, [r2, #0]
  40376a:	e000      	b.n	40376e <_printf_i+0xce>
  40376c:	6813      	ldr	r3, [r2, #0]
  40376e:	7e22      	ldrb	r2, [r4, #24]
  403770:	495c      	ldr	r1, [pc, #368]	; (4038e4 <_printf_i+0x244>)
  403772:	2a6f      	cmp	r2, #111	; 0x6f
  403774:	bf14      	ite	ne
  403776:	220a      	movne	r2, #10
  403778:	2208      	moveq	r2, #8
  40377a:	e01b      	b.n	4037b4 <_printf_i+0x114>
  40377c:	2278      	movs	r2, #120	; 0x78
  40377e:	495a      	ldr	r1, [pc, #360]	; (4038e8 <_printf_i+0x248>)
  403780:	f884 2045 	strb.w	r2, [r4, #69]	; 0x45
  403784:	6822      	ldr	r2, [r4, #0]
  403786:	6818      	ldr	r0, [r3, #0]
  403788:	f012 0f80 	tst.w	r2, #128	; 0x80
  40378c:	f100 0504 	add.w	r5, r0, #4
  403790:	601d      	str	r5, [r3, #0]
  403792:	d103      	bne.n	40379c <_printf_i+0xfc>
  403794:	0655      	lsls	r5, r2, #25
  403796:	d501      	bpl.n	40379c <_printf_i+0xfc>
  403798:	8803      	ldrh	r3, [r0, #0]
  40379a:	e000      	b.n	40379e <_printf_i+0xfe>
  40379c:	6803      	ldr	r3, [r0, #0]
  40379e:	07d0      	lsls	r0, r2, #31
  4037a0:	bf44      	itt	mi
  4037a2:	f042 0220 	orrmi.w	r2, r2, #32
  4037a6:	6022      	strmi	r2, [r4, #0]
  4037a8:	b91b      	cbnz	r3, 4037b2 <_printf_i+0x112>
  4037aa:	6822      	ldr	r2, [r4, #0]
  4037ac:	f022 0220 	bic.w	r2, r2, #32
  4037b0:	6022      	str	r2, [r4, #0]
  4037b2:	2210      	movs	r2, #16
  4037b4:	2000      	movs	r0, #0
  4037b6:	f884 0043 	strb.w	r0, [r4, #67]	; 0x43
  4037ba:	e001      	b.n	4037c0 <_printf_i+0x120>
  4037bc:	4949      	ldr	r1, [pc, #292]	; (4038e4 <_printf_i+0x244>)
  4037be:	220a      	movs	r2, #10
  4037c0:	6865      	ldr	r5, [r4, #4]
  4037c2:	60a5      	str	r5, [r4, #8]
  4037c4:	2d00      	cmp	r5, #0
  4037c6:	db08      	blt.n	4037da <_printf_i+0x13a>
  4037c8:	6820      	ldr	r0, [r4, #0]
  4037ca:	f020 0004 	bic.w	r0, r0, #4
  4037ce:	6020      	str	r0, [r4, #0]
  4037d0:	b92b      	cbnz	r3, 4037de <_printf_i+0x13e>
  4037d2:	2d00      	cmp	r5, #0
  4037d4:	d17d      	bne.n	4038d2 <_printf_i+0x232>
  4037d6:	4675      	mov	r5, lr
  4037d8:	e00c      	b.n	4037f4 <_printf_i+0x154>
  4037da:	2b00      	cmp	r3, #0
  4037dc:	d079      	beq.n	4038d2 <_printf_i+0x232>
  4037de:	4675      	mov	r5, lr
  4037e0:	fbb3 f0f2 	udiv	r0, r3, r2
  4037e4:	fb02 3310 	mls	r3, r2, r0, r3
  4037e8:	5ccb      	ldrb	r3, [r1, r3]
  4037ea:	f805 3d01 	strb.w	r3, [r5, #-1]!
  4037ee:	4603      	mov	r3, r0
  4037f0:	2800      	cmp	r0, #0
  4037f2:	d1f5      	bne.n	4037e0 <_printf_i+0x140>
  4037f4:	2a08      	cmp	r2, #8
  4037f6:	d10b      	bne.n	403810 <_printf_i+0x170>
  4037f8:	6823      	ldr	r3, [r4, #0]
  4037fa:	07da      	lsls	r2, r3, #31
  4037fc:	d508      	bpl.n	403810 <_printf_i+0x170>
  4037fe:	6923      	ldr	r3, [r4, #16]
  403800:	6862      	ldr	r2, [r4, #4]
  403802:	429a      	cmp	r2, r3
  403804:	bfde      	ittt	le
  403806:	2330      	movle	r3, #48	; 0x30
  403808:	f805 3c01 	strble.w	r3, [r5, #-1]
  40380c:	f105 35ff 	addle.w	r5, r5, #4294967295
  403810:	ebc5 030e 	rsb	r3, r5, lr
  403814:	6123      	str	r3, [r4, #16]
  403816:	e02e      	b.n	403876 <_printf_i+0x1d6>
  403818:	6808      	ldr	r0, [r1, #0]
  40381a:	681a      	ldr	r2, [r3, #0]
  40381c:	6949      	ldr	r1, [r1, #20]
  40381e:	f010 0f80 	tst.w	r0, #128	; 0x80
  403822:	d003      	beq.n	40382c <_printf_i+0x18c>
  403824:	1d10      	adds	r0, r2, #4
  403826:	6018      	str	r0, [r3, #0]
  403828:	6813      	ldr	r3, [r2, #0]
  40382a:	e008      	b.n	40383e <_printf_i+0x19e>
  40382c:	f010 0f40 	tst.w	r0, #64	; 0x40
  403830:	f102 0004 	add.w	r0, r2, #4
  403834:	6018      	str	r0, [r3, #0]
  403836:	6813      	ldr	r3, [r2, #0]
  403838:	d001      	beq.n	40383e <_printf_i+0x19e>
  40383a:	8019      	strh	r1, [r3, #0]
  40383c:	e000      	b.n	403840 <_printf_i+0x1a0>
  40383e:	6019      	str	r1, [r3, #0]
  403840:	2300      	movs	r3, #0
  403842:	6123      	str	r3, [r4, #16]
  403844:	4675      	mov	r5, lr
  403846:	e016      	b.n	403876 <_printf_i+0x1d6>
  403848:	681a      	ldr	r2, [r3, #0]
  40384a:	1d11      	adds	r1, r2, #4
  40384c:	6019      	str	r1, [r3, #0]
  40384e:	6815      	ldr	r5, [r2, #0]
  403850:	6862      	ldr	r2, [r4, #4]
  403852:	2100      	movs	r1, #0
  403854:	4628      	mov	r0, r5
  403856:	f000 f84b 	bl	4038f0 <memchr>
  40385a:	b108      	cbz	r0, 403860 <_printf_i+0x1c0>
  40385c:	1b40      	subs	r0, r0, r5
  40385e:	6060      	str	r0, [r4, #4]
  403860:	6863      	ldr	r3, [r4, #4]
  403862:	e004      	b.n	40386e <_printf_i+0x1ce>
  403864:	f104 0542 	add.w	r5, r4, #66	; 0x42
  403868:	f884 2042 	strb.w	r2, [r4, #66]	; 0x42
  40386c:	2301      	movs	r3, #1
  40386e:	6123      	str	r3, [r4, #16]
  403870:	2300      	movs	r3, #0
  403872:	f884 3043 	strb.w	r3, [r4, #67]	; 0x43
  403876:	f8cd 8000 	str.w	r8, [sp]
  40387a:	463b      	mov	r3, r7
  40387c:	aa03      	add	r2, sp, #12
  40387e:	4621      	mov	r1, r4
  403880:	4630      	mov	r0, r6
  403882:	f7ff fe97 	bl	4035b4 <_printf_common>
  403886:	3001      	adds	r0, #1
  403888:	d102      	bne.n	403890 <_printf_i+0x1f0>
  40388a:	f04f 30ff 	mov.w	r0, #4294967295
  40388e:	e026      	b.n	4038de <_printf_i+0x23e>
  403890:	6923      	ldr	r3, [r4, #16]
  403892:	462a      	mov	r2, r5
  403894:	4639      	mov	r1, r7
  403896:	4630      	mov	r0, r6
  403898:	47c0      	blx	r8
  40389a:	3001      	adds	r0, #1
  40389c:	d0f5      	beq.n	40388a <_printf_i+0x1ea>
  40389e:	6823      	ldr	r3, [r4, #0]
  4038a0:	079b      	lsls	r3, r3, #30
  4038a2:	d510      	bpl.n	4038c6 <_printf_i+0x226>
  4038a4:	2500      	movs	r5, #0
  4038a6:	f104 0919 	add.w	r9, r4, #25
  4038aa:	e007      	b.n	4038bc <_printf_i+0x21c>
  4038ac:	2301      	movs	r3, #1
  4038ae:	464a      	mov	r2, r9
  4038b0:	4639      	mov	r1, r7
  4038b2:	4630      	mov	r0, r6
  4038b4:	47c0      	blx	r8
  4038b6:	3001      	adds	r0, #1
  4038b8:	d0e7      	beq.n	40388a <_printf_i+0x1ea>
  4038ba:	3501      	adds	r5, #1
  4038bc:	68e3      	ldr	r3, [r4, #12]
  4038be:	9a03      	ldr	r2, [sp, #12]
  4038c0:	1a9b      	subs	r3, r3, r2
  4038c2:	429d      	cmp	r5, r3
  4038c4:	dbf2      	blt.n	4038ac <_printf_i+0x20c>
  4038c6:	68e0      	ldr	r0, [r4, #12]
  4038c8:	9b03      	ldr	r3, [sp, #12]
  4038ca:	4298      	cmp	r0, r3
  4038cc:	bfb8      	it	lt
  4038ce:	4618      	movlt	r0, r3
  4038d0:	e005      	b.n	4038de <_printf_i+0x23e>
  4038d2:	780b      	ldrb	r3, [r1, #0]
  4038d4:	f884 3042 	strb.w	r3, [r4, #66]	; 0x42
  4038d8:	f104 0542 	add.w	r5, r4, #66	; 0x42
  4038dc:	e78a      	b.n	4037f4 <_printf_i+0x154>
  4038de:	b005      	add	sp, #20
  4038e0:	e8bd 83f0 	ldmia.w	sp!, {r4, r5, r6, r7, r8, r9, pc}
  4038e4:	00403ab5 	.word	0x00403ab5
  4038e8:	00403ac6 	.word	0x00403ac6
  4038ec:	00000000 	.word	0x00000000

004038f0 <memchr>:
  4038f0:	f001 01ff 	and.w	r1, r1, #255	; 0xff
  4038f4:	2a10      	cmp	r2, #16
  4038f6:	db2b      	blt.n	403950 <memchr+0x60>
  4038f8:	f010 0f07 	tst.w	r0, #7
  4038fc:	d008      	beq.n	403910 <memchr+0x20>
  4038fe:	f810 3b01 	ldrb.w	r3, [r0], #1
  403902:	3a01      	subs	r2, #1
  403904:	428b      	cmp	r3, r1
  403906:	d02d      	beq.n	403964 <memchr+0x74>
  403908:	f010 0f07 	tst.w	r0, #7
  40390c:	b342      	cbz	r2, 403960 <memchr+0x70>
  40390e:	d1f6      	bne.n	4038fe <memchr+0xe>
  403910:	b4f0      	push	{r4, r5, r6, r7}
  403912:	ea41 2101 	orr.w	r1, r1, r1, lsl #8
  403916:	ea41 4101 	orr.w	r1, r1, r1, lsl #16
  40391a:	f022 0407 	bic.w	r4, r2, #7
  40391e:	f07f 0700 	mvns.w	r7, #0
  403922:	2300      	movs	r3, #0
  403924:	e8f0 5602 	ldrd	r5, r6, [r0], #8
  403928:	3c08      	subs	r4, #8
  40392a:	ea85 0501 	eor.w	r5, r5, r1
  40392e:	ea86 0601 	eor.w	r6, r6, r1
  403932:	fa85 f547 	uadd8	r5, r5, r7
  403936:	faa3 f587 	sel	r5, r3, r7
  40393a:	fa86 f647 	uadd8	r6, r6, r7
  40393e:	faa5 f687 	sel	r6, r5, r7
  403942:	b98e      	cbnz	r6, 403968 <memchr+0x78>
  403944:	d1ee      	bne.n	403924 <memchr+0x34>
  403946:	bcf0      	pop	{r4, r5, r6, r7}
  403948:	f001 01ff 	and.w	r1, r1, #255	; 0xff
  40394c:	f002 0207 	and.w	r2, r2, #7
  403950:	b132      	cbz	r2, 403960 <memchr+0x70>
  403952:	f810 3b01 	ldrb.w	r3, [r0], #1
  403956:	3a01      	subs	r2, #1
  403958:	ea83 0301 	eor.w	r3, r3, r1
  40395c:	b113      	cbz	r3, 403964 <memchr+0x74>
  40395e:	d1f8      	bne.n	403952 <memchr+0x62>
  403960:	2000      	movs	r0, #0
  403962:	4770      	bx	lr
  403964:	3801      	subs	r0, #1
  403966:	4770      	bx	lr
  403968:	2d00      	cmp	r5, #0
  40396a:	bf06      	itte	eq
  40396c:	4635      	moveq	r5, r6
  40396e:	3803      	subeq	r0, #3
  403970:	3807      	subne	r0, #7
  403972:	f015 0f01 	tst.w	r5, #1
  403976:	d107      	bne.n	403988 <memchr+0x98>
  403978:	3001      	adds	r0, #1
  40397a:	f415 7f80 	tst.w	r5, #256	; 0x100
  40397e:	bf02      	ittt	eq
  403980:	3001      	addeq	r0, #1
  403982:	f415 3fc0 	tsteq.w	r5, #98304	; 0x18000
  403986:	3001      	addeq	r0, #1
  403988:	bcf0      	pop	{r4, r5, r6, r7}
  40398a:	3801      	subs	r0, #1
  40398c:	4770      	bx	lr
  40398e:	bf00      	nop

00403990 <memmove>:
  403990:	4288      	cmp	r0, r1
  403992:	b510      	push	{r4, lr}
  403994:	eb01 0302 	add.w	r3, r1, r2
  403998:	d801      	bhi.n	40399e <memmove+0xe>
  40399a:	1e42      	subs	r2, r0, #1
  40399c:	e00b      	b.n	4039b6 <memmove+0x26>
  40399e:	4298      	cmp	r0, r3
  4039a0:	d2fb      	bcs.n	40399a <memmove+0xa>
  4039a2:	1881      	adds	r1, r0, r2
  4039a4:	1ad2      	subs	r2, r2, r3
  4039a6:	42d3      	cmn	r3, r2
  4039a8:	d004      	beq.n	4039b4 <memmove+0x24>
  4039aa:	f813 4d01 	ldrb.w	r4, [r3, #-1]!
  4039ae:	f801 4d01 	strb.w	r4, [r1, #-1]!
  4039b2:	e7f8      	b.n	4039a6 <memmove+0x16>
  4039b4:	bd10      	pop	{r4, pc}
  4039b6:	4299      	cmp	r1, r3
  4039b8:	d004      	beq.n	4039c4 <memmove+0x34>
  4039ba:	f811 4b01 	ldrb.w	r4, [r1], #1
  4039be:	f802 4f01 	strb.w	r4, [r2, #1]!
  4039c2:	e7f8      	b.n	4039b6 <memmove+0x26>
  4039c4:	bd10      	pop	{r4, pc}

004039c6 <_realloc_r>:
  4039c6:	b5f8      	push	{r3, r4, r5, r6, r7, lr}
  4039c8:	4607      	mov	r7, r0
  4039ca:	4615      	mov	r5, r2
  4039cc:	460e      	mov	r6, r1
  4039ce:	b921      	cbnz	r1, 4039da <_realloc_r+0x14>
  4039d0:	4611      	mov	r1, r2
  4039d2:	e8bd 40f8 	ldmia.w	sp!, {r3, r4, r5, r6, r7, lr}
  4039d6:	f7ff bc17 	b.w	403208 <_malloc_r>
  4039da:	b91a      	cbnz	r2, 4039e4 <_realloc_r+0x1e>
  4039dc:	f7ff fbce 	bl	40317c <_free_r>
  4039e0:	4628      	mov	r0, r5
  4039e2:	bdf8      	pop	{r3, r4, r5, r6, r7, pc}
  4039e4:	f000 f815 	bl	403a12 <_malloc_usable_size_r>
  4039e8:	4285      	cmp	r5, r0
  4039ea:	d90e      	bls.n	403a0a <_realloc_r+0x44>
  4039ec:	4629      	mov	r1, r5
  4039ee:	4638      	mov	r0, r7
  4039f0:	f7ff fc0a 	bl	403208 <_malloc_r>
  4039f4:	4604      	mov	r4, r0
  4039f6:	b150      	cbz	r0, 403a0e <_realloc_r+0x48>
  4039f8:	4631      	mov	r1, r6
  4039fa:	462a      	mov	r2, r5
  4039fc:	f7ff fbb2 	bl	403164 <memcpy>
  403a00:	4631      	mov	r1, r6
  403a02:	4638      	mov	r0, r7
  403a04:	f7ff fbba 	bl	40317c <_free_r>
  403a08:	e001      	b.n	403a0e <_realloc_r+0x48>
  403a0a:	4630      	mov	r0, r6
  403a0c:	bdf8      	pop	{r3, r4, r5, r6, r7, pc}
  403a0e:	4620      	mov	r0, r4
  403a10:	bdf8      	pop	{r3, r4, r5, r6, r7, pc}

00403a12 <_malloc_usable_size_r>:
  403a12:	f851 0c04 	ldr.w	r0, [r1, #-4]
  403a16:	2800      	cmp	r0, #0
  403a18:	bfbe      	ittt	lt
  403a1a:	1809      	addlt	r1, r1, r0
  403a1c:	f851 3c04 	ldrlt.w	r3, [r1, #-4]
  403a20:	18c0      	addlt	r0, r0, r3
  403a22:	3804      	subs	r0, #4
  403a24:	4770      	bx	lr
  403a26:	0384      	.short	0x0384
  403a28:	0000      	.short	0x0000
  403a2a:	00          	.byte	0x00
  403a2b:	48          	.byte	0x48
  403a2c:	6f696c65 	.word	0x6f696c65
  403a30:	6c252073 	.word	0x6c252073
  403a34:	534d0064 	.word	0x534d0064
  403a38:	30315446 	.word	0x30315446
  403a3c:	3030      	.short	0x3030
  403a3e:	00          	.byte	0x00
  403a3f:	43          	.byte	0x43
  403a40:	00000000 	.word	0x00000000

00403a44 <__sf_fake_stdin>:
	...

00403a64 <__sf_fake_stdout>:
	...

00403a84 <__sf_fake_stderr>:
	...
  403aa4:	2b302d23 6c680020 6665004c 47464567     #-0+ .hlL.efgEFG
  403ab4:	32313000 36353433 41393837 45444342     .0123456789ABCDE
  403ac4:	31300046 35343332 39383736 64636261     F.0123456789abcd
  403ad4:	00006665                                ef..

00403ad8 <_init>:
  403ad8:	b5f8      	push	{r3, r4, r5, r6, r7, lr}
  403ada:	bf00      	nop
  403adc:	bcf8      	pop	{r3, r4, r5, r6, r7}
  403ade:	bc08      	pop	{r3}
  403ae0:	469e      	mov	lr, r3
  403ae2:	4770      	bx	lr

00403ae4 <__init_array_start>:
  403ae4:	004000f1 	.word	0x004000f1

00403ae8 <_fini>:
  403ae8:	b5f8      	push	{r3, r4, r5, r6, r7, lr}
  403aea:	bf00      	nop
  403aec:	bcf8      	pop	{r3, r4, r5, r6, r7}
  403aee:	bc08      	pop	{r3}
  403af0:	469e      	mov	lr, r3
  403af2:	4770      	bx	lr
  403af4:	0000      	movs	r0, r0
	...

00403af8 <__efc_perform_fcr_veneer>:
  403af8:	b401      	push	{r0}
  403afa:	4802      	ldr	r0, [pc, #8]	; (403b04 <__efc_perform_fcr_veneer+0xc>)
  403afc:	4684      	mov	ip, r0
  403afe:	bc01      	pop	{r0}
  403b00:	4760      	bx	ip
  403b02:	bf00      	nop
  403b04:	20000065 	.word	0x20000065

00403b08 <__efc_perform_read_sequence_veneer>:
  403b08:	b401      	push	{r0}
  403b0a:	4802      	ldr	r0, [pc, #8]	; (403b14 <__efc_perform_read_sequence_veneer+0xc>)
  403b0c:	4684      	mov	ip, r0
  403b0e:	bc01      	pop	{r0}
  403b10:	4760      	bx	ip
  403b12:	bf00      	nop
  403b14:	20000001 	.word	0x20000001

00403b18 <__efc_write_fmr_veneer>:
  403b18:	b401      	push	{r0}
  403b1a:	4802      	ldr	r0, [pc, #8]	; (403b24 <__efc_write_fmr_veneer+0xc>)
  403b1c:	4684      	mov	ip, r0
  403b1e:	bc01      	pop	{r0}
  403b20:	4760      	bx	ip
  403b22:	bf00      	nop
  403b24:	20000061 	.word	0x20000061

00403b28 <__fini_array_start>:
  403b28:	004000cd 	.word	0x004000cd

Disassembly of section .relocate:

20000000 <efc_perform_read_sequence>:
20000000:	b573      	push	{r0, r1, r4, r5, r6, lr}
20000002:	4604      	mov	r4, r0
20000004:	b333      	cbz	r3, 20000054 <efc_perform_read_sequence+0x54>
20000006:	6800      	ldr	r0, [r0, #0]
20000008:	b2c9      	uxtb	r1, r1
2000000a:	f440 3080 	orr.w	r0, r0, #65536	; 0x10000
2000000e:	f041 41b4 	orr.w	r1, r1, #1509949440	; 0x5a000000
20000012:	6020      	str	r0, [r4, #0]
20000014:	6061      	str	r1, [r4, #4]
20000016:	68a1      	ldr	r1, [r4, #8]
20000018:	9101      	str	r1, [sp, #4]
2000001a:	9801      	ldr	r0, [sp, #4]
2000001c:	f010 0001 	ands.w	r0, r0, #1
20000020:	d1f9      	bne.n	20000016 <efc_perform_read_sequence+0x16>
20000022:	9906      	ldr	r1, [sp, #24]
20000024:	4d0d      	ldr	r5, [pc, #52]	; (2000005c <efc_perform_read_sequence+0x5c>)
20000026:	eb03 0181 	add.w	r1, r3, r1, lsl #2
2000002a:	428b      	cmp	r3, r1
2000002c:	d004      	beq.n	20000038 <efc_perform_read_sequence+0x38>
2000002e:	f855 6f04 	ldr.w	r6, [r5, #4]!
20000032:	f843 6b04 	str.w	r6, [r3], #4
20000036:	e7f8      	b.n	2000002a <efc_perform_read_sequence+0x2a>
20000038:	b2d2      	uxtb	r2, r2
2000003a:	f042 42b4 	orr.w	r2, r2, #1509949440	; 0x5a000000
2000003e:	6062      	str	r2, [r4, #4]
20000040:	68a3      	ldr	r3, [r4, #8]
20000042:	9301      	str	r3, [sp, #4]
20000044:	9b01      	ldr	r3, [sp, #4]
20000046:	07db      	lsls	r3, r3, #31
20000048:	d5fa      	bpl.n	20000040 <efc_perform_read_sequence+0x40>
2000004a:	6823      	ldr	r3, [r4, #0]
2000004c:	f423 3380 	bic.w	r3, r3, #65536	; 0x10000
20000050:	6023      	str	r3, [r4, #0]
20000052:	e000      	b.n	20000056 <efc_perform_read_sequence+0x56>
20000054:	2002      	movs	r0, #2
20000056:	b002      	add	sp, #8
20000058:	bd70      	pop	{r4, r5, r6, pc}
2000005a:	bf00      	nop
2000005c:	003ffffc 	.word	0x003ffffc

20000060 <efc_write_fmr>:
20000060:	6001      	str	r1, [r0, #0]
20000062:	4770      	bx	lr

20000064 <efc_perform_fcr>:
20000064:	b082      	sub	sp, #8
20000066:	6041      	str	r1, [r0, #4]
20000068:	6883      	ldr	r3, [r0, #8]
2000006a:	9301      	str	r3, [sp, #4]
2000006c:	9b01      	ldr	r3, [sp, #4]
2000006e:	07db      	lsls	r3, r3, #31
20000070:	d5fa      	bpl.n	20000068 <efc_perform_fcr+0x4>
20000072:	9801      	ldr	r0, [sp, #4]
20000074:	f000 000e 	and.w	r0, r0, #14
20000078:	b002      	add	sp, #8
2000007a:	4770      	bx	lr

2000007c <udi_api_vendor>:
2000007c:	014d 0040 0139 0040 0129 0040 012d 0040     M.@.9.@.).@.-.@.
2000008c:	0000 0000                                   ....

20000090 <udc_string_product_name>:
20000090:	6548 696c 736f 4c20 7361 7265 4420 4341     Helios Laser DAC
	...

200000a1 <udc_string_manufacturer_name>:
200000a1:	6947 6c74 2065 694d 6b6b 6c65 6573 006e     Gitle Mikkelsen.
200000b1:	0000 0000                                        ...

200000b4 <udc_string_desc>:
200000b4:	0300 0000 0000 0000 0000 0000 0000 0000     ................
	...

200000d8 <udc_string_desc_languageid>:
200000d8:	0304 0409                                   ....

200000dc <udc_config_lsfs>:
200000dc:	0108 2000 00f0 2000                         ... ... 

200000e4 <udc_config>:
200000e4:	00f4 2000 00dc 2000 0000 0000               ... ... ....

200000f0 <udi_apis>:
200000f0:	007c 2000                                   |.. 

200000f4 <udc_device_desc>:
200000f4:	0112 0200 0000 4000 1209 e500 0200 0201     .......@........
20000104:	0100 0000                                   ....

20000108 <udc_desc_fs>:
20000108:	0209 0045 0101 8000 094b 0004 0000 ffff     ..E.....K.......
20000118:	00ff 0409 0100 ff06 ffff 0700 8305 2003     ............... 
20000128:	0100 0507 0306 0020 0701 8105 4002 0000     ...... ......@..
20000138:	0507 0202 0040 0700 8405 0101 0100 0507     ....@...........
20000148:	0105 0001 0001 0000                         ........

20000150 <ul_flash_in_wait_mode>:
20000150:	0000 0020                                   .. .

20000154 <g_interrupt_enabled>:
20000154:	0001 0000                                   ....

20000158 <SystemCoreClock>:
20000158:	0900 003d                                   ..=.

2000015c <extra_strings_desc.9196>:
2000015c:	0300 0000 0000 0000 0000 0000 0000 0000     ................
2000016c:	0000 0000                                   ....

20000170 <msft_compatible>:
20000170:	0028 0000 0100 0004 0001 0000 0000 0000     (...............
20000180:	0000 4957 554e 4253 0000 0000 0000 0000     ..WINUSB........
	...

20000198 <notRepeat>:
20000198:	0101                                             .

20000199 <newNotRepeat>:
20000199:	0001 2000                                        ...

2000019c <outputSpeed>:
2000019c:	4e20 0000                                    N..

200001a0 <impure_data>:
200001a0:	0000 0000 3a44 0040 3a64 0040 3a84 0040     ....D:@.d:@..:@.
	...
200001c0:	3a3f 0040 0000 0000 0000 0000 0000 0000     ?:@.............
	...

20000200 <_impure_ptr>:
20000200:	01a0 2000                                   ... 
